 a2mgr

 Timestamp is 571c6a6d (Sun Apr 24 09:40:45 2016)

 Preferred load address is 10000000

 Start         Length     Name                   Class
 0001:00000000 0004de56H .text                   CODE
 0001:0004de60 00002b1bH .text$x                 CODE
 0001:00050980 000002cfH .text$yc                CODE
 0001:00050c50 00000325H .text$yd                CODE
 0002:00000000 00000288H .idata$5                DATA
 0002:00000288 00000004H .CRT$XCA                DATA
 0002:0000028c 0000000cH .CRT$XCC                DATA
 0002:00000298 00000010H .CRT$XCL                DATA
 0002:000002a8 00000044H .CRT$XCU                DATA
 0002:000002ec 00000004H .CRT$XCZ                DATA
 0002:000002f0 00000004H .CRT$XIA                DATA
 0002:000002f4 00000014H .CRT$XIC                DATA
 0002:00000308 00000004H .CRT$XIY                DATA
 0002:0000030c 00000004H .CRT$XIZ                DATA
 0002:00000310 00000004H .CRT$XPA                DATA
 0002:00000314 00000004H .CRT$XPX                DATA
 0002:00000318 00000004H .CRT$XPXA               DATA
 0002:0000031c 00000004H .CRT$XPZ                DATA
 0002:00000320 00000004H .CRT$XTA                DATA
 0002:00000324 00000004H .CRT$XTB                DATA
 0002:00000328 00000004H .CRT$XTZ                DATA
 0002:00000330 00006070H .rdata                  DATA
 0002:000063a0 000008a8H .rdata$r                DATA
 0002:00006c50 00000300H .rdata$sxdata           DATA
 0002:00006f50 00000004H .rtc$IAA                DATA
 0002:00006f54 00000004H .rtc$IZZ                DATA
 0002:00006f58 00000004H .rtc$TAA                DATA
 0002:00006f5c 00000004H .rtc$TZZ                DATA
 0002:00006f60 00003d7cH .xdata$x                DATA
 0002:0000acdc 00000000H ATL$__a                 DATA
 0002:0000acdc 00000000H ATL$__z                 DATA
 0002:0000acdc 000000a0H .idata$2                DATA
 0002:0000ad7c 00000014H .idata$3                DATA
 0002:0000ad90 00000288H .idata$4                DATA
 0002:0000b018 00000a0eH .idata$6                DATA
 0002:0000ba30 00000550H .edata                  DATA
 0003:00000000 0000209cH .data                   DATA
 0003:000020a0 00016c44H .bss                    DATA

  Address         Publics by Value              Rva+Base       Lib:Object

 0000:00000000       __except_list              00000000     <absolute>
 0000:000000c0       ___safe_se_handler_count   000000c0     <absolute>
 0000:00000000       ___ImageBase               10000000     <linker-defined>
 0001:00000000       ??1bad_alloc@std@@UAE@XZ   10001000 f i a2mgr.obj
 0001:00000010       ??_Gbad_alloc@std@@UAEPAXI@Z 10001010 f i a2mgr.obj
 0001:00000010       ??_Ebad_alloc@std@@UAEPAXI@Z 10001010 f i a2mgr.obj
 0001:00000040       ?compare@?$char_traits@D@std@@SAHPBD0I@Z 10001040 f i a2mgr.obj
 0001:000000f0       ?DirectoryExists@@YAHPBD@Z 100010f0 f   a2mgr.obj
 0001:00000110       ?DllMain_Shutdown@@YGXPAUHINSTANCE__@@KPAX@Z 10001110 f   a2mgr.obj
 0001:00000150       ?_fix_launcher@@YAXXZ      10001150 f   a2mgr.obj
 0001:00000170       ?BASE_setCurrentDirectory1@@YGHPAD@Z 10001170 f   a2mgr.obj
 0001:00000260       ?DumpSHA@@YA?AV?$basic_string@DU?$char_traits@D@std@@V?$allocator@D@2@@std@@QAE@Z 10001260 f   a2mgr.obj
 0001:00000350       ?DllMain_Init@@YG_NPAUHINSTANCE__@@KPAX@Z 10001350 f   a2mgr.obj
 0001:00001000       _DllMain@12                10002000 f   a2mgr.obj
 0001:00001070       ?size@?$vector@V?$basic_string@DU?$char_traits@D@std@@V?$allocator@D@2@@std@@V?$allocator@V?$basic_string@DU?$char_traits@D@std@@V?$allocator@D@2@@std@@@2@@std@@QBEIXZ 10002070 f i a2mgr.obj
 0001:000010a0       ??A?$vector@V?$basic_string@DU?$char_traits@D@std@@V?$allocator@D@2@@std@@V?$allocator@V?$basic_string@DU?$char_traits@D@std@@V?$allocator@D@2@@std@@@2@@std@@QAEAAV?$basic_string@DU?$char_traits@D@std@@V?$allocator@D@2@@1@I@Z 100020a0 f i a2mgr.obj
 0001:000010f0       ?_Myptr@?$basic_string@DU?$char_traits@D@std@@V?$allocator@D@2@@std@@IBEPBDXZ 100020f0 f i a2mgr.obj
 0001:00001100       ??0bad_alloc@std@@QAE@ABV01@@Z 10002100 f i a2mgr.obj
 0001:00001120       ?find_last_of@?$basic_string@DU?$char_traits@D@std@@V?$allocator@D@2@@std@@QBEIPBDII@Z 10002120 f i a2mgr.obj
 0001:000011d0       ?compare@?$basic_string@DU?$char_traits@D@std@@V?$allocator@D@2@@std@@QBEHIIPBDI@Z 100021d0 f i a2mgr.obj
 0001:00001240       ?erase@?$basic_string@DU?$char_traits@D@std@@V?$allocator@D@2@@std@@QAEAAV12@II@Z 10002240 f i a2mgr.obj
 0001:000012d0       ?_Tidy@?$basic_string@DU?$char_traits@D@std@@V?$allocator@D@2@@std@@IAEX_NI@Z 100022d0 f i a2mgr.obj
 0001:00001320       ?_Copy@?$basic_string@DU?$char_traits@D@std@@V?$allocator@D@2@@std@@IAEXII@Z 10002320 f i a2mgr.obj
 0001:00001470       ??$?8DU?$char_traits@D@std@@V?$allocator@D@1@@std@@YA_NABV?$basic_string@DU?$char_traits@D@std@@V?$allocator@D@2@@0@PBD@Z 10002470 f i a2mgr.obj
 0001:000014b0       ??1IPAddress@IPFilter@@QAE@XZ 100024b0 f i socket.obj
 0001:000014b0       ??1?$basic_string@DU?$char_traits@D@std@@V?$allocator@D@2@@std@@QAE@XZ 100024b0 f i a2mgr.obj
 0001:000014e0       ?assign@?$basic_string@DU?$char_traits@D@std@@V?$allocator@D@2@@std@@QAEAAV12@ABV12@II@Z 100024e0 f i a2mgr.obj
 0001:000015c0       ?append@?$basic_string@DU?$char_traits@D@std@@V?$allocator@D@2@@std@@QAEAAV12@ABV12@II@Z 100025c0 f i a2mgr.obj
 0001:000016c0       ?append@?$basic_string@DU?$char_traits@D@std@@V?$allocator@D@2@@std@@QAEAAV12@PBDI@Z 100026c0 f i a2mgr.obj
 0001:000017b0       ?assign@?$basic_string@DU?$char_traits@D@std@@V?$allocator@D@2@@std@@QAEAAV12@PBDI@Z 100027b0 f i a2mgr.obj
 0001:00001880       ??0?$basic_string@DU?$char_traits@D@std@@V?$allocator@D@2@@std@@QAE@ABV01@@Z 10002880 f i a2mgr.obj
 0001:000018b0       ?assign@?$basic_string@DU?$char_traits@D@std@@V?$allocator@D@2@@std@@QAEAAV12@PBD@Z 100028b0 f i a2mgr.obj
 0001:000018e0       ?destroy@?$allocator@V?$basic_string@DU?$char_traits@D@std@@V?$allocator@D@2@@std@@@std@@QAEXPAV?$basic_string@DU?$char_traits@D@std@@V?$allocator@D@2@@2@@Z 100028e0 f i a2mgr.obj
 0001:00001910       ??0?$basic_string@DU?$char_traits@D@std@@V?$allocator@D@2@@std@@QAE@PBD@Z 10002910 f i a2mgr.obj
 0001:00001950       ??$?HDU?$char_traits@D@std@@V?$allocator@D@1@@std@@YA?AV?$basic_string@DU?$char_traits@D@std@@V?$allocator@D@2@@0@ABV10@PBD@Z 10002950 f i a2mgr.obj
 0001:00001a10       ??$_Destroy_range@V?$basic_string@DU?$char_traits@D@std@@V?$allocator@D@2@@std@@V?$allocator@V?$basic_string@DU?$char_traits@D@std@@V?$allocator@D@2@@std@@@2@@std@@YAXPAV?$basic_string@DU?$char_traits@D@std@@V?$allocator@D@2@@0@0AAV?$allocator@V?$basic_string@DU?$char_traits@D@std@@V?$allocator@D@2@@std@@@0@U_Nonscalar_ptr_iterator_tag@0@@Z 10002a10 f i a2mgr.obj
 0001:00001a50       ?_Destroy@?$vector@V?$basic_string@DU?$char_traits@D@std@@V?$allocator@D@2@@std@@V?$allocator@V?$basic_string@DU?$char_traits@D@std@@V?$allocator@D@2@@std@@@2@@std@@IAEXPAV?$basic_string@DU?$char_traits@D@std@@V?$allocator@D@2@@2@0@Z 10002a50 f i a2mgr.obj
 0001:00001a70       ?_Tidy@?$vector@V?$basic_string@DU?$char_traits@D@std@@V?$allocator@D@2@@std@@V?$allocator@V?$basic_string@DU?$char_traits@D@std@@V?$allocator@D@2@@std@@@2@@std@@IAEXXZ 10002a70 f i a2mgr.obj
 0001:00001a70       ??1?$vector@V?$basic_string@DU?$char_traits@D@std@@V?$allocator@D@2@@std@@V?$allocator@V?$basic_string@DU?$char_traits@D@std@@V?$allocator@D@2@@std@@@2@@std@@QAE@XZ 10002a70 f i a2mgr.obj
 0001:00001b00       ?ConsoleProc@@YG_NEH@Z     10002b00 f   add_info.obj
 0001:00001c00       ?ConsoleImpl@@YAXXZ        10002c00 f   add_info.obj
 0001:00001ea0       ?FpsImpl@@YGXKPAUtagRECT@@@Z 10002ea0 f   add_info.obj
 0001:00002190       ?INFO_fps@@YAXXZ           10003190 f   add_info.obj
 0001:000021b0       ?GetFirstName@@YGPADK@Z    100031b0 f   administrat_fix.obj
 0001:00002230       ?GetSecondName@@YGPADK@Z   10003230 f   administrat_fix.obj
 0001:000022c0       ?CheckNickname@@YG_NK@Z    100032c0 f   administrat_fix.obj
 0001:00002330       ?ADMINISTRAT@@YAXXZ        10003330 f   administrat_fix.obj
 0001:000023e0       ?CHAT_wmCharHandler@@YAXXZ 100033e0 f   chat.obj
 0001:00002410       ?conv_double_tilde@@YGPADPAD@Z 10003410 f   chat.obj
 0001:00002450       ?CHAT_tilde0@@YAXXZ        10003450 f   chat.obj
 0001:00002460       ?CHAT_tilde1@@YAXXZ        10003460 f   chat.obj
 0001:00002470       ?CHAT_tilde2@@YAXXZ        10003470 f   chat.obj
 0001:00002480       ?CHAT_convWinToDos@@YAXXZ  10003480 f   chat.obj
 0001:000024c0       ?CHAT_convDosToIdx@@YAXXZ  100034c0 f   chat.obj
 0001:00002500       ?CHAT_logStrings@@YAHPADHH@Z 10003500 f   chat.obj
 0001:00002540       ?chatAddStringCpp@@YGPADPADH@Z 10003540 f   chat.obj
 0001:00002660       ?CHAT_prependType_part1@@YAXXZ 10003660 f   chat.obj
 0001:00002690       ?CHAT_prependType_part2@@YAXXZ 10003690 f   chat.obj
 0001:000026c0       ?IdleProcessing@CWindow@GUI@zxmgr@@SAXXZ 100036c0 f i zxmgr_gui.obj
 0001:000026c0       ??3@YAXPAX0@Z              100036c0 f i chat_history.obj
 0001:000026d0       ?str_empty@@YAXPAPAD@Z     100036d0 f   chat_history.obj
 0001:000026f0       ?str_assign@@YAXPAPADPBD@Z 100036f0 f   chat_history.obj
 0001:00002710       ?str_array_resize@@YAXPADK@Z 10003710 f   chat_history.obj
 0001:00002730       ?consoleTab@@YGXPAX@Z      10003730 f   chat_history.obj
 0001:00002740       ?logOpen@@YGXK@Z           10003740 f   chat_history.obj
 0001:00002760       ?logEscape@@YGXKE@Z        10003760 f   chat_history.obj
 0001:00002770       ?CHAT_fixEscape@@YAXXZ     10003770 f   chat_history.obj
 0001:000027f0       ?CHAT_dbg@@YAXXZ           100037f0 f   chat_history.obj
 0001:00002810       ?setString@@YAKPAD@Z       10003810 f   chat_history.obj
 0001:000029b0       ?consoleDown@@YGKPAD@Z     100039b0 f   chat_history.obj
 0001:00002a10       ?consoleUp@@YGKPAD@Z       10003a10 f   chat_history.obj
 0001:00002a50       ?getStringLastT@@YG?AV?$basic_string@DU?$char_traits@D@std@@V?$allocator@D@2@@std@@XZ 10003a50 f   chat_history.obj
 0001:00002b70       ?getStringLast@@YGXPAPAD@Z 10003b70 f   chat_history.obj
 0001:00002c30       ?CHAT_getMessageLast@@YAXXZ 10003c30 f   chat_history.obj
 0001:00002c40       ?addString@@YAXPAD@Z       10003c40 f   chat_history.obj
 0001:00002d90       ?consoleEnter@@YGKPAD@Z    10003d90 f   chat_history.obj
 0001:00002dc0       ?CHAT_keyDown@@YAXXZ       10003dc0 f   chat_history.obj
 0001:00002e50       ??$_Allocate@V?$vector@V?$basic_string@DU?$char_traits@D@std@@V?$allocator@D@2@@std@@V?$allocator@V?$basic_string@DU?$char_traits@D@std@@V?$allocator@D@2@@std@@@2@@std@@@std@@YAPAV?$vector@V?$basic_string@DU?$char_traits@D@std@@V?$allocator@D@2@@std@@V?$allocator@V?$basic_string@DU?$char_traits@D@std@@V?$allocator@D@2@@std@@@2@@0@IPAV10@@Z 10003e50 f i chat_history.obj
 0001:00002eb0       ??$_Allocate@V?$basic_string@DU?$char_traits@D@std@@V?$allocator@D@2@@std@@@std@@YAPAV?$basic_string@DU?$char_traits@D@std@@V?$allocator@D@2@@0@IPAV10@@Z 10003eb0 f i chat_history.obj
 0001:00002f20       ?what@runtime_error@std@@UBEPBDXZ 10003f20 f i config.obj
 0001:00002f20       ?what@logic_error@std@@UBEPBDXZ 10003f20 f i chat_history.obj
 0001:00002f30       ??$_Copy_opt@PAV?$basic_string@DU?$char_traits@D@std@@V?$allocator@D@2@@std@@PAV12@Uforward_iterator_tag@2@@std@@YAPAV?$basic_string@DU?$char_traits@D@std@@V?$allocator@D@2@@0@PAV10@00Uforward_iterator_tag@0@U_Nonscalar_ptr_iterator_tag@0@U_Range_checked_iterator_tag@0@@Z 10003f30 f i chat_history.obj
 0001:00002f70       ??0logic_error@std@@QAE@ABV?$basic_string@DU?$char_traits@D@std@@V?$allocator@D@2@@1@@Z 10003f70 f i chat_history.obj
 0001:00002fe0       ??1out_of_range@std@@UAE@XZ 10003fe0 f i class_extend.obj
 0001:00002fe0       ??1length_error@std@@UAE@XZ 10003fe0 f i chat_history.obj
 0001:00003020       ??0logic_error@std@@QAE@ABV01@@Z 10004020 f i chat_history.obj
 0001:000030a0       ??0length_error@std@@QAE@ABV01@@Z 100040a0 f i chat_history.obj
 0001:000030c0       ??$_Copy_opt@PAV?$basic_string@DU?$char_traits@D@std@@V?$allocator@D@2@@std@@PAV12@@std@@YAPAV?$basic_string@DU?$char_traits@D@std@@V?$allocator@D@2@@0@PAV10@00Urandom_access_iterator_tag@0@U_Nonscalar_ptr_iterator_tag@0@U_Range_checked_iterator_tag@0@@Z 100040c0 f i chat_history.obj
 0001:00003120       ??$_Uninit_copy@PAV?$basic_string@DU?$char_traits@D@std@@V?$allocator@D@2@@std@@PAV12@V?$allocator@V?$basic_string@DU?$char_traits@D@std@@V?$allocator@D@2@@std@@@2@@std@@YAPAV?$basic_string@DU?$char_traits@D@std@@V?$allocator@D@2@@0@PAV10@00AAV?$allocator@V?$basic_string@DU?$char_traits@D@std@@V?$allocator@D@2@@std@@@0@U_Nonscalar_ptr_iterator_tag@0@U_Range_checked_iterator_tag@0@@Z 10004120 f i chat_history.obj
 0001:00003120       ??$_Uninit_copy@PBV?$basic_string@DU?$char_traits@D@std@@V?$allocator@D@2@@std@@PAV12@V?$allocator@V?$basic_string@DU?$char_traits@D@std@@V?$allocator@D@2@@std@@@2@@std@@YAPAV?$basic_string@DU?$char_traits@D@std@@V?$allocator@D@2@@0@PBV10@0PAV10@AAV?$allocator@V?$basic_string@DU?$char_traits@D@std@@V?$allocator@D@2@@std@@@0@U_Nonscalar_ptr_iterator_tag@0@U_Range_checked_iterator_tag@0@@Z 10004120 f i chat_history.obj
 0001:000031e0       ?_Buy@?$vector@V?$basic_string@DU?$char_traits@D@std@@V?$allocator@D@2@@std@@V?$allocator@V?$basic_string@DU?$char_traits@D@std@@V?$allocator@D@2@@std@@@2@@std@@IAE_NI@Z 100041e0 f i chat_history.obj
 0001:00003240       ??$fill@PAV?$basic_string@DU?$char_traits@D@std@@V?$allocator@D@2@@std@@V12@@std@@YAXPAV?$basic_string@DU?$char_traits@D@std@@V?$allocator@D@2@@0@0ABV10@@Z 10004240 f i chat_history.obj
 0001:00003270       ??$_Uninit_fill_n@PAV?$basic_string@DU?$char_traits@D@std@@V?$allocator@D@2@@std@@IV12@V?$allocator@V?$basic_string@DU?$char_traits@D@std@@V?$allocator@D@2@@std@@@2@@std@@YAXPAV?$basic_string@DU?$char_traits@D@std@@V?$allocator@D@2@@0@IABV10@AAV?$allocator@V?$basic_string@DU?$char_traits@D@std@@V?$allocator@D@2@@std@@@0@U_Nonscalar_ptr_iterator_tag@0@U_Range_checked_iterator_tag@0@@Z 10004270 f i chat_history.obj
 0001:00003330       ??$_Uninit_move@PAV?$basic_string@DU?$char_traits@D@std@@V?$allocator@D@2@@std@@PAV12@V?$allocator@V?$basic_string@DU?$char_traits@D@std@@V?$allocator@D@2@@std@@@2@@std@@YAPAV?$basic_string@DU?$char_traits@D@std@@V?$allocator@D@2@@0@PAV10@00AAV?$allocator@V?$basic_string@DU?$char_traits@D@std@@V?$allocator@D@2@@std@@@0@U_Swap_move_tag@0@U_Range_checked_iterator_tag@0@@Z 10004330 f i chat_history.obj
 0001:00003470       ??$_Move_backward_opt@PAV?$basic_string@DU?$char_traits@D@std@@V?$allocator@D@2@@std@@PAV12@Uforward_iterator_tag@2@@std@@YAPAV?$basic_string@DU?$char_traits@D@std@@V?$allocator@D@2@@0@PAV10@00Uforward_iterator_tag@0@U_Swap_move_tag@0@U_Range_checked_iterator_tag@0@@Z 10004470 f i chat_history.obj
 0001:00003500       ??$unchecked_copy@PAV?$basic_string@DU?$char_traits@D@std@@V?$allocator@D@2@@std@@PAV12@@stdext@@YAPAV?$basic_string@DU?$char_traits@D@std@@V?$allocator@D@2@@std@@PAV12@00@Z 10004500 f i chat_history.obj
 0001:00003530       ??$_Move_backward_opt@PAV?$basic_string@DU?$char_traits@D@std@@V?$allocator@D@2@@std@@PAV12@@std@@YAPAV?$basic_string@DU?$char_traits@D@std@@V?$allocator@D@2@@0@PAV10@00Urandom_access_iterator_tag@0@U_Swap_move_tag@0@U_Range_checked_iterator_tag@0@@Z 10004530 f i chat_history.obj
 0001:00003590       ?erase@?$vector@V?$basic_string@DU?$char_traits@D@std@@V?$allocator@D@2@@std@@V?$allocator@V?$basic_string@DU?$char_traits@D@std@@V?$allocator@D@2@@std@@@2@@std@@QAE?AV?$_Vector_iterator@V?$basic_string@DU?$char_traits@D@std@@V?$allocator@D@2@@std@@V?$allocator@V?$basic_string@DU?$char_traits@D@std@@V?$allocator@D@2@@std@@@2@@2@V32@0@Z 10004590 f i chat_history.obj
 0001:00003600       ??$_Ucopy@PAV?$basic_string@DU?$char_traits@D@std@@V?$allocator@D@2@@std@@@?$vector@V?$basic_string@DU?$char_traits@D@std@@V?$allocator@D@2@@std@@V?$allocator@V?$basic_string@DU?$char_traits@D@std@@V?$allocator@D@2@@std@@@2@@std@@IAEPAV?$basic_string@DU?$char_traits@D@std@@V?$allocator@D@2@@1@PAV21@00@Z 10004600 f i chat_history.obj
 0001:00003630       ?_Ufill@?$vector@V?$basic_string@DU?$char_traits@D@std@@V?$allocator@D@2@@std@@V?$allocator@V?$basic_string@DU?$char_traits@D@std@@V?$allocator@D@2@@std@@@2@@std@@IAEPAV?$basic_string@DU?$char_traits@D@std@@V?$allocator@D@2@@2@PAV32@IABV32@@Z 10004630 f i chat_history.obj
 0001:00003670       ??$_Umove@PAV?$basic_string@DU?$char_traits@D@std@@V?$allocator@D@2@@std@@@?$vector@V?$basic_string@DU?$char_traits@D@std@@V?$allocator@D@2@@std@@V?$allocator@V?$basic_string@DU?$char_traits@D@std@@V?$allocator@D@2@@std@@@2@@std@@IAEPAV?$basic_string@DU?$char_traits@D@std@@V?$allocator@D@2@@1@PAV21@00@Z 10004670 f i chat_history.obj
 0001:000036a0       ??$_Unchecked_move_backward@PAV?$basic_string@DU?$char_traits@D@std@@V?$allocator@D@2@@std@@PAV12@@stdext@@YAPAV?$basic_string@DU?$char_traits@D@std@@V?$allocator@D@2@@std@@PAV12@00@Z 100046a0 f i chat_history.obj
 0001:000036d0       ?clear@?$vector@V?$basic_string@DU?$char_traits@D@std@@V?$allocator@D@2@@std@@V?$allocator@V?$basic_string@DU?$char_traits@D@std@@V?$allocator@D@2@@std@@@2@@std@@QAEXXZ 100046d0 f i chat_history.obj
 0001:00003710       ??0?$vector@V?$basic_string@DU?$char_traits@D@std@@V?$allocator@D@2@@std@@V?$allocator@V?$basic_string@DU?$char_traits@D@std@@V?$allocator@D@2@@std@@@2@@std@@QAE@ABV01@@Z 10004710 f i chat_history.obj
 0001:000037e0       ?_Insert_n@?$vector@V?$basic_string@DU?$char_traits@D@std@@V?$allocator@D@2@@std@@V?$allocator@V?$basic_string@DU?$char_traits@D@std@@V?$allocator@D@2@@std@@@2@@std@@IAEXV?$_Vector_iterator@V?$basic_string@DU?$char_traits@D@std@@V?$allocator@D@2@@std@@V?$allocator@V?$basic_string@DU?$char_traits@D@std@@V?$allocator@D@2@@std@@@2@@2@IABV?$basic_string@DU?$char_traits@D@std@@V?$allocator@D@2@@2@@Z 100047e0 f i chat_history.obj
 0001:00003b40       ??4?$vector@V?$basic_string@DU?$char_traits@D@std@@V?$allocator@D@2@@std@@V?$allocator@V?$basic_string@DU?$char_traits@D@std@@V?$allocator@D@2@@std@@@2@@std@@QAEAAV01@ABV01@@Z 10004b40 f i chat_history.obj
 0001:00003cf0       ?insert@?$vector@V?$basic_string@DU?$char_traits@D@std@@V?$allocator@D@2@@std@@V?$allocator@V?$basic_string@DU?$char_traits@D@std@@V?$allocator@D@2@@std@@@2@@std@@QAE?AV?$_Vector_iterator@V?$basic_string@DU?$char_traits@D@std@@V?$allocator@D@2@@std@@V?$allocator@V?$basic_string@DU?$char_traits@D@std@@V?$allocator@D@2@@std@@@2@@2@V32@ABV?$basic_string@DU?$char_traits@D@std@@V?$allocator@D@2@@2@@Z 10004cf0 f i chat_history.obj
 0001:00003db0       ?push_back@?$vector@V?$basic_string@DU?$char_traits@D@std@@V?$allocator@D@2@@std@@V?$allocator@V?$basic_string@DU?$char_traits@D@std@@V?$allocator@D@2@@std@@@2@@std@@QAEXABV?$basic_string@DU?$char_traits@D@std@@V?$allocator@D@2@@2@@Z 10004db0 f i chat_history.obj
 0001:00003e60       ??$fill@PAV?$vector@V?$basic_string@DU?$char_traits@D@std@@V?$allocator@D@2@@std@@V?$allocator@V?$basic_string@DU?$char_traits@D@std@@V?$allocator@D@2@@std@@@2@@std@@V12@@std@@YAXPAV?$vector@V?$basic_string@DU?$char_traits@D@std@@V?$allocator@D@2@@std@@V?$allocator@V?$basic_string@DU?$char_traits@D@std@@V?$allocator@D@2@@std@@@2@@0@0ABV10@@Z 10004e60 f i chat_history.obj
 0001:00003e90       ?destroy@?$allocator@V?$vector@V?$basic_string@DU?$char_traits@D@std@@V?$allocator@D@2@@std@@V?$allocator@V?$basic_string@DU?$char_traits@D@std@@V?$allocator@D@2@@std@@@2@@std@@@std@@QAEXPAV?$vector@V?$basic_string@DU?$char_traits@D@std@@V?$allocator@D@2@@std@@V?$allocator@V?$basic_string@DU?$char_traits@D@std@@V?$allocator@D@2@@std@@@2@@2@@Z 10004e90 f i chat_history.obj
 0001:00003ee0       ??$_Uninit_move@PAV?$vector@V?$basic_string@DU?$char_traits@D@std@@V?$allocator@D@2@@std@@V?$allocator@V?$basic_string@DU?$char_traits@D@std@@V?$allocator@D@2@@std@@@2@@std@@PAV12@V?$allocator@V?$vector@V?$basic_string@DU?$char_traits@D@std@@V?$allocator@D@2@@std@@V?$allocator@V?$basic_string@DU?$char_traits@D@std@@V?$allocator@D@2@@std@@@2@@std@@@2@@std@@YAPAV?$vector@V?$basic_string@DU?$char_traits@D@std@@V?$allocator@D@2@@std@@V?$allocator@V?$basic_string@DU?$char_traits@D@std@@V?$allocator@D@2@@std@@@2@@0@PAV10@00AAV?$allocator@V?$vector@V?$basic_string@DU?$char_traits@D@std@@V?$allocator@D@2@@std@@V?$allocator@V?$basic_string@DU?$char_traits@D@std@@V?$allocator@D@2@@std@@@2@@std@@@0@U_Swap_move_tag@0@U_Range_checked_iterator_tag@0@@Z 10004ee0 f i chat_history.obj
 0001:00003fe0       ??$_Move_backward_opt@PAV?$vector@V?$basic_string@DU?$char_traits@D@std@@V?$allocator@D@2@@std@@V?$allocator@V?$basic_string@DU?$char_traits@D@std@@V?$allocator@D@2@@std@@@2@@std@@PAV12@Uforward_iterator_tag@2@@std@@YAPAV?$vector@V?$basic_string@DU?$char_traits@D@std@@V?$allocator@D@2@@std@@V?$allocator@V?$basic_string@DU?$char_traits@D@std@@V?$allocator@D@2@@std@@@2@@0@PAV10@00Uforward_iterator_tag@0@U_Swap_move_tag@0@U_Range_checked_iterator_tag@0@@Z 10004fe0 f i chat_history.obj
 0001:00004030       ??$_Uninit_fill_n@PAV?$vector@V?$basic_string@DU?$char_traits@D@std@@V?$allocator@D@2@@std@@V?$allocator@V?$basic_string@DU?$char_traits@D@std@@V?$allocator@D@2@@std@@@2@@std@@IV12@V?$allocator@V?$vector@V?$basic_string@DU?$char_traits@D@std@@V?$allocator@D@2@@std@@V?$allocator@V?$basic_string@DU?$char_traits@D@std@@V?$allocator@D@2@@std@@@2@@std@@@2@@std@@YAXPAV?$vector@V?$basic_string@DU?$char_traits@D@std@@V?$allocator@D@2@@std@@V?$allocator@V?$basic_string@DU?$char_traits@D@std@@V?$allocator@D@2@@std@@@2@@0@IABV10@AAV?$allocator@V?$vector@V?$basic_string@DU?$char_traits@D@std@@V?$allocator@D@2@@std@@V?$allocator@V?$basic_string@DU?$char_traits@D@std@@V?$allocator@D@2@@std@@@2@@std@@@0@U_Nonscalar_ptr_iterator_tag@0@U_Range_checked_iterator_tag@0@@Z 10005030 f i chat_history.obj
 0001:000040e0       ??$_Destroy_range@V?$vector@V?$basic_string@DU?$char_traits@D@std@@V?$allocator@D@2@@std@@V?$allocator@V?$basic_string@DU?$char_traits@D@std@@V?$allocator@D@2@@std@@@2@@std@@V?$allocator@V?$vector@V?$basic_string@DU?$char_traits@D@std@@V?$allocator@D@2@@std@@V?$allocator@V?$basic_string@DU?$char_traits@D@std@@V?$allocator@D@2@@std@@@2@@std@@@2@@std@@YAXPAV?$vector@V?$basic_string@DU?$char_traits@D@std@@V?$allocator@D@2@@std@@V?$allocator@V?$basic_string@DU?$char_traits@D@std@@V?$allocator@D@2@@std@@@2@@0@0AAV?$allocator@V?$vector@V?$basic_string@DU?$char_traits@D@std@@V?$allocator@D@2@@std@@V?$allocator@V?$basic_string@DU?$char_traits@D@std@@V?$allocator@D@2@@std@@@2@@std@@@0@U_Nonscalar_ptr_iterator_tag@0@@Z 100050e0 f i chat_history.obj
 0001:00004130       ??$_Umove@PAV?$vector@V?$basic_string@DU?$char_traits@D@std@@V?$allocator@D@2@@std@@V?$allocator@V?$basic_string@DU?$char_traits@D@std@@V?$allocator@D@2@@std@@@2@@std@@@?$vector@V?$vector@V?$basic_string@DU?$char_traits@D@std@@V?$allocator@D@2@@std@@V?$allocator@V?$basic_string@DU?$char_traits@D@std@@V?$allocator@D@2@@std@@@2@@std@@V?$allocator@V?$vector@V?$basic_string@DU?$char_traits@D@std@@V?$allocator@D@2@@std@@V?$allocator@V?$basic_string@DU?$char_traits@D@std@@V?$allocator@D@2@@std@@@2@@std@@@2@@std@@IAEPAV?$vector@V?$basic_string@DU?$char_traits@D@std@@V?$allocator@D@2@@std@@V?$allocator@V?$basic_string@DU?$char_traits@D@std@@V?$allocator@D@2@@std@@@2@@1@PAV21@00@Z 10005130 f i chat_history.obj
 0001:00004160       ??$_Unchecked_move_backward@PAV?$vector@V?$basic_string@DU?$char_traits@D@std@@V?$allocator@D@2@@std@@V?$allocator@V?$basic_string@DU?$char_traits@D@std@@V?$allocator@D@2@@std@@@2@@std@@PAV12@@stdext@@YAPAV?$vector@V?$basic_string@DU?$char_traits@D@std@@V?$allocator@D@2@@std@@V?$allocator@V?$basic_string@DU?$char_traits@D@std@@V?$allocator@D@2@@std@@@2@@std@@PAV12@00@Z 10005160 f i chat_history.obj
 0001:000041a0       ?_Ufill@?$vector@V?$vector@V?$basic_string@DU?$char_traits@D@std@@V?$allocator@D@2@@std@@V?$allocator@V?$basic_string@DU?$char_traits@D@std@@V?$allocator@D@2@@std@@@2@@std@@V?$allocator@V?$vector@V?$basic_string@DU?$char_traits@D@std@@V?$allocator@D@2@@std@@V?$allocator@V?$basic_string@DU?$char_traits@D@std@@V?$allocator@D@2@@std@@@2@@std@@@2@@std@@IAEPAV?$vector@V?$basic_string@DU?$char_traits@D@std@@V?$allocator@D@2@@std@@V?$allocator@V?$basic_string@DU?$char_traits@D@std@@V?$allocator@D@2@@std@@@2@@2@PAV32@IABV32@@Z 100051a0 f i chat_history.obj
 0001:000041e0       ?_Destroy@?$vector@V?$vector@V?$basic_string@DU?$char_traits@D@std@@V?$allocator@D@2@@std@@V?$allocator@V?$basic_string@DU?$char_traits@D@std@@V?$allocator@D@2@@std@@@2@@std@@V?$allocator@V?$vector@V?$basic_string@DU?$char_traits@D@std@@V?$allocator@D@2@@std@@V?$allocator@V?$basic_string@DU?$char_traits@D@std@@V?$allocator@D@2@@std@@@2@@std@@@2@@std@@IAEXPAV?$vector@V?$basic_string@DU?$char_traits@D@std@@V?$allocator@D@2@@std@@V?$allocator@V?$basic_string@DU?$char_traits@D@std@@V?$allocator@D@2@@std@@@2@@2@0@Z 100051e0 f i chat_history.obj
 0001:00004200       ?_Insert_n@?$vector@V?$vector@V?$basic_string@DU?$char_traits@D@std@@V?$allocator@D@2@@std@@V?$allocator@V?$basic_string@DU?$char_traits@D@std@@V?$allocator@D@2@@std@@@2@@std@@V?$allocator@V?$vector@V?$basic_string@DU?$char_traits@D@std@@V?$allocator@D@2@@std@@V?$allocator@V?$basic_string@DU?$char_traits@D@std@@V?$allocator@D@2@@std@@@2@@std@@@2@@std@@IAEXV?$_Vector_iterator@V?$vector@V?$basic_string@DU?$char_traits@D@std@@V?$allocator@D@2@@std@@V?$allocator@V?$basic_string@DU?$char_traits@D@std@@V?$allocator@D@2@@std@@@2@@std@@V?$allocator@V?$vector@V?$basic_string@DU?$char_traits@D@std@@V?$allocator@D@2@@std@@V?$allocator@V?$basic_string@DU?$char_traits@D@std@@V?$allocator@D@2@@std@@@2@@std@@@2@@2@IABV?$vector@V?$basic_string@DU?$char_traits@D@std@@V?$allocator@D@2@@std@@V?$allocator@V?$basic_string@DU?$char_traits@D@std@@V?$allocator@D@2@@std@@@2@@2@@Z 10005200 f i chat_history.obj
 0001:000044a0       ?insert@?$vector@V?$vector@V?$basic_string@DU?$char_traits@D@std@@V?$allocator@D@2@@std@@V?$allocator@V?$basic_string@DU?$char_traits@D@std@@V?$allocator@D@2@@std@@@2@@std@@V?$allocator@V?$vector@V?$basic_string@DU?$char_traits@D@std@@V?$allocator@D@2@@std@@V?$allocator@V?$basic_string@DU?$char_traits@D@std@@V?$allocator@D@2@@std@@@2@@std@@@2@@std@@QAE?AV?$_Vector_iterator@V?$vector@V?$basic_string@DU?$char_traits@D@std@@V?$allocator@D@2@@std@@V?$allocator@V?$basic_string@DU?$char_traits@D@std@@V?$allocator@D@2@@std@@@2@@std@@V?$allocator@V?$vector@V?$basic_string@DU?$char_traits@D@std@@V?$allocator@D@2@@std@@V?$allocator@V?$basic_string@DU?$char_traits@D@std@@V?$allocator@D@2@@std@@@2@@std@@@2@@2@V32@ABV?$vector@V?$basic_string@DU?$char_traits@D@std@@V?$allocator@D@2@@std@@V?$allocator@V?$basic_string@DU?$char_traits@D@std@@V?$allocator@D@2@@std@@@2@@2@@Z 100054a0 f i chat_history.obj
 0001:00004530       ?push_back@?$vector@V?$vector@V?$basic_string@DU?$char_traits@D@std@@V?$allocator@D@2@@std@@V?$allocator@V?$basic_string@DU?$char_traits@D@std@@V?$allocator@D@2@@std@@@2@@std@@V?$allocator@V?$vector@V?$basic_string@DU?$char_traits@D@std@@V?$allocator@D@2@@std@@V?$allocator@V?$basic_string@DU?$char_traits@D@std@@V?$allocator@D@2@@std@@@2@@std@@@2@@std@@QAEXABV?$vector@V?$basic_string@DU?$char_traits@D@std@@V?$allocator@D@2@@std@@V?$allocator@V?$basic_string@DU?$char_traits@D@std@@V?$allocator@D@2@@std@@@2@@2@@Z 10005530 f i chat_history.obj
 0001:000045c0       ?_Max@?$_Tree@V?$_Tmap_traits@PAXPAXU?$less@PAX@std@@V?$allocator@U?$pair@QAXPAX@std@@@2@$0A@@std@@@std@@KAPAU_Node@?$_Tree_nod@V?$_Tmap_traits@PAXPAXU?$less@PAX@std@@V?$allocator@U?$pair@QAXPAX@std@@@2@$0A@@std@@@2@PAU342@@Z 100055c0 f i class_extend.obj
 0001:000045e0       ?_Min@?$_Tree@V?$_Tmap_traits@PAXPAXU?$less@PAX@std@@V?$allocator@U?$pair@QAXPAX@std@@@2@$0A@@std@@@std@@KAPAU_Node@?$_Tree_nod@V?$_Tmap_traits@PAXPAXU?$less@PAX@std@@V?$allocator@U?$pair@QAXPAX@std@@@2@$0A@@std@@@2@PAU342@@Z 100055e0 f i class_extend.obj
 0001:00004600       ?_Rrotate@?$_Tree@V?$_Tmap_traits@PAXPAXU?$less@PAX@std@@V?$allocator@U?$pair@QAXPAX@std@@@2@$0A@@std@@@std@@IAEXPAU_Node@?$_Tree_nod@V?$_Tmap_traits@PAXPAXU?$less@PAX@std@@V?$allocator@U?$pair@QAXPAX@std@@@2@$0A@@std@@@2@@Z 10005600 f i class_extend.obj
 0001:00004660       ?_Inc@const_iterator@?$_Tree@V?$_Tmap_traits@PAXPAXU?$less@PAX@std@@V?$allocator@U?$pair@QAXPAX@std@@@2@$0A@@std@@@std@@QAEXXZ 10005660 f i class_extend.obj
 0001:000046d0       ?_Dec@const_iterator@?$_Tree@V?$_Tmap_traits@PAXPAXU?$less@PAX@std@@V?$allocator@U?$pair@QAXPAX@std@@@2@$0A@@std@@@std@@QAEXXZ 100056d0 f i class_extend.obj
 0001:00004760       ?_Lrotate@?$_Tree@V?$_Tmap_traits@PAXPAXU?$less@PAX@std@@V?$allocator@U?$pair@QAXPAX@std@@@2@$0A@@std@@@std@@IAEXPAU_Node@?$_Tree_nod@V?$_Tmap_traits@PAXPAXU?$less@PAX@std@@V?$allocator@U?$pair@QAXPAX@std@@@2@$0A@@std@@@2@@Z 10005760 f i class_extend.obj
 0001:000047b0       ?_Erase@?$_Tree@V?$_Tmap_traits@PAXPAXU?$less@PAX@std@@V?$allocator@U?$pair@QAXPAX@std@@@2@$0A@@std@@@std@@IAEXPAU_Node@?$_Tree_nod@V?$_Tmap_traits@PAXPAXU?$less@PAX@std@@V?$allocator@U?$pair@QAXPAX@std@@@2@$0A@@std@@@2@@Z 100057b0 f i class_extend.obj
 0001:000047f0       ?_Buynode@?$_Tree@V?$_Tmap_traits@PAXPAXU?$less@PAX@std@@V?$allocator@U?$pair@QAXPAX@std@@@2@$0A@@std@@@std@@IAEPAU_Node@?$_Tree_nod@V?$_Tmap_traits@PAXPAXU?$less@PAX@std@@V?$allocator@U?$pair@QAXPAX@std@@@2@$0A@@std@@@2@XZ 100057f0 f i class_extend.obj
 0001:00004830       ?_Buynode@?$_Tree@V?$_Tmap_traits@PAXPAXU?$less@PAX@std@@V?$allocator@U?$pair@QAXPAX@std@@@2@$0A@@std@@@std@@IAEPAU_Node@?$_Tree_nod@V?$_Tmap_traits@PAXPAXU?$less@PAX@std@@V?$allocator@U?$pair@QAXPAX@std@@@2@$0A@@std@@@2@PAU342@00ABU?$pair@QAXPAX@2@D@Z 10005830 f i class_extend.obj
 0001:00004870       ?GetAssociated@@YGPAXPAX@Z 10005870 f   class_extend.obj
 0001:00004920       ?FreeAssociated@@YGXPAX@Z  10005920 f   class_extend.obj
 0001:000049f0       ?AssociateObject@@YGXPAX0@Z 100059f0 f   class_extend.obj
 0001:00004a40       ??_Elogic_error@std@@UAEPAXI@Z 10005a40 f i chat_history.obj
 0001:00004a40       ??_Elength_error@std@@UAEPAXI@Z 10005a40 f i chat_history.obj
 0001:00004a40       ??_Glogic_error@std@@UAEPAXI@Z 10005a40 f i chat_history.obj
 0001:00004a40       ??_Glength_error@std@@UAEPAXI@Z 10005a40 f i chat_history.obj
 0001:00004a40       ??_Gout_of_range@std@@UAEPAXI@Z 10005a40 f i class_extend.obj
 0001:00004a40       ??_Eout_of_range@std@@UAEPAXI@Z 10005a40 f i class_extend.obj
 0001:00004a90       ?_Insert@?$_Tree@V?$_Tmap_traits@PAXPAXU?$less@PAX@std@@V?$allocator@U?$pair@QAXPAX@std@@@2@$0A@@std@@@std@@IAE?AViterator@12@_NPAU_Node@?$_Tree_nod@V?$_Tmap_traits@PAXPAXU?$less@PAX@std@@V?$allocator@U?$pair@QAXPAX@std@@@2@$0A@@std@@@2@ABU?$pair@QAXPAX@2@@Z 10005a90 f i class_extend.obj
 0001:00004c90       ?erase@?$_Tree@V?$_Tmap_traits@PAXPAXU?$less@PAX@std@@V?$allocator@U?$pair@QAXPAX@std@@@2@$0A@@std@@@std@@QAE?AViterator@12@V312@@Z 10005c90 f i class_extend.obj
 0001:00004f50       ??0out_of_range@std@@QAE@ABV01@@Z 10005f50 f i class_extend.obj
 0001:00004f70       ?insert@?$_Tree@V?$_Tmap_traits@PAXPAXU?$less@PAX@std@@V?$allocator@U?$pair@QAXPAX@std@@@2@$0A@@std@@@std@@QAE?AU?$pair@Viterator@?$_Tree@V?$_Tmap_traits@PAXPAXU?$less@PAX@std@@V?$allocator@U?$pair@QAXPAX@std@@@2@$0A@@std@@@std@@_N@2@ABU?$pair@QAXPAX@2@@Z 10005f70 f i class_extend.obj
 0001:00005030       ?erase@?$_Tree@V?$_Tmap_traits@PAXPAXU?$less@PAX@std@@V?$allocator@U?$pair@QAXPAX@std@@@2@$0A@@std@@@std@@QAE?AViterator@12@V312@0@Z 10006030 f i class_extend.obj
 0001:00005100       ?insert@?$_Tree@V?$_Tmap_traits@PAXPAXU?$less@PAX@std@@V?$allocator@U?$pair@QAXPAX@std@@@2@$0A@@std@@@std@@QAE?AViterator@12@V312@ABU?$pair@QAXPAX@2@@Z 10006100 f i class_extend.obj
 0001:000052c0       ??A?$map@PAXPAXU?$less@PAX@std@@V?$allocator@U?$pair@QAXPAX@std@@@2@@std@@QAEAAPAXABQAX@Z 100062c0 f i class_extend.obj
 0001:00005340       ?CEMapObject_Copy@@YAXPAUCEMapObject@@0@Z 10006340 f   class_mapobject.obj
 0001:00005350       ?iCMapObject_CopyConstruct@@YAXXZ 10006350 f   class_mapobject.obj
 0001:00005370       ??0CEMapObject@@QAE@XZ     10006370 f   class_mapobject.obj
 0001:000053e0       ??1CEMapObject@@UAE@XZ     100063e0 f   class_mapobject.obj
 0001:00005480       ?CEMapObject_Create@@YGPAUCEMapObject@@XZ 10006480 f   class_mapobject.obj
 0001:000054f0       ?iCMapObject_Construct@@YAXXZ 100064f0 f   class_mapobject.obj
 0001:00005530       ??_GCEMapObject@@UAEPAXI@Z 10006530 f i class_mapobject.obj
 0001:00005530       ??_ECEMapObject@@UAEPAXI@Z 10006530 f i class_mapobject.obj
 0001:00005550       ?CCMD_processCommand@@YAXPBD@Z 10006550 f   client_cmd.obj
 0001:00005560       ?_Incref@facet@locale@std@@QAEXXZ 10006560 f i config.obj
 0001:00005590       ?_Decref@facet@locale@std@@QAEPAV123@XZ 10006590 f i config.obj
 0001:000055d0       ??1locale@std@@QAE@XZ      100065d0 f i config.obj
 0001:00005620       ??_Gfacet@locale@std@@UAEPAXI@Z 10006620 f i config.obj
 0001:00005620       ??_G?$codecvt@DDH@std@@MAEPAXI@Z 10006620 f i config.obj
 0001:00005620       ??_E?$codecvt@DDH@std@@MAEPAXI@Z 10006620 f i config.obj
 0001:00005620       ??_Efacet@locale@std@@UAEPAXI@Z 10006620 f i config.obj
 0001:00005640       ?do_always_noconv@codecvt_base@std@@MBE_NXZ 10006640 f i config.obj
 0001:00005650       ?do_max_length@codecvt_base@std@@MBEHXZ 10006650 f i config.obj
 0001:00005650       ?do_encoding@codecvt_base@std@@MBEHXZ 10006650 f i config.obj
 0001:00005660       ??1ctype_base@std@@UAE@XZ  10006660 f i config.obj
 0001:00005660       ??1codecvt_base@std@@UAE@XZ 10006660 f i config.obj
 0001:00005660       ??1facet@locale@std@@UAE@XZ 10006660 f i config.obj
 0001:00005670       ?getloc@ios_base@std@@QBE?AVlocale@2@XZ 10006670 f i config.obj
 0001:000056b0       ??_Eios_base@std@@UAEPAXI@Z 100066b0 f i config.obj
 0001:000056b0       ??_Gios_base@std@@UAEPAXI@Z 100066b0 f i config.obj
 0001:000056b0       ??_G?$basic_ios@DU?$char_traits@D@std@@@std@@UAEPAXI@Z 100066b0 f i config.obj
 0001:000056b0       ??_E?$basic_ios@DU?$char_traits@D@std@@@std@@UAEPAXI@Z 100066b0 f i config.obj
 0001:000056e0       ??1?$basic_ios@DU?$char_traits@D@std@@@std@@UAE@XZ 100066e0 f i config.obj
 0001:000056f0       ??1?$basic_istream@DU?$char_traits@D@std@@@std@@UAE@XZ 100066f0 f i config.obj
 0001:00005700       ?_Gnavail@?$basic_streambuf@DU?$char_traits@D@std@@@std@@IBEHXZ 10006700 f i config.obj
 0001:00005720       ?_Chassign@?$basic_string@DU?$char_traits@D@std@@V?$allocator@D@2@@std@@IAEXIID@Z 10006720 f i config.obj
 0001:00005780       ?getloc@?$basic_streambuf@DU?$char_traits@D@std@@@std@@QBE?AVlocale@2@XZ 10006780 f i config.obj
 0001:000057c0       ??1sentry@?$basic_istream@DU?$char_traits@D@std@@@std@@QAE@XZ 100067c0 f i config.obj
 0001:000057c0       ??1_Sentry_base@?$basic_istream@DU?$char_traits@D@std@@@std@@QAE@XZ 100067c0 f i config.obj
 0001:000057c0       ??1_Sentry_base@?$basic_ostream@DU?$char_traits@D@std@@@std@@QAE@XZ 100067c0 f i serialize.obj
 0001:000057e0       ??1?$basic_streambuf@DU?$char_traits@D@std@@@std@@UAE@XZ 100067e0 f i config.obj
 0001:00005860       ?pbackfail@?$basic_streambuf@DU?$char_traits@D@std@@@std@@MAEHH@Z 10006860 f i config.obj
 0001:00005860       ?overflow@?$basic_streambuf@DU?$char_traits@D@std@@@std@@MAEHH@Z 10006860 f i config.obj
 0001:00005870       ?underflow@?$basic_streambuf@DU?$char_traits@D@std@@@std@@MAEHXZ 10006870 f i config.obj
 0001:00005880       ?xsgetn@?$basic_streambuf@DU?$char_traits@D@std@@@std@@MAEHPADH@Z 10006880 f i config.obj
 0001:000058a0       ?setbuf@?$basic_streambuf@DU?$char_traits@D@std@@@std@@MAEPAV12@PADH@Z 100068a0 f i config.obj
 0001:000058b0       ?imbue@?$basic_streambuf@DU?$char_traits@D@std@@@std@@MAEXABVlocale@2@@Z 100068b0 f i config.obj
 0001:000058c0       ?_Pnavail@?$basic_streambuf@DU?$char_traits@D@std@@@std@@IBEHXZ 100068c0 f i config.obj
 0001:000058e0       ?uflow@?$basic_streambuf@DU?$char_traits@D@std@@@std@@MAEHXZ 100068e0 f i config.obj
 0001:00005910       ?seekoff@?$basic_streambuf@DU?$char_traits@D@std@@@std@@MAE?AV?$fpos@H@2@JHH@Z 10006910 f i config.obj
 0001:00005930       ?seekpos@?$basic_streambuf@DU?$char_traits@D@std@@@std@@MAE?AV?$fpos@H@2@V32@H@Z 10006930 f i config.obj
 0001:00005950       ??_E?$basic_istream@DU?$char_traits@D@std@@@std@@UAEPAXI@Z 10006950 f i config.obj
 0001:00005950       ??_G?$basic_istream@DU?$char_traits@D@std@@@std@@UAEPAXI@Z 10006950 f i config.obj
 0001:00005990       ??_G?$basic_streambuf@DU?$char_traits@D@std@@@std@@UAEPAXI@Z 10006990 f i config.obj
 0001:00005990       ??_E?$basic_streambuf@DU?$char_traits@D@std@@@std@@UAEPAXI@Z 10006990 f i config.obj
 0001:000059b0       ?find@?$basic_string@DU?$char_traits@D@std@@V?$allocator@D@2@@std@@QBEIPBDII@Z 100069b0 f i config.obj
 0001:00005a70       ?find_first_of@?$basic_string@DU?$char_traits@D@std@@V?$allocator@D@2@@std@@QBEIPBDII@Z 10006a70 f i config.obj
 0001:00005b00       ??D?$_String_iterator@DU?$char_traits@D@std@@V?$allocator@D@2@@std@@QBEAADXZ 10006b00 f i config.obj
 0001:00005b40       ?_Init@?$basic_streambuf@DU?$char_traits@D@std@@@std@@IAEXXZ 10006b40 f i config.obj
 0001:00005ba0       ??0?$_String_const_iterator@DU?$char_traits@D@std@@V?$allocator@D@2@@std@@QAE@PBDPBU_Container_base@1@@Z 10006ba0 f i config.obj
 0001:00005c00       ?find@?$basic_string@DU?$char_traits@D@std@@V?$allocator@D@2@@std@@QBEIPBDI@Z 10006c00 f i config.obj
 0001:00005c30       ?snextc@?$basic_streambuf@DU?$char_traits@D@std@@@std@@QAEHXZ 10006c30 f i config.obj
 0001:00005cb0       ?_Xsgetn_s@?$basic_streambuf@DU?$char_traits@D@std@@@std@@MAEHPADIH@Z 10006cb0 f i config.obj
 0001:00005d50       ?xsputn@?$basic_streambuf@DU?$char_traits@D@std@@@std@@MAEHPBDH@Z 10006d50 f i config.obj
 0001:00005df0       ??0?$basic_streambuf@DU?$char_traits@D@std@@@std@@IAE@XZ 10006df0 f i config.obj
 0001:00005ea0       ?begin@?$basic_string@DU?$char_traits@D@std@@V?$allocator@D@2@@std@@QAE?AV?$_String_iterator@DU?$char_traits@D@std@@V?$allocator@D@2@@2@XZ 10006ea0 f i config.obj
 0001:00005ee0       ??$_Fputc@D@std@@YA_NDPAU_iobuf@@@Z 10006ee0 f i config.obj
 0001:00005f00       ?sync@?$basic_filebuf@DU?$char_traits@D@std@@@std@@MAEHXZ 10006f00 f i config.obj
 0001:00005f30       ?pbackfail@?$basic_filebuf@DU?$char_traits@D@std@@@std@@MAEHH@Z 10006f30 f i config.obj
 0001:00005fa0       ?underflow@?$basic_filebuf@DU?$char_traits@D@std@@@std@@MAEHXZ 10006fa0 f i config.obj
 0001:00005ff0       ?setbuf@?$basic_filebuf@DU?$char_traits@D@std@@@std@@MAEPAV?$basic_streambuf@DU?$char_traits@D@std@@@2@PADH@Z 10006ff0 f i config.obj
 0001:00006080       ??_Gfailure@ios_base@std@@UAEPAXI@Z 10007080 f i config.obj
 0001:00006080       ??_Efailure@ios_base@std@@UAEPAXI@Z 10007080 f i config.obj
 0001:00006080       ??_Eruntime_error@std@@UAEPAXI@Z 10007080 f i config.obj
 0001:00006080       ??_Gruntime_error@std@@UAEPAXI@Z 10007080 f i config.obj
 0001:000060d0       ??1_Locinfo@std@@QAE@XZ    100070d0 f i config.obj
 0001:000061b0       ?append@?$basic_string@DU?$char_traits@D@std@@V?$allocator@D@2@@std@@QAEAAV12@ID@Z 100071b0 f i config.obj
 0001:00006260       ?uflow@?$basic_filebuf@DU?$char_traits@D@std@@@std@@MAEHXZ 10007260 f i config.obj
 0001:000065c0       ?_Endwrite@?$basic_filebuf@DU?$char_traits@D@std@@@std@@IAE_NXZ 100075c0 f i config.obj
 0001:000068e0       ??0runtime_error@std@@QAE@ABV?$basic_string@DU?$char_traits@D@std@@V?$allocator@D@2@@1@@Z 100078e0 f i config.obj
 0001:00006950       ??1runtime_error@std@@UAE@XZ 10007950 f i config.obj
 0001:00006950       ??1failure@ios_base@std@@UAE@XZ 10007950 f i config.obj
 0001:00006990       ?overflow@?$basic_filebuf@DU?$char_traits@D@std@@@std@@MAEHH@Z 10007990 f i config.obj
 0001:00006d60       ?seekoff@?$basic_filebuf@DU?$char_traits@D@std@@@std@@MAE?AV?$fpos@H@2@JHH@Z 10007d60 f i config.obj
 0001:00006e40       ?seekpos@?$basic_filebuf@DU?$char_traits@D@std@@@std@@MAE?AV?$fpos@H@2@V32@H@Z 10007e40 f i config.obj
 0001:00006f30       ?close@?$basic_filebuf@DU?$char_traits@D@std@@@std@@QAEPAV12@XZ 10007f30 f i config.obj
 0001:00006f80       ??0_Locinfo@std@@QAE@PBD@Z 10007f80 f i config.obj
 0001:00007050       ??0runtime_error@std@@QAE@ABV01@@Z 10008050 f i config.obj
 0001:000070d0       ??0?$ctype@D@std@@QAE@PBF_NI@Z 100080d0 f i config.obj
 0001:000071d0       ?do_tolower@?$ctype@D@std@@MBEDD@Z 100081d0 f i config.obj
 0001:000071f0       ?do_tolower@?$ctype@D@std@@MBEPBDPADPBD@Z 100081f0 f i config.obj
 0001:00007220       ?do_toupper@?$ctype@D@std@@MBEDD@Z 10008220 f i config.obj
 0001:00007240       ?do_toupper@?$ctype@D@std@@MBEPBDPADPBD@Z 10008240 f i config.obj
 0001:00007270       ?do_widen@?$ctype@D@std@@MBEDD@Z 10008270 f i config.obj
 0001:00007280       ?do_widen@?$ctype@D@std@@MBEPBDPBD0PAD@Z 10008280 f i config.obj
 0001:000072b0       ?_Do_widen_s@?$ctype@D@std@@MBEPBDPBD0PADI@Z 100082b0 f i config.obj
 0001:000072f0       ?do_narrow@?$ctype@D@std@@MBEDDD@Z 100082f0 f i config.obj
 0001:00007300       ?do_narrow@?$ctype@D@std@@MBEPBDPBD0DPAD@Z 10008300 f i config.obj
 0001:00007330       ?_Do_narrow_s@?$ctype@D@std@@MBEPBDPBD0DPADI@Z 10008330 f i config.obj
 0001:00007370       ??_G?$ctype@D@std@@MAEPAXI@Z 10008370 f i config.obj
 0001:00007370       ??_E?$ctype@D@std@@MAEPAXI@Z 10008370 f i config.obj
 0001:000073c0       ?_Getcat@?$ctype@D@std@@SAIPAPBVfacet@locale@2@@Z 100083c0 f i config.obj
 0001:00007440       ?clear@ios_base@std@@QAEXH_N@Z 10008440 f i config.obj
 0001:00007570       ??0failure@ios_base@std@@QAE@ABV012@@Z 10008570 f i config.obj
 0001:00007590       ?_Init@ios_base@std@@IAEXXZ 10008590 f i config.obj
 0001:00007610       ??1?$basic_filebuf@DU?$char_traits@D@std@@@std@@UAE@XZ 10008610 f i config.obj
 0001:00007680       ??1?$basic_ifstream@DU?$char_traits@D@std@@@std@@UAE@XZ 10008680 f i config.obj
 0001:000076f0       ??_G?$basic_filebuf@DU?$char_traits@D@std@@@std@@UAEPAXI@Z 100086f0 f i config.obj
 0001:000076f0       ??_E?$basic_filebuf@DU?$char_traits@D@std@@@std@@UAEPAXI@Z 100086f0 f i config.obj
 0001:00007710       ??$use_facet@V?$ctype@D@std@@@std@@YAABV?$ctype@D@0@ABVlocale@0@@Z 10008710 f i config.obj
 0001:00007840       ??0?$codecvt@DDH@std@@QAE@I@Z 10008840 f i config.obj
 0001:000078d0       ?do_in@?$codecvt@DDH@std@@MBEHAAHPBD1AAPBDPAD3AAPAD@Z 100088d0 f i config.obj
 0001:000078d0       ?do_out@?$codecvt@DDH@std@@MBEHAAHPBD1AAPBDPAD3AAPAD@Z 100088d0 f i config.obj
 0001:000078f0       ?do_unshift@?$codecvt@DDH@std@@MBEHAAHPAD1AAPAD@Z 100088f0 f i config.obj
 0001:00007910       ?do_length@?$codecvt@DDH@std@@MBEHABHPBD1I@Z 10008910 f i config.obj
 0001:00007930       ??_D?$basic_ifstream@DU?$char_traits@D@std@@@std@@QAEXXZ 10008930 f i config.obj
 0001:00007950       ?close@?$basic_ifstream@DU?$char_traits@D@std@@@std@@QAEXXZ 10008950 f i config.obj
 0001:00007980       ??_E?$basic_ifstream@DU?$char_traits@D@std@@@std@@UAEPAXI@Z 10008980 f i config.obj
 0001:00007980       ??_G?$basic_ifstream@DU?$char_traits@D@std@@@std@@UAEPAXI@Z 10008980 f i config.obj
 0001:000079c0       ?widen@?$basic_ios@DU?$char_traits@D@std@@@std@@QBEDD@Z 100089c0 f i config.obj
 0001:00007a80       ?_Getcat@?$codecvt@DDH@std@@SAIPAPBVfacet@locale@2@@Z 10008a80 f i config.obj
 0001:00007af0       ?flush@?$basic_ostream@DU?$char_traits@D@std@@@std@@QAEAAV12@XZ 10008af0 f i config.obj
 0001:00007b40       ?_Ipfx@?$basic_istream@DU?$char_traits@D@std@@@std@@QAE_N_N@Z 10008b40 f i config.obj
 0001:00007ce0       ??$use_facet@V?$codecvt@DDH@std@@@std@@YAABV?$codecvt@DDH@0@ABVlocale@0@@Z 10008ce0 f i config.obj
 0001:00007e10       ??0sentry@?$basic_istream@DU?$char_traits@D@std@@@std@@QAE@AAV12@_N@Z 10008e10 f i config.obj
 0001:00007e80       ?imbue@?$basic_filebuf@DU?$char_traits@D@std@@@std@@MAEXABVlocale@2@@Z 10008e80 f i config.obj
 0001:00007ec0       ?open@?$basic_filebuf@DU?$char_traits@D@std@@@std@@QAEPAV12@PBDHH@Z 10008ec0 f i config.obj
 0001:00007fe0       ??$getline@DU?$char_traits@D@std@@V?$allocator@D@2@@std@@YAAAV?$basic_istream@DU?$char_traits@D@std@@@0@AAV10@AAV?$basic_string@DU?$char_traits@D@std@@V?$allocator@D@2@@0@D@Z 10008fe0 f i config.obj
 0001:00008180       ??0?$basic_ifstream@DU?$char_traits@D@std@@@std@@QAE@XZ 10009180 f i config.obj
 0001:00008280       ?open@?$basic_ifstream@DU?$char_traits@D@std@@@std@@QAEXPBDHH@Z 10009280 f i config.obj
 0001:000082d0       ?ParseConfig2x@@YAXAAV?$basic_ifstream@DU?$char_traits@D@std@@@std@@@Z 100092d0 f   config.obj
 0001:00008ec0       ?ParseConfig1x@@YAXAAV?$basic_ifstream@DU?$char_traits@D@std@@@std@@@Z 10009ec0 f   config.obj
 0001:00009270       ?ParseConfig@@YAXXZ        1000a270 f   config.obj
 0001:000093e0       ?CheckValid@@YGKPAXK@Z     1000a3e0 f   crash.obj
 0001:00009400       ?CheckValidW@@YGKPAXK@Z    1000a400 f   crash.obj
 0001:00009420       ?CRASH_fix_414994@@YAXXZ   1000a420 f   crash.obj
 0001:00009450       ?CRASH_fix_42353A@@YAXXZ   1000a450 f   crash.obj
 0001:00009480       ?CRASH_fix_523295@@YAXXZ   1000a480 f   crash.obj
 0001:000094b0       ?CRASH_fix_46AD10@@YAXXZ   1000a4b0 f   crash.obj
 0001:00009510       ?CRASH_fix_420450@@YAXXZ   1000a510 f   crash.obj
 0001:00009540       ?CRASH_fix_45FC3B@@YAXXZ   1000a540 f   crash.obj
 0001:00009570       ?CRASH_fix_458CF9@@YAXXZ   1000a570 f   crash.obj
 0001:000095b0       ?CRASH_fix_4657AD@@YAXXZ   1000a5b0 f   crash.obj
 0001:000095e0       ?CRASH_fix_46B685@@YAXXZ   1000a5e0 f   crash.obj
 0001:00009610       ?shop_init_2@@YAXXZ        1000a610 f   crash.obj
 0001:00009660       ?CRASH_fix_4BEE2D@@YAXXZ   1000a660 f   crash.obj
 0001:00009670       ?CRASH_fix_4AAB7E@@YAXXZ   1000a670 f   crash.obj
 0001:00009690       ?CRASH_fix_multiwindow_1@@YAXXZ 1000a690 f   crash.obj
 0001:000096b0       ?CRASH_fix_multiwindow_2@@YAXXZ 1000a6b0 f   crash.obj
 0001:000096d0       ?CRASH_fix_multiwindow_3@@YAXXZ 1000a6d0 f   crash.obj
 0001:000096f0       ?CRASH_fix_multiwindow_4@@YAXXZ 1000a6f0 f   crash.obj
 0001:00009710       ?Reflect@CRC_32@@AAEKKD@Z  1000a710 f   CRC_32.obj
 0001:00009750       ?Calculate@CRC_32@@AAEXQAEIAAK@Z 1000a750 f   CRC_32.obj
 0001:00009790       ?CRC32ThreadProc@CRC_32@@CGKPAX@Z 1000a790 f   CRC_32.obj
 0001:00009a00       ??0CRC_32@@QAE@XZ          1000aa00 f   CRC_32.obj
 0001:00009b50       ?CalcCRC@CRC_32@@QAEKPAXIPAUHWND__@@@Z 1000ab50 f   CRC_32.obj
 0001:00009c50       ?CalcCRC@CRC_32@@QAEKPBDPAUHWND__@@@Z 1000ac50 f   CRC_32.obj
 0001:00009d40       ?log_str@@YAXPADK@Z        1000ad40 f   debug.obj
 0001:00009d60       ?DBG_logStrings@@YAXXZ     1000ad60 f   debug.obj
 0001:00009da0       ?exc_handler_run@@YAKPAU_EXCEPTION_POINTERS@@@Z 1000ada0 f   debug.obj
 0001:00009ed0       ?setup_handler@@YAXXZ      1000aed0 f   debug.obj
 0001:00009ee0       ?DBG_tempS@@YAXXZ          1000aee0 f   debug.obj
 0001:00009f00       ?logVision@@YGXPAD0@Z      1000af00 f   debug.obj
 0001:00009f50       ?dbg_logVision@@YAXXZ      1000af50 f   debug.obj
 0001:00009f70       ?logSectionLoaded@@YGXPAD@Z 1000af70 f   debug.obj
 0001:00009f80       ?DBG_logSectionLoaded@@YAXXZ 1000af80 f   debug.obj
 0001:00009fa0       ?_decideState@@YGXK@Z      1000afa0 f   debug.obj
 0001:00009fc0       ?DBG_decideState@@YAXXZ    1000afc0 f   debug.obj
 0001:00009ff0       ?_disp256@@YGXPBDK@Z       1000aff0 f   debug.obj
 0001:0000a120       ?DBG_disp256@@YAXXZ        1000b120 f   debug.obj
 0001:0000a140       ?DBG_di2p256@@YAXXZ        1000b140 f   debug.obj
 0001:0000a160       ?DBG_di3p256@@YAXXZ        1000b160 f   debug.obj
 0001:0000a180       ?D_AddAddr@@YGXKPAD@Z      1000b180 f   debug.obj
 0001:0000a230       ?D_LogAddr@@YGXKK@Z        1000b230 f   debug.obj
 0001:0000a270       ?dbg_16a_addaddrstring@@YAXXZ 1000b270 f   debug.obj
 0001:0000a290       ?dbg_16a_readaddrstring@@YAXXZ 1000b290 f   debug.obj
 0001:0000a2b0       ?_load256@@YGXPBD0@Z       1000b2b0 f   debug.obj
 0001:0000a2f0       ?DBG_load256@@YAXXZ        1000b2f0 f   debug.obj
 0001:0000a330       ?_Min@?$_Tree@V?$_Tmap_traits@PBDV?$basic_string@DU?$char_traits@D@std@@V?$allocator@D@2@@std@@U?$less@PBD@2@V?$allocator@U?$pair@QBDV?$basic_string@DU?$char_traits@D@std@@V?$allocator@D@2@@std@@@std@@@2@$0A@@std@@@std@@KAPAU_Node@?$_Tree_nod@V?$_Tmap_traits@PBDV?$basic_string@DU?$char_traits@D@std@@V?$allocator@D@2@@std@@U?$less@PBD@2@V?$allocator@U?$pair@QBDV?$basic_string@DU?$char_traits@D@std@@V?$allocator@D@2@@std@@@std@@@2@$0A@@std@@@2@PAU342@@Z 1000b330 f i debug.obj
 0001:0000a330       ?_Min@?$_Tree@V?$_Tmap_traits@KV?$basic_string@DU?$char_traits@D@std@@V?$allocator@D@2@@std@@U?$less@K@2@V?$allocator@U?$pair@$$CBKV?$basic_string@DU?$char_traits@D@std@@V?$allocator@D@2@@std@@@std@@@2@$0A@@std@@@std@@KAPAU_Node@?$_Tree_nod@V?$_Tmap_traits@KV?$basic_string@DU?$char_traits@D@std@@V?$allocator@D@2@@std@@U?$less@K@2@V?$allocator@U?$pair@$$CBKV?$basic_string@DU?$char_traits@D@std@@V?$allocator@D@2@@std@@@std@@@2@$0A@@std@@@2@PAU342@@Z 1000b330 f i debug.obj
 0001:0000a350       ?_Rrotate@?$_Tree@V?$_Tmap_traits@KV?$basic_string@DU?$char_traits@D@std@@V?$allocator@D@2@@std@@U?$less@K@2@V?$allocator@U?$pair@$$CBKV?$basic_string@DU?$char_traits@D@std@@V?$allocator@D@2@@std@@@std@@@2@$0A@@std@@@std@@IAEXPAU_Node@?$_Tree_nod@V?$_Tmap_traits@KV?$basic_string@DU?$char_traits@D@std@@V?$allocator@D@2@@std@@U?$less@K@2@V?$allocator@U?$pair@$$CBKV?$basic_string@DU?$char_traits@D@std@@V?$allocator@D@2@@std@@@std@@@2@$0A@@std@@@2@@Z 1000b350 f i debug.obj
 0001:0000a350       ?_Rrotate@?$_Tree@V?$_Tmap_traits@PBDV?$basic_string@DU?$char_traits@D@std@@V?$allocator@D@2@@std@@U?$less@PBD@2@V?$allocator@U?$pair@QBDV?$basic_string@DU?$char_traits@D@std@@V?$allocator@D@2@@std@@@std@@@2@$0A@@std@@@std@@IAEXPAU_Node@?$_Tree_nod@V?$_Tmap_traits@PBDV?$basic_string@DU?$char_traits@D@std@@V?$allocator@D@2@@std@@U?$less@PBD@2@V?$allocator@U?$pair@QBDV?$basic_string@DU?$char_traits@D@std@@V?$allocator@D@2@@std@@@std@@@2@$0A@@std@@@2@@Z 1000b350 f i debug.obj
 0001:0000a3b0       ?_Max@?$_Tree@V?$_Tmap_traits@KV?$basic_string@DU?$char_traits@D@std@@V?$allocator@D@2@@std@@U?$less@K@2@V?$allocator@U?$pair@$$CBKV?$basic_string@DU?$char_traits@D@std@@V?$allocator@D@2@@std@@@std@@@2@$0A@@std@@@std@@KAPAU_Node@?$_Tree_nod@V?$_Tmap_traits@KV?$basic_string@DU?$char_traits@D@std@@V?$allocator@D@2@@std@@U?$less@K@2@V?$allocator@U?$pair@$$CBKV?$basic_string@DU?$char_traits@D@std@@V?$allocator@D@2@@std@@@std@@@2@$0A@@std@@@2@PAU342@@Z 1000b3b0 f i debug.obj
 0001:0000a3b0       ?_Max@?$_Tree@V?$_Tmap_traits@PBDV?$basic_string@DU?$char_traits@D@std@@V?$allocator@D@2@@std@@U?$less@PBD@2@V?$allocator@U?$pair@QBDV?$basic_string@DU?$char_traits@D@std@@V?$allocator@D@2@@std@@@std@@@2@$0A@@std@@@std@@KAPAU_Node@?$_Tree_nod@V?$_Tmap_traits@PBDV?$basic_string@DU?$char_traits@D@std@@V?$allocator@D@2@@std@@U?$less@PBD@2@V?$allocator@U?$pair@QBDV?$basic_string@DU?$char_traits@D@std@@V?$allocator@D@2@@std@@@std@@@2@$0A@@std@@@2@PAU342@@Z 1000b3b0 f i debug.obj
 0001:0000a3d0       ?_Dec@const_iterator@?$_Tree@V?$_Tmap_traits@KV?$basic_string@DU?$char_traits@D@std@@V?$allocator@D@2@@std@@U?$less@K@2@V?$allocator@U?$pair@$$CBKV?$basic_string@DU?$char_traits@D@std@@V?$allocator@D@2@@std@@@std@@@2@$0A@@std@@@std@@QAEXXZ 1000b3d0 f i debug.obj
 0001:0000a3d0       ?_Dec@const_iterator@?$_Tree@V?$_Tmap_traits@PBDV?$basic_string@DU?$char_traits@D@std@@V?$allocator@D@2@@std@@U?$less@PBD@2@V?$allocator@U?$pair@QBDV?$basic_string@DU?$char_traits@D@std@@V?$allocator@D@2@@std@@@std@@@2@$0A@@std@@@std@@QAEXXZ 1000b3d0 f i debug.obj
 0001:0000a460       ?_Inc@const_iterator@?$_Tree@V?$_Tmap_traits@KV?$basic_string@DU?$char_traits@D@std@@V?$allocator@D@2@@std@@U?$less@K@2@V?$allocator@U?$pair@$$CBKV?$basic_string@DU?$char_traits@D@std@@V?$allocator@D@2@@std@@@std@@@2@$0A@@std@@@std@@QAEXXZ 1000b460 f i debug.obj
 0001:0000a460       ?_Inc@const_iterator@?$_Tree@V?$_Tmap_traits@PBDV?$basic_string@DU?$char_traits@D@std@@V?$allocator@D@2@@std@@U?$less@PBD@2@V?$allocator@U?$pair@QBDV?$basic_string@DU?$char_traits@D@std@@V?$allocator@D@2@@std@@@std@@@2@$0A@@std@@@std@@QAEXXZ 1000b460 f i debug.obj
 0001:0000a4d0       ?_Lrotate@?$_Tree@V?$_Tmap_traits@KV?$basic_string@DU?$char_traits@D@std@@V?$allocator@D@2@@std@@U?$less@K@2@V?$allocator@U?$pair@$$CBKV?$basic_string@DU?$char_traits@D@std@@V?$allocator@D@2@@std@@@std@@@2@$0A@@std@@@std@@IAEXPAU_Node@?$_Tree_nod@V?$_Tmap_traits@KV?$basic_string@DU?$char_traits@D@std@@V?$allocator@D@2@@std@@U?$less@K@2@V?$allocator@U?$pair@$$CBKV?$basic_string@DU?$char_traits@D@std@@V?$allocator@D@2@@std@@@std@@@2@$0A@@std@@@2@@Z 1000b4d0 f i debug.obj
 0001:0000a4d0       ?_Lrotate@?$_Tree@V?$_Tmap_traits@PBDV?$basic_string@DU?$char_traits@D@std@@V?$allocator@D@2@@std@@U?$less@PBD@2@V?$allocator@U?$pair@QBDV?$basic_string@DU?$char_traits@D@std@@V?$allocator@D@2@@std@@@std@@@2@$0A@@std@@@std@@IAEXPAU_Node@?$_Tree_nod@V?$_Tmap_traits@PBDV?$basic_string@DU?$char_traits@D@std@@V?$allocator@D@2@@std@@U?$less@PBD@2@V?$allocator@U?$pair@QBDV?$basic_string@DU?$char_traits@D@std@@V?$allocator@D@2@@std@@@std@@@2@$0A@@std@@@2@@Z 1000b4d0 f i debug.obj
 0001:0000a520       ?_Buynode@?$_Tree@V?$_Tmap_traits@PBDV?$basic_string@DU?$char_traits@D@std@@V?$allocator@D@2@@std@@U?$less@PBD@2@V?$allocator@U?$pair@QBDV?$basic_string@DU?$char_traits@D@std@@V?$allocator@D@2@@std@@@std@@@2@$0A@@std@@@std@@IAEPAU_Node@?$_Tree_nod@V?$_Tmap_traits@PBDV?$basic_string@DU?$char_traits@D@std@@V?$allocator@D@2@@std@@U?$less@PBD@2@V?$allocator@U?$pair@QBDV?$basic_string@DU?$char_traits@D@std@@V?$allocator@D@2@@std@@@std@@@2@$0A@@std@@@2@XZ 1000b520 f i debug.obj
 0001:0000a520       ?_Buynode@?$_Tree@V?$_Tmap_traits@KV?$basic_string@DU?$char_traits@D@std@@V?$allocator@D@2@@std@@U?$less@K@2@V?$allocator@U?$pair@$$CBKV?$basic_string@DU?$char_traits@D@std@@V?$allocator@D@2@@std@@@std@@@2@$0A@@std@@@std@@IAEPAU_Node@?$_Tree_nod@V?$_Tmap_traits@KV?$basic_string@DU?$char_traits@D@std@@V?$allocator@D@2@@std@@U?$less@K@2@V?$allocator@U?$pair@$$CBKV?$basic_string@DU?$char_traits@D@std@@V?$allocator@D@2@@std@@@std@@@2@$0A@@std@@@2@XZ 1000b520 f i debug.obj
 0001:0000a560       ??1?$pair@$$CBKV?$basic_string@DU?$char_traits@D@std@@V?$allocator@D@2@@std@@@std@@QAE@XZ 1000b560 f i debug.obj
 0001:0000a560       ??1IPFEntry@IPFilter@@QAE@XZ 1000b560 f i socket.obj
 0001:0000a560       ??1?$pair@QBDV?$basic_string@DU?$char_traits@D@std@@V?$allocator@D@2@@std@@@std@@QAE@XZ 1000b560 f i debug.obj
 0001:0000a590       ??0_Node@?$_Tree_nod@V?$_Tmap_traits@PBDV?$basic_string@DU?$char_traits@D@std@@V?$allocator@D@2@@std@@U?$less@PBD@2@V?$allocator@U?$pair@QBDV?$basic_string@DU?$char_traits@D@std@@V?$allocator@D@2@@std@@@std@@@2@$0A@@std@@@std@@QAE@PAU012@00ABU?$pair@QBDV?$basic_string@DU?$char_traits@D@std@@V?$allocator@D@2@@std@@@2@D@Z 1000b590 f i debug.obj
 0001:0000a590       ??0_Node@?$_Tree_nod@V?$_Tmap_traits@KV?$basic_string@DU?$char_traits@D@std@@V?$allocator@D@2@@std@@U?$less@K@2@V?$allocator@U?$pair@$$CBKV?$basic_string@DU?$char_traits@D@std@@V?$allocator@D@2@@std@@@std@@@2@$0A@@std@@@std@@QAE@PAU012@00ABU?$pair@$$CBKV?$basic_string@DU?$char_traits@D@std@@V?$allocator@D@2@@std@@@2@D@Z 1000b590 f i debug.obj
 0001:0000a5f0       ?erase@?$_Tree@V?$_Tmap_traits@KV?$basic_string@DU?$char_traits@D@std@@V?$allocator@D@2@@std@@U?$less@K@2@V?$allocator@U?$pair@$$CBKV?$basic_string@DU?$char_traits@D@std@@V?$allocator@D@2@@std@@@std@@@2@$0A@@std@@@std@@QAE?AViterator@12@V312@@Z 1000b5f0 f i debug.obj
 0001:0000a5f0       ?erase@?$_Tree@V?$_Tmap_traits@PBDV?$basic_string@DU?$char_traits@D@std@@V?$allocator@D@2@@std@@U?$less@PBD@2@V?$allocator@U?$pair@QBDV?$basic_string@DU?$char_traits@D@std@@V?$allocator@D@2@@std@@@std@@@2@$0A@@std@@@std@@QAE?AViterator@12@V312@@Z 1000b5f0 f i debug.obj
 0001:0000a8e0       ?_Buynode@?$_Tree@V?$_Tmap_traits@KV?$basic_string@DU?$char_traits@D@std@@V?$allocator@D@2@@std@@U?$less@K@2@V?$allocator@U?$pair@$$CBKV?$basic_string@DU?$char_traits@D@std@@V?$allocator@D@2@@std@@@std@@@2@$0A@@std@@@std@@IAEPAU_Node@?$_Tree_nod@V?$_Tmap_traits@KV?$basic_string@DU?$char_traits@D@std@@V?$allocator@D@2@@std@@U?$less@K@2@V?$allocator@U?$pair@$$CBKV?$basic_string@DU?$char_traits@D@std@@V?$allocator@D@2@@std@@@std@@@2@$0A@@std@@@2@PAU342@00ABU?$pair@$$CBKV?$basic_string@DU?$char_traits@D@std@@V?$allocator@D@2@@std@@@2@D@Z 1000b8e0 f i debug.obj
 0001:0000a8e0       ?_Buynode@?$_Tree@V?$_Tmap_traits@PBDV?$basic_string@DU?$char_traits@D@std@@V?$allocator@D@2@@std@@U?$less@PBD@2@V?$allocator@U?$pair@QBDV?$basic_string@DU?$char_traits@D@std@@V?$allocator@D@2@@std@@@std@@@2@$0A@@std@@@std@@IAEPAU_Node@?$_Tree_nod@V?$_Tmap_traits@PBDV?$basic_string@DU?$char_traits@D@std@@V?$allocator@D@2@@std@@U?$less@PBD@2@V?$allocator@U?$pair@QBDV?$basic_string@DU?$char_traits@D@std@@V?$allocator@D@2@@std@@@std@@@2@$0A@@std@@@2@PAU342@00ABU?$pair@QBDV?$basic_string@DU?$char_traits@D@std@@V?$allocator@D@2@@std@@@2@D@Z 1000b8e0 f i debug.obj
 0001:0000a980       ?_Erase@?$_Tree@V?$_Tmap_traits@PBDV?$basic_string@DU?$char_traits@D@std@@V?$allocator@D@2@@std@@U?$less@PBD@2@V?$allocator@U?$pair@QBDV?$basic_string@DU?$char_traits@D@std@@V?$allocator@D@2@@std@@@std@@@2@$0A@@std@@@std@@IAEXPAU_Node@?$_Tree_nod@V?$_Tmap_traits@PBDV?$basic_string@DU?$char_traits@D@std@@V?$allocator@D@2@@std@@U?$less@PBD@2@V?$allocator@U?$pair@QBDV?$basic_string@DU?$char_traits@D@std@@V?$allocator@D@2@@std@@@std@@@2@$0A@@std@@@2@@Z 1000b980 f i debug.obj
 0001:0000a980       ?_Erase@?$_Tree@V?$_Tmap_traits@KV?$basic_string@DU?$char_traits@D@std@@V?$allocator@D@2@@std@@U?$less@K@2@V?$allocator@U?$pair@$$CBKV?$basic_string@DU?$char_traits@D@std@@V?$allocator@D@2@@std@@@std@@@2@$0A@@std@@@std@@IAEXPAU_Node@?$_Tree_nod@V?$_Tmap_traits@KV?$basic_string@DU?$char_traits@D@std@@V?$allocator@D@2@@std@@U?$less@K@2@V?$allocator@U?$pair@$$CBKV?$basic_string@DU?$char_traits@D@std@@V?$allocator@D@2@@std@@@std@@@2@$0A@@std@@@2@@Z 1000b980 f i debug.obj
 0001:0000a9e0       ?_Insert@?$_Tree@V?$_Tmap_traits@KV?$basic_string@DU?$char_traits@D@std@@V?$allocator@D@2@@std@@U?$less@K@2@V?$allocator@U?$pair@$$CBKV?$basic_string@DU?$char_traits@D@std@@V?$allocator@D@2@@std@@@std@@@2@$0A@@std@@@std@@IAE?AViterator@12@_NPAU_Node@?$_Tree_nod@V?$_Tmap_traits@KV?$basic_string@DU?$char_traits@D@std@@V?$allocator@D@2@@std@@U?$less@K@2@V?$allocator@U?$pair@$$CBKV?$basic_string@DU?$char_traits@D@std@@V?$allocator@D@2@@std@@@std@@@2@$0A@@std@@@2@ABU?$pair@$$CBKV?$basic_string@DU?$char_traits@D@std@@V?$allocator@D@2@@std@@@2@@Z 1000b9e0 f i debug.obj
 0001:0000a9e0       ?_Insert@?$_Tree@V?$_Tmap_traits@PBDV?$basic_string@DU?$char_traits@D@std@@V?$allocator@D@2@@std@@U?$less@PBD@2@V?$allocator@U?$pair@QBDV?$basic_string@DU?$char_traits@D@std@@V?$allocator@D@2@@std@@@std@@@2@$0A@@std@@@std@@IAE?AViterator@12@_NPAU_Node@?$_Tree_nod@V?$_Tmap_traits@PBDV?$basic_string@DU?$char_traits@D@std@@V?$allocator@D@2@@std@@U?$less@PBD@2@V?$allocator@U?$pair@QBDV?$basic_string@DU?$char_traits@D@std@@V?$allocator@D@2@@std@@@std@@@2@$0A@@std@@@2@ABU?$pair@QBDV?$basic_string@DU?$char_traits@D@std@@V?$allocator@D@2@@std@@@2@@Z 1000b9e0 f i debug.obj
 0001:0000abe0       ?insert@?$_Tree@V?$_Tmap_traits@PBDV?$basic_string@DU?$char_traits@D@std@@V?$allocator@D@2@@std@@U?$less@PBD@2@V?$allocator@U?$pair@QBDV?$basic_string@DU?$char_traits@D@std@@V?$allocator@D@2@@std@@@std@@@2@$0A@@std@@@std@@QAE?AU?$pair@Viterator@?$_Tree@V?$_Tmap_traits@PBDV?$basic_string@DU?$char_traits@D@std@@V?$allocator@D@2@@std@@U?$less@PBD@2@V?$allocator@U?$pair@QBDV?$basic_string@DU?$char_traits@D@std@@V?$allocator@D@2@@std@@@std@@@2@$0A@@std@@@std@@_N@2@ABU?$pair@QBDV?$basic_string@DU?$char_traits@D@std@@V?$allocator@D@2@@std@@@2@@Z 1000bbe0 f i debug.obj
 0001:0000abe0       ?insert@?$_Tree@V?$_Tmap_traits@KV?$basic_string@DU?$char_traits@D@std@@V?$allocator@D@2@@std@@U?$less@K@2@V?$allocator@U?$pair@$$CBKV?$basic_string@DU?$char_traits@D@std@@V?$allocator@D@2@@std@@@std@@@2@$0A@@std@@@std@@QAE?AU?$pair@Viterator@?$_Tree@V?$_Tmap_traits@KV?$basic_string@DU?$char_traits@D@std@@V?$allocator@D@2@@std@@U?$less@K@2@V?$allocator@U?$pair@$$CBKV?$basic_string@DU?$char_traits@D@std@@V?$allocator@D@2@@std@@@std@@@2@$0A@@std@@@std@@_N@2@ABU?$pair@$$CBKV?$basic_string@DU?$char_traits@D@std@@V?$allocator@D@2@@std@@@2@@Z 1000bbe0 f i debug.obj
 0001:0000aca0       ?erase@?$_Tree@V?$_Tmap_traits@PBDV?$basic_string@DU?$char_traits@D@std@@V?$allocator@D@2@@std@@U?$less@PBD@2@V?$allocator@U?$pair@QBDV?$basic_string@DU?$char_traits@D@std@@V?$allocator@D@2@@std@@@std@@@2@$0A@@std@@@std@@QAE?AViterator@12@V312@0@Z 1000bca0 f i debug.obj
 0001:0000aca0       ?erase@?$_Tree@V?$_Tmap_traits@KV?$basic_string@DU?$char_traits@D@std@@V?$allocator@D@2@@std@@U?$less@K@2@V?$allocator@U?$pair@$$CBKV?$basic_string@DU?$char_traits@D@std@@V?$allocator@D@2@@std@@@std@@@2@$0A@@std@@@std@@QAE?AViterator@12@V312@0@Z 1000bca0 f i debug.obj
 0001:0000ad70       ?insert@?$_Tree@V?$_Tmap_traits@PBDV?$basic_string@DU?$char_traits@D@std@@V?$allocator@D@2@@std@@U?$less@PBD@2@V?$allocator@U?$pair@QBDV?$basic_string@DU?$char_traits@D@std@@V?$allocator@D@2@@std@@@std@@@2@$0A@@std@@@std@@QAE?AViterator@12@V312@ABU?$pair@QBDV?$basic_string@DU?$char_traits@D@std@@V?$allocator@D@2@@std@@@2@@Z 1000bd70 f i debug.obj
 0001:0000ad70       ?insert@?$_Tree@V?$_Tmap_traits@KV?$basic_string@DU?$char_traits@D@std@@V?$allocator@D@2@@std@@U?$less@K@2@V?$allocator@U?$pair@$$CBKV?$basic_string@DU?$char_traits@D@std@@V?$allocator@D@2@@std@@@std@@@2@$0A@@std@@@std@@QAE?AViterator@12@V312@ABU?$pair@$$CBKV?$basic_string@DU?$char_traits@D@std@@V?$allocator@D@2@@std@@@2@@Z 1000bd70 f i debug.obj
 0001:0000af30       ??A?$map@KV?$basic_string@DU?$char_traits@D@std@@V?$allocator@D@2@@std@@U?$less@K@2@V?$allocator@U?$pair@$$CBKV?$basic_string@DU?$char_traits@D@std@@V?$allocator@D@2@@std@@@std@@@2@@std@@QAEAAV?$basic_string@DU?$char_traits@D@std@@V?$allocator@D@2@@1@ABK@Z 1000bf30 f i debug.obj
 0001:0000af30       ??A?$map@PBDV?$basic_string@DU?$char_traits@D@std@@V?$allocator@D@2@@std@@U?$less@PBD@2@V?$allocator@U?$pair@QBDV?$basic_string@DU?$char_traits@D@std@@V?$allocator@D@2@@std@@@std@@@2@@std@@QAEAAV?$basic_string@DU?$char_traits@D@std@@V?$allocator@D@2@@1@ABQBD@Z 1000bf30 f i debug.obj
 0001:0000b060       ?GetPosition@File@@QAEIXZ  1000c060 f   File.obj
 0001:0000b070       ?GetLength@File@@QAEIXZ    1000c070 f   File.obj
 0001:0000b080       ?Close@File@@QAEXXZ        1000c080 f   File.obj
 0001:0000b0d0       ?Seek@File@@QAEXI@Z        1000c0d0 f   File.obj
 0001:0000b100       ?GetRecord@FileArchive@@QAEABURecord@1@V?$basic_string@DU?$char_traits@D@std@@V?$allocator@D@2@@std@@@Z 1000c100 f   File.obj
 0001:0000b500       ?Read@File@@QAEIPAXI@Z     1000c500 f   File.obj
 0001:0000b560       ?GetLine@File@@QAE_NAAV?$basic_string@DU?$char_traits@D@std@@V?$allocator@D@2@@std@@@Z 1000c560 f   File.obj
 0001:0000b660       ?CalcCRC@File@@QAEIXZ      1000c660 f   File.obj
 0001:0000b730       ??0File@@QAE@XZ            1000c730 f   File.obj
 0001:0000b7b0       ?Open@File@@QAE_NV?$basic_string@DU?$char_traits@D@std@@V?$allocator@D@2@@std@@@Z 1000c7b0 f   File.obj
 0001:0000ba70       ?FileExistsEx@@YA_NV?$basic_string@DU?$char_traits@D@std@@V?$allocator@D@2@@std@@@Z 1000ca70 f   File.obj
 0001:0000bbb0       ?Open@FileArchive@@QAE_NV?$basic_string@DU?$char_traits@D@std@@V?$allocator@D@2@@std@@0@Z 1000cbb0 f   File.obj
 0001:0000c430       ?size@?$vector@URecord@FileArchive@@V?$allocator@URecord@FileArchive@@@std@@@std@@QBEIXZ 1000d430 f i File.obj
 0001:0000c450       ??Y?$_String_const_iterator@DU?$char_traits@D@std@@V?$allocator@D@2@@std@@QAEAAV01@H@Z 1000d450 f i File.obj
 0001:0000c4b0       ??$_Allocate@URecord@FileArchive@@@std@@YAPAURecord@FileArchive@@IPAU12@@Z 1000d4b0 f i File.obj
 0001:0000c510       ?tellg@?$basic_istream@DU?$char_traits@D@std@@@std@@QAE?AV?$fpos@H@2@XZ 1000d510 f i File.obj
 0001:0000c560       ?_Tidy@?$vector@URecord@FileArchive@@V?$allocator@URecord@FileArchive@@@std@@@std@@IAEXXZ 1000d560 f i File.obj
 0001:0000c5b0       ??$_Copy_opt@PAURecord@FileArchive@@PAU12@@std@@YAPAURecord@FileArchive@@PAU12@00Urandom_access_iterator_tag@0@U_Nonscalar_ptr_iterator_tag@0@U_Range_checked_iterator_tag@0@@Z 1000d5b0 f i File.obj
 0001:0000c600       ??1?$vector@URecord@FileArchive@@V?$allocator@URecord@FileArchive@@@std@@@std@@QAE@XZ 1000d600 f i File.obj
 0001:0000c610       ??$fill@PAPAURecord@FileArchive@@PAU12@@std@@YAXPAPAURecord@FileArchive@@0ABQAU12@@Z 1000d610 f i File.obj
 0001:0000c610       ??$fill@PAII@std@@YAXPAI0ABI@Z 1000d610 f i File.obj
 0001:0000c630       ??$_Unchecked_move_backward@PAIPAI@stdext@@YAPAIPAI00@Z 1000d630 f i File.obj
 0001:0000c630       ??$_Unchecked_move_backward@PAPAURecord@FileArchive@@PAPAU12@@stdext@@YAPAPAURecord@FileArchive@@PAPAU12@00@Z 1000d630 f i File.obj
 0001:0000c660       ??$unchecked_copy@PAURecord@FileArchive@@PAU12@@stdext@@YAPAURecord@FileArchive@@PAU12@00@Z 1000d660 f i File.obj
 0001:0000c690       ??1?$vector@PAURecord@FileArchive@@V?$allocator@PAURecord@FileArchive@@@std@@@std@@QAE@XZ 1000d690 f i File.obj
 0001:0000c690       ??1?$vector@IV?$allocator@I@std@@@std@@QAE@XZ 1000d690 f i File.obj
 0001:0000c690       ??1?$vector@EV?$allocator@E@std@@@std@@QAE@XZ 1000d690 f i serialize.obj
 0001:0000c6c0       ??1FileArchive@@QAE@XZ     1000d6c0 f i File.obj
 0001:0000c750       ??1Record@FileArchive@@QAE@XZ 1000d750 f i File.obj
 0001:0000c7e0       ?insert@?$basic_string@DU?$char_traits@D@std@@V?$allocator@D@2@@std@@QAEAAV12@IID@Z 1000d7e0 f i File.obj
 0001:0000c8e0       ?erase@?$basic_string@DU?$char_traits@D@std@@V?$allocator@D@2@@std@@QAE?AV?$_String_iterator@DU?$char_traits@D@std@@V?$allocator@D@2@@2@V32@0@Z 1000d8e0 f i File.obj
 0001:0000c9b0       ??$_Umove@PAPAURecord@FileArchive@@@?$vector@PAURecord@FileArchive@@V?$allocator@PAURecord@FileArchive@@@std@@@std@@IAEPAPAURecord@FileArchive@@PAPAU23@00@Z 1000d9b0 f i File.obj
 0001:0000c9b0       ??$_Umove@PAI@?$vector@IV?$allocator@I@std@@@std@@IAEPAIPAI00@Z 1000d9b0 f i File.obj
 0001:0000c9e0       ?insert@?$basic_string@DU?$char_traits@D@std@@V?$allocator@D@2@@std@@QAE?AV?$_String_iterator@DU?$char_traits@D@std@@V?$allocator@D@2@@2@V32@D@Z 1000d9e0 f i File.obj
 0001:0000cac0       ?clear@?$basic_string@DU?$char_traits@D@std@@V?$allocator@D@2@@std@@QAEXXZ 1000dac0 f i File.obj
 0001:0000cb60       ?_Ufill@?$vector@PAURecord@FileArchive@@V?$allocator@PAURecord@FileArchive@@@std@@@std@@IAEPAPAURecord@FileArchive@@PAPAU34@IABQAU34@@Z 1000db60 f i File.obj
 0001:0000cb60       ?_Ufill@?$vector@IV?$allocator@I@std@@@std@@IAEPAIPAIIABI@Z 1000db60 f i File.obj
 0001:0000cb90       ??$?HDU?$char_traits@D@std@@V?$allocator@D@1@@std@@YA?AV?$basic_string@DU?$char_traits@D@std@@V?$allocator@D@2@@0@PBDABV10@@Z 1000db90 f i File.obj
 0001:0000cc50       ?seekg@?$basic_istream@DU?$char_traits@D@std@@@std@@QAEAAV12@V?$fpos@H@2@@Z 1000dc50 f i File.obj
 0001:0000cce0       ?seekg@?$basic_istream@DU?$char_traits@D@std@@@std@@QAEAAV12@JH@Z 1000dce0 f i File.obj
 0001:0000cd50       ?_Buy@?$vector@URecord@FileArchive@@V?$allocator@URecord@FileArchive@@@std@@@std@@IAE_NI@Z 1000dd50 f i File.obj
 0001:0000cda0       ?_Insert_n@?$vector@PAURecord@FileArchive@@V?$allocator@PAURecord@FileArchive@@@std@@@std@@IAEXV?$_Vector_iterator@PAURecord@FileArchive@@V?$allocator@PAURecord@FileArchive@@@std@@@2@IABQAURecord@FileArchive@@@Z 1000dda0 f i File.obj
 0001:0000cda0       ?_Insert_n@?$vector@IV?$allocator@I@std@@@std@@IAEXV?$_Vector_iterator@IV?$allocator@I@std@@@2@IABI@Z 1000dda0 f i File.obj
 0001:0000cf60       ?insert@?$vector@IV?$allocator@I@std@@@std@@QAE?AV?$_Vector_iterator@IV?$allocator@I@std@@@2@V32@ABI@Z 1000df60 f i File.obj
 0001:0000cf60       ?insert@?$vector@PAURecord@FileArchive@@V?$allocator@PAURecord@FileArchive@@@std@@@std@@QAE?AV?$_Vector_iterator@PAURecord@FileArchive@@V?$allocator@PAURecord@FileArchive@@@std@@@2@V32@ABQAURecord@FileArchive@@@Z 1000df60 f i File.obj
 0001:0000cff0       ??0Record@FileArchive@@QAE@XZ 1000dff0 f i File.obj
 0001:0000d080       ??1File@@QAE@XZ            1000e080 f i File.obj
 0001:0000d110       ?push_back@?$vector@IV?$allocator@I@std@@@std@@QAEXABI@Z 1000e110 f i File.obj
 0001:0000d110       ?push_back@?$vector@PAURecord@FileArchive@@V?$allocator@PAURecord@FileArchive@@@std@@@std@@QAEXABQAURecord@FileArchive@@@Z 1000e110 f i File.obj
 0001:0000d180       ?_Read_s@?$basic_istream@DU?$char_traits@D@std@@@std@@QAEAAV12@PADIH@Z 1000e180 f i File.obj
 0001:0000d2a0       ?_Destroy@?$vector@URecord@FileArchive@@V?$allocator@URecord@FileArchive@@@std@@@std@@IAEXPAURecord@FileArchive@@0@Z 1000e2a0 f i File.obj
 0001:0000d2d0       ??0?$vector@URecord@FileArchive@@V?$allocator@URecord@FileArchive@@@std@@@std@@QAE@ABV01@@Z 1000e2d0 f i File.obj
 0001:0000d3d0       ?erase@?$vector@URecord@FileArchive@@V?$allocator@URecord@FileArchive@@@std@@@std@@QAE?AV?$_Vector_iterator@URecord@FileArchive@@V?$allocator@URecord@FileArchive@@@std@@@2@V32@0@Z 1000e3d0 f i File.obj
 0001:0000d450       ??0Record@FileArchive@@QAE@ABU01@@Z 1000e450 f i File.obj
 0001:0000d500       ?clear@?$vector@URecord@FileArchive@@V?$allocator@URecord@FileArchive@@@std@@@std@@QAEXXZ 1000e500 f i File.obj
 0001:0000d540       ??$_Uninit_copy@PAURecord@FileArchive@@PAU12@V?$allocator@URecord@FileArchive@@@std@@@std@@YAPAURecord@FileArchive@@PAU12@00AAV?$allocator@URecord@FileArchive@@@0@U_Nonscalar_ptr_iterator_tag@0@U_Range_checked_iterator_tag@0@@Z 1000e540 f i File.obj
 0001:0000d540       ??$_Uninit_copy@PBURecord@FileArchive@@PAU12@V?$allocator@URecord@FileArchive@@@std@@@std@@YAPAURecord@FileArchive@@PBU12@0PAU12@AAV?$allocator@URecord@FileArchive@@@0@U_Nonscalar_ptr_iterator_tag@0@U_Range_checked_iterator_tag@0@@Z 1000e540 f i File.obj
 0001:0000d5e0       ??$_Uninit_fill_n@PAURecord@FileArchive@@IU12@V?$allocator@URecord@FileArchive@@@std@@@std@@YAXPAURecord@FileArchive@@IABU12@AAV?$allocator@URecord@FileArchive@@@0@U_Nonscalar_ptr_iterator_tag@0@U_Range_checked_iterator_tag@0@@Z 1000e5e0 f i File.obj
 0001:0000d680       ??$_Ucopy@PAURecord@FileArchive@@@?$vector@URecord@FileArchive@@V?$allocator@URecord@FileArchive@@@std@@@std@@IAEPAURecord@FileArchive@@PAU23@00@Z 1000e680 f i File.obj
 0001:0000d680       ??$_Umove@PAURecord@FileArchive@@@?$vector@URecord@FileArchive@@V?$allocator@URecord@FileArchive@@@std@@@std@@IAEPAURecord@FileArchive@@PAU23@00@Z 1000e680 f i File.obj
 0001:0000d6b0       ?_Ufill@?$vector@URecord@FileArchive@@V?$allocator@URecord@FileArchive@@@std@@@std@@IAEPAURecord@FileArchive@@PAU34@IABU34@@Z 1000e6b0 f i File.obj
 0001:0000d6f0       ??4?$vector@URecord@FileArchive@@V?$allocator@URecord@FileArchive@@@std@@@std@@QAEAAV01@ABV01@@Z 1000e6f0 f i File.obj
 0001:0000d870       ??4Record@FileArchive@@QAEAAU01@ABU01@@Z 1000e870 f i File.obj
 0001:0000d8c0       ??$_Copy_backward_opt@PAURecord@FileArchive@@PAU12@Uforward_iterator_tag@std@@@std@@YAPAURecord@FileArchive@@PAU12@00Uforward_iterator_tag@0@U_Nonscalar_ptr_iterator_tag@0@U_Range_checked_iterator_tag@0@@Z 1000e8c0 f i File.obj
 0001:0000d930       ??$_Fill@PAURecord@FileArchive@@U12@@std@@YAXPAURecord@FileArchive@@0ABU12@@Z 1000e930 f i File.obj
 0001:0000d990       ??$_Copy_backward_opt@PAURecord@FileArchive@@PAU12@@std@@YAPAURecord@FileArchive@@PAU12@00Urandom_access_iterator_tag@0@U_Nonscalar_ptr_iterator_tag@0@U_Range_checked_iterator_tag@0@@Z 1000e990 f i File.obj
 0001:0000d9f0       ??$_Unchecked_move_backward@PAURecord@FileArchive@@PAU12@@stdext@@YAPAURecord@FileArchive@@PAU12@00@Z 1000e9f0 f i File.obj
 0001:0000da20       ?_Insert_n@?$vector@URecord@FileArchive@@V?$allocator@URecord@FileArchive@@@std@@@std@@IAEXV?$_Vector_iterator@URecord@FileArchive@@V?$allocator@URecord@FileArchive@@@std@@@2@IABURecord@FileArchive@@@Z 1000ea20 f i File.obj
 0001:0000dd20       ?insert@?$vector@URecord@FileArchive@@V?$allocator@URecord@FileArchive@@@std@@@std@@QAE?AV?$_Vector_iterator@URecord@FileArchive@@V?$allocator@URecord@FileArchive@@@std@@@2@V32@ABURecord@FileArchive@@@Z 1000ed20 f i File.obj
 0001:0000ddd0       ?push_back@?$vector@URecord@FileArchive@@V?$allocator@URecord@FileArchive@@@std@@@std@@QAEXABURecord@FileArchive@@@Z 1000edd0 f i File.obj
 0001:0000de70       ?GRID_part1@@YAXXZ         1000ee70 f   grid.obj
 0001:0000ded0       ?GRID_part2@@YAXXZ         1000eed0 f   grid.obj
 0001:0000df30       ?GRID_part3@@YAXXZ         1000ef30 f   grid.obj
 0001:0000df90       ?GRID_part4@@YAXXZ         1000ef90 f   grid.obj
 0001:0000e000       ?GRID_part5@@YAXXZ         1000f000 f   grid.obj
 0001:0000e060       ?OnGMEnter@@YAKKK@Z        1000f060 f   gui_bugfix.obj
 0001:0000e0a0       ?GUI_gmEnter@@YAXXZ        1000f0a0 f   gui_bugfix.obj
 0001:0000e0f0       ?GUI_softcoreEnter@@YAXXZ  1000f0f0 f   gui_bugfix.obj
 0001:0000e130       ?GUI_textField_MeasurePosition@@YGKK@Z 1000f130 f   gui_bugfix.obj
 0001:0000e2f0       ?GUI_setServColumnSize@@YAXXZ 1000f2f0 f   gui_replace.obj
 0001:0000e370       ?GUI_softcoreSwitch@@YAXXZ 1000f370 f   gui_replace.obj
 0001:0000e3e0       ?GUI_softcoreResetSwitch@@YAXXZ 1000f3e0 f   gui_replace.obj
 0001:0000e450       ?GUI_softcoreSaveSwitch@@YAXXZ 1000f450 f   gui_replace.obj
 0001:0000e4c0       ?GUI_sandboxSwitch@@YAXXZ  1000f4c0 f   gui_replace.obj
 0001:0000e570       ?GUI_removeServerList@@YAXXZ 1000f570 f   gui_replace.obj
 0001:0000e5b0       ??1Image@@QAE@XZ           1000f5b0 f   Image.obj
 0001:0000e5e0       ?DisplayEx@Image@@QAEXFFFFFF_N@Z 1000f5e0 f   Image.obj
 0001:0000e940       ?GetWidth@Image@@QAEIXZ    1000f940 f   Image.obj
 0001:0000e950       ?GetHeight@Image@@QAEIXZ   1000f950 f   Image.obj
 0001:0000e960       ?GetPixelAt@Image@@QAEIHH@Z 1000f960 f   Image.obj
 0001:0000e9a0       ?GetPixels@Image@@QAEPAIXZ 1000f9a0 f   Image.obj
 0001:0000e9b0       ?Display@Image@@QAEXFF@Z   1000f9b0 f   Image.obj
 0001:0000e9e0       ??0Image@@QAE@V?$basic_string@DU?$char_traits@D@std@@V?$allocator@D@2@@std@@@Z 1000f9e0 f   Image.obj
 0001:0000ee00       ?IImage_CopyTo@@YGXHHHH@Z  1000fe00 f   itempng.obj
 0001:0000ee70       ?IImage_Display@@YGXHHHHH@Z 1000fe70 f   itempng.obj
 0001:0000f0b0       ?IImage_Destruct@@YGXK@Z   100100b0 f   itempng.obj
 0001:0000f0c0       ?ITEMPNG_doCachePng@@YG_NPAX@Z 100100c0 f   itempng.obj
 0001:0000f130       ?ITEMPNG_cachePng@@YAXXZ   10010130 f   itempng.obj
 0001:0000f160       ?IImage_Construct@@YGPAXV?$basic_string@DU?$char_traits@D@std@@V?$allocator@D@2@@std@@@Z 10010160 f   itempng.obj
 0001:0000f3c0       ?ITEMPNG_doLoadPngChar@@YGPAXPBD0@Z 100103c0 f   itempng.obj
 0001:0000f650       ?ITEMPNG_doLoadPng@@YGXPBDH00@Z 10010650 f   itempng.obj
 0001:0000fdc0       ?ITEMPNG_loadPng@@YAXXZ    10010dc0 f   itempng.obj
 0001:0000fe20       ?ITEMPNG_loadPngChar@@YAXXZ 10010e20 f   itempng.obj
 0001:0000fe50       ?size@?$vector@UIImageUse@@V?$allocator@UIImageUse@@@std@@@std@@QBEIXZ 10010e50 f i itempng.obj
 0001:0000fe70       ??$_Allocate@UIImageUse@@@std@@YAPAUIImageUse@@IPAU1@@Z 10010e70 f i itempng.obj
 0001:0000fed0       ??1IImageUse@@QAE@XZ       10010ed0 f i itempng.obj
 0001:0000ff00       ??$_Construct@UIImageUse@@U1@@std@@YAXPAUIImageUse@@ABU1@@Z 10010f00 f i itempng.obj
 0001:0000ff80       ?destroy@?$allocator@UIImageUse@@@std@@QAEXPAUIImageUse@@@Z 10010f80 f i itempng.obj
 0001:0000ffb0       ??$_Copy_backward_opt@PAUIImageUse@@PAU1@Uforward_iterator_tag@std@@@std@@YAPAUIImageUse@@PAU1@00Uforward_iterator_tag@0@U_Nonscalar_ptr_iterator_tag@0@U_Range_checked_iterator_tag@0@@Z 10010fb0 f i itempng.obj
 0001:00010000       ??$_Uninit_copy@PAUIImageUse@@PAU1@V?$allocator@UIImageUse@@@std@@@std@@YAPAUIImageUse@@PAU1@00AAV?$allocator@UIImageUse@@@0@U_Nonscalar_ptr_iterator_tag@0@U_Range_checked_iterator_tag@0@@Z 10011000 f i itempng.obj
 0001:000100a0       ??$_Uninit_fill_n@PAUIImageUse@@IU1@V?$allocator@UIImageUse@@@std@@@std@@YAXPAUIImageUse@@IABU1@AAV?$allocator@UIImageUse@@@0@U_Nonscalar_ptr_iterator_tag@0@U_Range_checked_iterator_tag@0@@Z 100110a0 f i itempng.obj
 0001:00010130       ??$_Destroy_range@UIImageUse@@V?$allocator@UIImageUse@@@std@@@std@@YAXPAUIImageUse@@0AAV?$allocator@UIImageUse@@@0@U_Nonscalar_ptr_iterator_tag@0@@Z 10011130 f i itempng.obj
 0001:00010180       ??$_Fill@PAUIImageUse@@U1@@std@@YAXPAUIImageUse@@0ABU1@@Z 10011180 f i itempng.obj
 0001:000101c0       ??$_Copy_backward_opt@PAUIImageUse@@PAU1@@std@@YAPAUIImageUse@@PAU1@00Urandom_access_iterator_tag@0@U_Nonscalar_ptr_iterator_tag@0@U_Range_checked_iterator_tag@0@@Z 100111c0 f i itempng.obj
 0001:00010220       ?_Ufill@?$vector@UIImageUse@@V?$allocator@UIImageUse@@@std@@@std@@IAEPAUIImageUse@@PAU3@IABU3@@Z 10011220 f i itempng.obj
 0001:00010260       ?_Destroy@?$vector@UIImageUse@@V?$allocator@UIImageUse@@@std@@@std@@IAEXPAUIImageUse@@0@Z 10011260 f i itempng.obj
 0001:00010280       ??$_Unchecked_move_backward@PAUIImageUse@@PAU1@@stdext@@YAPAUIImageUse@@PAU1@00@Z 10011280 f i itempng.obj
 0001:000102b0       ??$_Umove@PAUIImageUse@@@?$vector@UIImageUse@@V?$allocator@UIImageUse@@@std@@@std@@IAEPAUIImageUse@@PAU2@00@Z 100112b0 f i itempng.obj
 0001:000102e0       ?_Insert_n@?$vector@UIImageUse@@V?$allocator@UIImageUse@@@std@@@std@@IAEXV?$_Vector_iterator@UIImageUse@@V?$allocator@UIImageUse@@@std@@@2@IABUIImageUse@@@Z 100112e0 f i itempng.obj
 0001:00010600       ?insert@?$vector@UIImageUse@@V?$allocator@UIImageUse@@@std@@@std@@QAE?AV?$_Vector_iterator@UIImageUse@@V?$allocator@UIImageUse@@@std@@@2@V32@ABUIImageUse@@@Z 10011600 f i itempng.obj
 0001:000106b0       ?push_back@?$vector@UIImageUse@@V?$allocator@UIImageUse@@@std@@@std@@QAEXABUIImageUse@@@Z 100116b0 f i itempng.obj
 0001:00010750       ?P_UnloadTiles@@YAXXZ      10011750 f   landscape_renderer.obj
 0001:000107c0       ?P_DisplayTile@@YAXGHHHHHHHH@Z 100117c0 f   landscape_renderer.obj
 0001:00010ae0       ?P_DisplayTileNative@@YGXGHHHHHHIIII@Z 10011ae0 f   landscape_renderer.obj
 0001:00010b10       ?TILES_displayTile1@@YAXXZ 10011b10 f   landscape_renderer.obj
 0001:00010b60       ?TILES_debug@@YAXXZ        10011b60 f   landscape_renderer.obj
 0001:00010b70       ?P_LoadTiles@@YAXXZ        10011b70 f   landscape_renderer.obj
 0001:00010ec0       ?P_LoadTilesNative@@YGXI@Z 10011ec0 f   landscape_renderer.obj
 0001:00010ee0       ?TILES_loadTiles@@YAXXZ    10011ee0 f   landscape_renderer.obj
 0001:00010f10       ?DecideLanguage@@YAXXZ     10011f10 f   language.obj
 0001:000111d0       ?LANG_change_43EDEB@@YAXXZ 100121d0 f   language.obj
 0001:00011200       ?LANG_change_474F27@@YAXXZ 10012200 f   language.obj
 0001:00011220       ?LANG_change_48626D@@YAXXZ 10012220 f   language.obj
 0001:00011340       ?LANG_change_48BA07@@YAXXZ 10012340 f   language.obj
 0001:00011360       ?LANG_change_48CA55@@YAXXZ 10012360 f   language.obj
 0001:00011380       ?LANG_change_491CDF@@YAXXZ 10012380 f   language.obj
 0001:000113a0       ?LANG_change_4939A2@@YAXXZ 100123a0 f   language.obj
 0001:000113c0       ?LANG_change_493B23@@YAXXZ 100123c0 f   language.obj
 0001:000113e0       ?LANG_change_4B018F@@YAXXZ 100123e0 f   language.obj
 0001:00011400       ?LANG_change_42B3D5@@YAXXZ 10012400 f   language.obj
 0001:00011410       ?LANG_change_43EEC3@@YAXXZ 10012410 f   language.obj
 0001:00011430       ?LANG_change_460F9B@@YAXXZ 10012430 f   language.obj
 0001:00011440       ?LANG_change_474375@@YAXXZ 10012440 f   language.obj
 0001:00011450       ?LANG_change_4743C9@@YAXXZ 10012450 f   language.obj
 0001:00011460       ?LANG_change_496638@@YAXXZ 10012460 f   language.obj
 0001:00011470       ?LANG_change_4AEE20@@YAXXZ 10012470 f   language.obj
 0001:00011480       ?LANG_change_4AEE6D@@YAXXZ 10012480 f   language.obj
 0001:00011490       ?LANG_change_4AEF2A@@YAXXZ 10012490 f   language.obj
 0001:000114b0       ?LANG_change_4AEF9C@@YAXXZ 100124b0 f   language.obj
 0001:000114d0       ?LANG_change_4AF00E@@YAXXZ 100124d0 f   language.obj
 0001:000114f0       ?LANG_fix_codepage@@YAXXZ  100124f0 f   language.obj
 0001:00011510       ?check_map_file@@YGPBDPBD@Z 10012510 f   map_location.obj
 0001:00011520       ?MAP_CalcCRC@@YAXXZ        10012520 f   map_location.obj
 0001:00011540       ?get_map_name@@YGPBDPBD@Z  10012540 f   map_location.obj
 0001:00011650       ?move_map_file@@YGXPBD0@Z  10012650 f   map_location.obj
 0001:00011830       ?MAP_loadFromServer@@YAXXZ 10012830 f   map_location.obj
 0001:00011850       ?MAP_CFileOpen1@@YAXXZ     10012850 f   map_location.obj
 0001:00011870       ?MAP_CFileOpen2@@YAXXZ     10012870 f   map_location.obj
 0001:00011890       ?SYSTEM_setThreadPriority@@YAXXZ 10012890 f   misc.obj
 0001:000118a0       ?FromPacket@CPacket@@QAEXPAE@Z 100128a0 f   net_shared.obj
 0001:000118d0       ?GetOrigin@CPacket@@QAEIXZ 100128d0 f   net_shared.obj
 0001:000118e0       ?crypt@@YAXPAEPBEH@Z       100128e0 f   network_crypt.obj
 0001:00011930       ?cryptver@@YAXPAEHH@Z      10012930 f   network_crypt.obj
 0001:00011980       ?NET_cryptPacket@@YAXPAEH@Z 10012980 f   network_crypt.obj
 0001:000119a0       ?HATENT_url_text@@YAXXZ    100129a0 f   network_hat_enter.obj
 0001:000119e0       ?HATENT_url_connect@@YAXXZ 100129e0 f   network_hat_enter.obj
 0001:00011a10       ?parseLogin@@YGXXZ         10012a10 f   network_hat_enter.obj
 0001:00011c30       ?HATENT_login_text@@YAXXZ  10012c30 f   network_hat_enter.obj
 0001:00011c70       ?substr@?$basic_string@DU?$char_traits@D@std@@V?$allocator@D@2@@std@@QBE?AV12@II@Z 10012c70 f i network_hat_enter.obj
 0001:00011cb0       ?crcmain@@YGXPAD@Z         10012cb0 f   network_protocol.obj
 0001:00011e60       ?NETPROTO_sendAuthorizationPacket@@YAHXZ 10012e60 f   network_protocol.obj
 0001:00011ed0       ?NETPROTO_createAuthorizationPacket@@YAHXZ 10012ed0 f   network_protocol.obj
 0001:00011fc0       ?recv_@@YGHIPADHH@Z        10012fc0 f   network_protocol.obj
 0001:00012180       ?NETPROTO_fixRecv@@YAXXZ   10013180 f   network_protocol.obj
 0001:000121b0       ?NETPROTO_enlargeBuffer@@YAXXZ 100131b0 f   network_protocol.obj
 0001:000121e0       ?NETPROTO_enlargeBuffer2@@YAXXZ 100131e0 f   network_protocol.obj
 0001:000121f0       ?real_4949CD@@YAHXZ        100131f0 f   network_protocol_ext.obj
 0001:00012210       ?NETPROTO_showErrorDialog@@YAHPBDH@Z 10013210 f   network_protocol_ext.obj
 0001:00012270       ?LockProgress@@YAXXZ       10013270 f   network_protocol_ext.obj
 0001:000122a0       ?UnlockProgress@@YAXXZ     100132a0 f   network_protocol_ext.obj
 0001:000122b0       ?NETPROTO_hhEndReply@@YAXPBVResponse@happyhttp@@PAX@Z 100132b0 f   network_protocol_ext.obj
 0001:000122d0       ?NETPROTO_CreateRecursiveCheck@@YA_NV?$basic_string@DU?$char_traits@D@std@@V?$allocator@D@2@@std@@@Z 100132d0 f   network_protocol_ext.obj
 0001:00012310       ?NETPROTO_readTextRply@@YAIPBDIIPAV?$basic_string@DU?$char_traits@D@std@@V?$allocator@D@2@@std@@@Z 10013310 f   network_protocol_ext.obj
 0001:000123b0       ?NETPROTO_hhStartReply@@YAXPBVResponse@happyhttp@@PAX@Z 100133b0 f   network_protocol_ext.obj
 0001:000124c0       ?CurlEscape2@@YA?AV?$basic_string@DU?$char_traits@D@std@@V?$allocator@D@2@@std@@V12@@Z 100134c0 f   network_protocol_ext.obj
 0001:000125d0       ?NETPROTO_hhReadReply@@YAXPBVResponse@happyhttp@@PAXPBEH@Z 100135d0 f   network_protocol_ext.obj
 0001:00012a50       ?NETPROTO_hhGetBlockingReply@@YA?AV?$basic_string@DU?$char_traits@D@std@@V?$allocator@D@2@@std@@V12@00@Z 10013a50 f   network_protocol_ext.obj
 0001:00012c90       ?Cl_ScreenshotThread@@YAHPBUScreenshotInfo@@@Z 10013c90 f   network_protocol_ext.obj
 0001:00013570       ?ProcLastSI@@YGXXZ         10014570 f   network_protocol_ext.obj
 0001:00013610       ?imp_MakeScreenshotNet@@YAXXZ 10014610 f   network_protocol_ext.obj
 0001:00013630       ?NETPROTO_CreateRecursive@@YA_NV?$basic_string@DU?$char_traits@D@std@@V?$allocator@D@2@@std@@@Z 10014630 f   network_protocol_ext.obj
 0001:00013a60       ?Cl_ProcessServerPacket@@YA_NAAVBinaryStream@@@Z 10014a60 f   network_protocol_ext.obj
 0001:00013b90       ?NETPROTO_updater@@YAHPAUUpdaterInfo@@@Z 10014b90 f   network_protocol_ext.obj
 0001:000151d0       ?NETPROTO_loginToHat@@YGHXZ 100161d0 f   network_protocol_ext.obj
 0001:00015ec0       ??$AtlMultiply@I@ATL@@YAJPAIII@Z 10016ec0 f i network_protocol_ext.obj
 0001:00015ee0       ?AtlThrowImpl@ATL@@YGXJ@Z  10016ee0 f i network_protocol_ext.obj
 0001:00015f00       ?_AtlGetStringResourceImage@ATL@@YAPBUATLSTRINGRESOURCEIMAGE@1@PAUHINSTANCE__@@PAUHRSRC__@@I@Z 10016f00 f i network_protocol_ext.obj
 0001:00015f70       ?AtlFindStringResourceInstance@ATL@@YAPAUHINSTANCE__@@IG@Z 10016f70 f i network_protocol_ext.obj
 0001:00015ff0       ?size@?$vector@UVersionFileEntry@@V?$allocator@UVersionFileEntry@@@std@@@std@@QBEIXZ 10016ff0 f i network_protocol_ext.obj
 0001:00016010       ?size@?$vector@EV?$allocator@E@std@@@std@@QBEIXZ 10017010 f i network_protocol_ext.obj
 0001:00016020       ?ThrowMemoryException@?$CSimpleStringT@D$0A@@ATL@@KAXXZ 10017020 f i network_protocol_ext.obj
 0001:00016030       ?CloneData@?$CSimpleStringT@D$0A@@ATL@@CAPAUCStringData@2@PAU32@@Z 10017030 f i network_protocol_ext.obj
 0001:000160a0       ?Reallocate@?$CSimpleStringT@D$0A@@ATL@@AAEXH@Z 100170a0 f i network_protocol_ext.obj
 0001:000160e0       ??$AtlAdd@K@ATL@@YAJPAKKK@Z 100170e0 f i network_protocol_ext.obj
 0001:00016110       ??$_Allocate@E@std@@YAPAEIPAE@Z 10017110 f i network_protocol_ext.obj
 0001:00016110       ??$_Allocate@D@std@@YAPADIPAD@Z 10017110 f i a2mgr.obj
 0001:00016170       ??$_Allocate@UVersionFileEntry@@@std@@YAPAUVersionFileEntry@@IPAU1@@Z 10017170 f i network_protocol_ext.obj
 0001:000161d0       ??$_Allocate@V?$CStringT@DV?$StrTraitATL@DV?$ChTraitsCRT@D@ATL@@@ATL@@@ATL@@@std@@YAPAV?$CStringT@DV?$StrTraitATL@DV?$ChTraitsCRT@D@ATL@@@ATL@@@ATL@@IPAV12@@Z 100171d0 f i network_protocol_ext.obj
 0001:000161d0       ??$_Allocate@I@std@@YAPAIIPAI@Z 100171d0 f i File.obj
 0001:000161d0       ??$_Allocate@PAURecord@FileArchive@@@std@@YAPAPAURecord@FileArchive@@IPAPAU12@@Z 100171d0 f i File.obj
 0001:000161d0       ??$_Allocate@PAPAVResponse@happyhttp@@@std@@YAPAPAPAVResponse@happyhttp@@IPAPAPAV12@@Z 100171d0 f i happyhttp.obj
 0001:00016230       ??1?$CSimpleStringT@D$0A@@ATL@@QAE@XZ 10017230 f i network_protocol_ext.obj
 0001:00016230       ??1?$CStringT@DV?$StrTraitATL@DV?$ChTraitsCRT@D@ATL@@@ATL@@@ATL@@QAE@XZ 10017230 f i network_protocol_ext.obj
 0001:00016250       ?Fork@?$CSimpleStringT@D$0A@@ATL@@AAEXH@Z 10017250 f i network_protocol_ext.obj
 0001:000162d0       ?Empty@?$CSimpleStringT@D$0A@@ATL@@QAEXXZ 100172d0 f i network_protocol_ext.obj
 0001:00016330       ?PrepareWrite2@?$CSimpleStringT@D$0A@@ATL@@AAEXH@Z 10017330 f i network_protocol_ext.obj
 0001:00016380       ??0VersionFileEntry@@QAE@ABU0@@Z 10017380 f i network_protocol_ext.obj
 0001:000163f0       ??$?9DU?$char_traits@D@std@@V?$allocator@D@1@@std@@YA_NABV?$basic_string@DU?$char_traits@D@std@@V?$allocator@D@2@@0@0@Z 100173f0 f i network_protocol_ext.obj
 0001:00016420       ??$unchecked_copy@PAEPAE@stdext@@YAPAEPAE00@Z 10017420 f i network_protocol_ext.obj
 0001:00016450       ??0VersionFileEntry@@QAE@V?$CStringT@DV?$StrTraitATL@DV?$ChTraitsCRT@D@ATL@@@ATL@@@ATL@@0@Z 10017450 f i network_protocol_ext.obj
 0001:00016510       ??1VersionFileEntry@@QAE@XZ 10017510 f i network_protocol_ext.obj
 0001:00016560       ?end@?$vector@EV?$allocator@E@std@@@std@@QAE?AV?$_Vector_iterator@EV?$allocator@E@std@@@2@XZ 10017560 f i network_protocol_ext.obj
 0001:00016590       ?erase@?$vector@EV?$allocator@E@std@@@std@@QAE?AV?$_Vector_iterator@EV?$allocator@E@std@@@2@V32@0@Z 10017590 f i network_protocol_ext.obj
 0001:000165e0       ?SetString@?$CSimpleStringT@D$0A@@ATL@@QAEXPBDH@Z 100175e0 f i network_protocol_ext.obj
 0001:00016670       ?LoadStringA@?$CStringT@DV?$StrTraitATL@DV?$ChTraitsCRT@D@ATL@@@ATL@@@ATL@@QAEHPAUHINSTANCE__@@I@Z 10017670 f i network_protocol_ext.obj
 0001:00016740       ??$?9DU?$char_traits@D@std@@V?$allocator@D@1@@std@@YA_NABV?$basic_string@DU?$char_traits@D@std@@V?$allocator@D@2@@0@PBD@Z 10017740 f i network_protocol_ext.obj
 0001:00016780       ??1NETPROTO_fileProgress@@QAE@XZ 10017780 f i network_protocol_ext.obj
 0001:000167f0       ?clear@?$vector@EV?$allocator@E@std@@@std@@QAEXXZ 100177f0 f i network_protocol_ext.obj
 0001:00016840       ??4?$CSimpleStringT@D$0A@@ATL@@QAEAAV01@ABV01@@Z 10017840 f i network_protocol_ext.obj
 0001:000168c0       ?Concatenate@?$CSimpleStringT@D$0A@@ATL@@KAXAAV12@PBDH1H@Z 100178c0 f i network_protocol_ext.obj
 0001:00016940       ?destroy@?$allocator@V?$CStringT@DV?$StrTraitATL@DV?$ChTraitsCRT@D@ATL@@@ATL@@@ATL@@@std@@QAEXPAV?$CStringT@DV?$StrTraitATL@DV?$ChTraitsCRT@D@ATL@@@ATL@@@ATL@@@Z 10017940 f i network_protocol_ext.obj
 0001:00016970       ??$_Uninit_copy@PAV?$CStringT@DV?$StrTraitATL@DV?$ChTraitsCRT@D@ATL@@@ATL@@@ATL@@PAV12@V?$allocator@V?$CStringT@DV?$StrTraitATL@DV?$ChTraitsCRT@D@ATL@@@ATL@@@ATL@@@std@@@std@@YAPAV?$CStringT@DV?$StrTraitATL@DV?$ChTraitsCRT@D@ATL@@@ATL@@@ATL@@PAV12@00AAV?$allocator@V?$CStringT@DV?$StrTraitATL@DV?$ChTraitsCRT@D@ATL@@@ATL@@@ATL@@@0@U_Nonscalar_ptr_iterator_tag@0@U_Range_checked_iterator_tag@0@@Z 10017970 f i network_protocol_ext.obj
 0001:00016a20       ??_GScreenshotInfo@@QAEPAXI@Z 10017a20 f i network_protocol_ext.obj
 0001:00016a60       ?push_back@?$basic_string@DU?$char_traits@D@std@@V?$allocator@D@2@@std@@QAEXD@Z 10017a60 f i network_protocol_ext.obj
 0001:00016ac0       ??HATL@@YA?AV?$CStringT@DV?$StrTraitATL@DV?$ChTraitsCRT@D@ATL@@@ATL@@@0@ABV10@0@Z 10017ac0 f i network_protocol_ext.obj
 0001:00016b90       ??HATL@@YA?AV?$CStringT@DV?$StrTraitATL@DV?$ChTraitsCRT@D@ATL@@@ATL@@@0@ABV10@PBD@Z 10017b90 f i network_protocol_ext.obj
 0001:00016c70       ??HATL@@YA?AV?$CStringT@DV?$StrTraitATL@DV?$ChTraitsCRT@D@ATL@@@ATL@@@0@PBDABV10@@Z 10017c70 f i network_protocol_ext.obj
 0001:00016d50       ??$_Uninit_fill_n@PAV?$CStringT@DV?$StrTraitATL@DV?$ChTraitsCRT@D@ATL@@@ATL@@@ATL@@IV12@V?$allocator@V?$CStringT@DV?$StrTraitATL@DV?$ChTraitsCRT@D@ATL@@@ATL@@@ATL@@@std@@@std@@YAXPAV?$CStringT@DV?$StrTraitATL@DV?$ChTraitsCRT@D@ATL@@@ATL@@@ATL@@IABV12@AAV?$allocator@V?$CStringT@DV?$StrTraitATL@DV?$ChTraitsCRT@D@ATL@@@ATL@@@ATL@@@0@U_Nonscalar_ptr_iterator_tag@0@U_Range_checked_iterator_tag@0@@Z 10017d50 f i network_protocol_ext.obj
 0001:00016e00       ??$_Destroy_range@V?$CStringT@DV?$StrTraitATL@DV?$ChTraitsCRT@D@ATL@@@ATL@@@ATL@@V?$allocator@V?$CStringT@DV?$StrTraitATL@DV?$ChTraitsCRT@D@ATL@@@ATL@@@ATL@@@std@@@std@@YAXPAV?$CStringT@DV?$StrTraitATL@DV?$ChTraitsCRT@D@ATL@@@ATL@@@ATL@@0AAV?$allocator@V?$CStringT@DV?$StrTraitATL@DV?$ChTraitsCRT@D@ATL@@@ATL@@@ATL@@@0@U_Nonscalar_ptr_iterator_tag@0@@Z 10017e00 f i network_protocol_ext.obj
 0001:00016e40       ?destroy@?$allocator@UVersionFileEntry@@@std@@QAEXPAUVersionFileEntry@@@Z 10017e40 f i network_protocol_ext.obj
 0001:00016e90       ??$_Copy_opt@PAUVersionFileEntry@@PAU1@Uforward_iterator_tag@std@@@std@@YAPAUVersionFileEntry@@PAU1@00Uforward_iterator_tag@0@U_Nonscalar_ptr_iterator_tag@0@U_Range_checked_iterator_tag@0@@Z 10017e90 f i network_protocol_ext.obj
 0001:00016ed0       ??$_Copy_backward_opt@PAUVersionFileEntry@@PAU1@Uforward_iterator_tag@std@@@std@@YAPAUVersionFileEntry@@PAU1@00Uforward_iterator_tag@0@U_Nonscalar_ptr_iterator_tag@0@U_Range_checked_iterator_tag@0@@Z 10017ed0 f i network_protocol_ext.obj
 0001:00016f10       ??$_Uninit_copy@PAUVersionFileEntry@@PAU1@V?$allocator@UVersionFileEntry@@@std@@@std@@YAPAUVersionFileEntry@@PAU1@00AAV?$allocator@UVersionFileEntry@@@0@U_Nonscalar_ptr_iterator_tag@0@U_Range_checked_iterator_tag@0@@Z 10017f10 f i network_protocol_ext.obj
 0001:00016fc0       ??0?$CStringT@DV?$StrTraitATL@DV?$ChTraitsCRT@D@ATL@@@ATL@@@ATL@@QAE@PBD@Z 10017fc0 f i network_protocol_ext.obj
 0001:00017070       ?_Xlen@?$vector@URecord@FileArchive@@V?$allocator@URecord@FileArchive@@@std@@@std@@KAXXZ 10018070 f i File.obj
 0001:00017070       ?_Xlen@?$vector@V?$CStringT@DV?$StrTraitATL@DV?$ChTraitsCRT@D@ATL@@@ATL@@@ATL@@V?$allocator@V?$CStringT@DV?$StrTraitATL@DV?$ChTraitsCRT@D@ATL@@@ATL@@@ATL@@@std@@@std@@KAXXZ 10018070 f i network_protocol_ext.obj
 0001:00017070       ?_Xlen@?$vector@UIImageUse@@V?$allocator@UIImageUse@@@std@@@std@@KAXXZ 10018070 f i itempng.obj
 0001:00017070       ?_Xlen@?$vector@UIPFEntry@IPFilter@@V?$allocator@UIPFEntry@IPFilter@@@std@@@std@@KAXXZ 10018070 f i socket.obj
 0001:00017070       ?_Xlen@?$vector@PAURecord@FileArchive@@V?$allocator@PAURecord@FileArchive@@@std@@@std@@KAXXZ 10018070 f i File.obj
 0001:00017070       ?_Xlen@?$vector@V?$basic_string@DU?$char_traits@D@std@@V?$allocator@D@2@@std@@V?$allocator@V?$basic_string@DU?$char_traits@D@std@@V?$allocator@D@2@@std@@@2@@std@@KAXXZ 10018070 f i chat_history.obj
 0001:00017070       ?_Xlen@?$vector@EV?$allocator@E@std@@@std@@KAXXZ 10018070 f i network_protocol_ext.obj
 0001:00017070       ?_Xlen@?$vector@IV?$allocator@I@std@@@std@@KAXXZ 10018070 f i File.obj
 0001:00017070       ?_Xlen@?$vector@UVersionFileEntry@@V?$allocator@UVersionFileEntry@@@std@@@std@@KAXXZ 10018070 f i network_protocol_ext.obj
 0001:00017070       ?_Xlen@?$vector@V?$vector@V?$basic_string@DU?$char_traits@D@std@@V?$allocator@D@2@@std@@V?$allocator@V?$basic_string@DU?$char_traits@D@std@@V?$allocator@D@2@@std@@@2@@std@@V?$allocator@V?$vector@V?$basic_string@DU?$char_traits@D@std@@V?$allocator@D@2@@std@@V?$allocator@V?$basic_string@DU?$char_traits@D@std@@V?$allocator@D@2@@std@@@2@@std@@@2@@std@@KAXXZ 10018070 f i chat_history.obj
 0001:00017070       ?_Xlen@?$vector@VBinaryStream@@V?$allocator@VBinaryStream@@@std@@@std@@KAXXZ 10018070 f i socket.obj
 0001:000170f0       ??$?HDU?$char_traits@D@std@@V?$allocator@D@1@@std@@YA?AV?$basic_string@DU?$char_traits@D@std@@V?$allocator@D@2@@0@ABV10@0@Z 100180f0 f i network_protocol_ext.obj
 0001:000171a0       ??$fill@PAV?$CStringT@DV?$StrTraitATL@DV?$ChTraitsCRT@D@ATL@@@ATL@@@ATL@@V12@@std@@YAXPAV?$CStringT@DV?$StrTraitATL@DV?$ChTraitsCRT@D@ATL@@@ATL@@@ATL@@0ABV12@@Z 100181a0 f i network_protocol_ext.obj
 0001:000171d0       ??$_Destroy_range@UVersionFileEntry@@V?$allocator@UVersionFileEntry@@@std@@@std@@YAXPAUVersionFileEntry@@0AAV?$allocator@UVersionFileEntry@@@0@U_Nonscalar_ptr_iterator_tag@0@@Z 100181d0 f i network_protocol_ext.obj
 0001:00017230       ??$_Uninit_fill_n@PAUVersionFileEntry@@IU1@V?$allocator@UVersionFileEntry@@@std@@@std@@YAXPAUVersionFileEntry@@IABU1@AAV?$allocator@UVersionFileEntry@@@0@U_Nonscalar_ptr_iterator_tag@0@U_Range_checked_iterator_tag@0@@Z 10018230 f i network_protocol_ext.obj
 0001:000172e0       ??$_Fill@PAUVersionFileEntry@@U1@@std@@YAXPAUVersionFileEntry@@0ABU1@@Z 100182e0 f i network_protocol_ext.obj
 0001:00017320       ??0NETPROTO_fileProgress@@QAE@XZ 10018320 f i network_protocol_ext.obj
 0001:000173f0       ??4NETPROTO_fileProgress@@QAEAAU0@ABU0@@Z 100183f0 f i network_protocol_ext.obj
 0001:00017480       ?SaveToString@VersionFile@@QAE?AV?$basic_string@DU?$char_traits@D@std@@V?$allocator@D@2@@std@@XZ 10018480 f i network_protocol_ext.obj
 0001:00017630       ?_Buy@?$vector@EV?$allocator@E@std@@@std@@IAE_NI@Z 10018630 f i network_protocol_ext.obj
 0001:00017680       ?_Ufill@?$vector@V?$CStringT@DV?$StrTraitATL@DV?$ChTraitsCRT@D@ATL@@@ATL@@@ATL@@V?$allocator@V?$CStringT@DV?$StrTraitATL@DV?$ChTraitsCRT@D@ATL@@@ATL@@@ATL@@@std@@@std@@IAEPAV?$CStringT@DV?$StrTraitATL@DV?$ChTraitsCRT@D@ATL@@@ATL@@@ATL@@PAV34@IABV34@@Z 10018680 f i network_protocol_ext.obj
 0001:000176c0       ?_Destroy@?$vector@V?$CStringT@DV?$StrTraitATL@DV?$ChTraitsCRT@D@ATL@@@ATL@@@ATL@@V?$allocator@V?$CStringT@DV?$StrTraitATL@DV?$ChTraitsCRT@D@ATL@@@ATL@@@ATL@@@std@@@std@@IAEXPAV?$CStringT@DV?$StrTraitATL@DV?$ChTraitsCRT@D@ATL@@@ATL@@@ATL@@0@Z 100186c0 f i network_protocol_ext.obj
 0001:000176e0       ??4?$vector@EV?$allocator@E@std@@@std@@QAEAAV01@ABV01@@Z 100186e0 f i network_protocol_ext.obj
 0001:00017800       ?_Destroy@?$vector@UVersionFileEntry@@V?$allocator@UVersionFileEntry@@@std@@@std@@IAEXPAUVersionFileEntry@@0@Z 10018800 f i network_protocol_ext.obj
 0001:00017820       ?_Ufill@?$vector@UVersionFileEntry@@V?$allocator@UVersionFileEntry@@@std@@@std@@IAEPAUVersionFileEntry@@PAU3@IABU3@@Z 10018820 f i network_protocol_ext.obj
 0001:00017860       ??$_Unchecked_move_backward@PAUVersionFileEntry@@PAU1@@stdext@@YAPAUVersionFileEntry@@PAU1@00@Z 10018860 f i network_protocol_ext.obj
 0001:000178b0       ??$_Umove@PAV?$CStringT@DV?$StrTraitATL@DV?$ChTraitsCRT@D@ATL@@@ATL@@@ATL@@@?$vector@V?$CStringT@DV?$StrTraitATL@DV?$ChTraitsCRT@D@ATL@@@ATL@@@ATL@@V?$allocator@V?$CStringT@DV?$StrTraitATL@DV?$ChTraitsCRT@D@ATL@@@ATL@@@ATL@@@std@@@std@@IAEPAV?$CStringT@DV?$StrTraitATL@DV?$ChTraitsCRT@D@ATL@@@ATL@@@ATL@@PAV23@00@Z 100188b0 f i network_protocol_ext.obj
 0001:000178e0       ??$_Unchecked_move_backward@PAV?$CStringT@DV?$StrTraitATL@DV?$ChTraitsCRT@D@ATL@@@ATL@@@ATL@@PAV12@@stdext@@YAPAV?$CStringT@DV?$StrTraitATL@DV?$ChTraitsCRT@D@ATL@@@ATL@@@ATL@@PAV12@00@Z 100188e0 f i network_protocol_ext.obj
 0001:00017920       ??4BinaryStream@@QAEAAV0@ABV0@@Z 10018920 f i network_protocol_ext.obj
 0001:00017950       ??1?$vector@UVersionFileEntry@@V?$allocator@UVersionFileEntry@@@std@@@std@@QAE@XZ 10018950 f i network_protocol_ext.obj
 0001:00017950       ??1VersionFile@@QAE@XZ     10018950 f i network_protocol_ext.obj
 0001:00017990       ?erase@?$vector@UVersionFileEntry@@V?$allocator@UVersionFileEntry@@@std@@@std@@QAE?AV?$_Vector_iterator@UVersionFileEntry@@V?$allocator@UVersionFileEntry@@@std@@@2@V32@@Z 10018990 f i network_protocol_ext.obj
 0001:00017a00       ??1?$vector@V?$CStringT@DV?$StrTraitATL@DV?$ChTraitsCRT@D@ATL@@@ATL@@@ATL@@V?$allocator@V?$CStringT@DV?$StrTraitATL@DV?$ChTraitsCRT@D@ATL@@@ATL@@@ATL@@@std@@@std@@QAE@XZ 10018a00 f i network_protocol_ext.obj
 0001:00017a40       ?erase@?$vector@UVersionFileEntry@@V?$allocator@UVersionFileEntry@@@std@@@std@@QAE?AV?$_Vector_iterator@UVersionFileEntry@@V?$allocator@UVersionFileEntry@@@std@@@2@V32@0@Z 10018a40 f i network_protocol_ext.obj
 0001:00017ac0       ?_Insert_n@?$vector@V?$CStringT@DV?$StrTraitATL@DV?$ChTraitsCRT@D@ATL@@@ATL@@@ATL@@V?$allocator@V?$CStringT@DV?$StrTraitATL@DV?$ChTraitsCRT@D@ATL@@@ATL@@@ATL@@@std@@@std@@IAEXV?$_Vector_iterator@V?$CStringT@DV?$StrTraitATL@DV?$ChTraitsCRT@D@ATL@@@ATL@@@ATL@@V?$allocator@V?$CStringT@DV?$StrTraitATL@DV?$ChTraitsCRT@D@ATL@@@ATL@@@ATL@@@std@@@2@IABV?$CStringT@DV?$StrTraitATL@DV?$ChTraitsCRT@D@ATL@@@ATL@@@ATL@@@Z 10018ac0 f i network_protocol_ext.obj
 0001:00017d80       ??$_Umove@PAUVersionFileEntry@@@?$vector@UVersionFileEntry@@V?$allocator@UVersionFileEntry@@@std@@@std@@IAEPAUVersionFileEntry@@PAU2@00@Z 10018d80 f i network_protocol_ext.obj
 0001:00017db0       ?insert@?$vector@V?$CStringT@DV?$StrTraitATL@DV?$ChTraitsCRT@D@ATL@@@ATL@@@ATL@@V?$allocator@V?$CStringT@DV?$StrTraitATL@DV?$ChTraitsCRT@D@ATL@@@ATL@@@ATL@@@std@@@std@@QAE?AV?$_Vector_iterator@V?$CStringT@DV?$StrTraitATL@DV?$ChTraitsCRT@D@ATL@@@ATL@@@ATL@@V?$allocator@V?$CStringT@DV?$StrTraitATL@DV?$ChTraitsCRT@D@ATL@@@ATL@@@ATL@@@std@@@2@V32@ABV?$CStringT@DV?$StrTraitATL@DV?$ChTraitsCRT@D@ATL@@@ATL@@@ATL@@@Z 10018db0 f i network_protocol_ext.obj
 0001:00017e40       ?_Insert_n@?$vector@UVersionFileEntry@@V?$allocator@UVersionFileEntry@@@std@@@std@@IAEXV?$_Vector_iterator@UVersionFileEntry@@V?$allocator@UVersionFileEntry@@@std@@@2@IABUVersionFileEntry@@@Z 10018e40 f i network_protocol_ext.obj
 0001:00018110       ?push_back@?$vector@V?$CStringT@DV?$StrTraitATL@DV?$ChTraitsCRT@D@ATL@@@ATL@@@ATL@@V?$allocator@V?$CStringT@DV?$StrTraitATL@DV?$ChTraitsCRT@D@ATL@@@ATL@@@ATL@@@std@@@std@@QAEXABV?$CStringT@DV?$StrTraitATL@DV?$ChTraitsCRT@D@ATL@@@ATL@@@ATL@@@Z 10019110 f i network_protocol_ext.obj
 0001:000181a0       ?insert@?$vector@UVersionFileEntry@@V?$allocator@UVersionFileEntry@@@std@@@std@@QAE?AV?$_Vector_iterator@UVersionFileEntry@@V?$allocator@UVersionFileEntry@@@std@@@2@V32@ABUVersionFileEntry@@@Z 100191a0 f i network_protocol_ext.obj
 0001:00018230       ?push_back@?$vector@UVersionFileEntry@@V?$allocator@UVersionFileEntry@@@std@@@std@@QAEXABUVersionFileEntry@@@Z 10019230 f i network_protocol_ext.obj
 0001:000182c0       ?LoadFromString@VersionFile@@QAEXV?$basic_string@DU?$char_traits@D@std@@V?$allocator@D@2@@std@@@Z 100192c0 f i network_protocol_ext.obj
 0001:00018790       ?PSCRL_rep@@YGKK@Z         10019790 f   pack_scrolling.obj
 0001:00018860       ?PSCRL_gameInventory@@YAXXZ 10019860 f   pack_scrolling.obj
 0001:000188f0       ?PSCRL_shopShelfOnKeyDown@@YAXXZ 100198f0 f   pack_scrolling.obj
 0001:00018930       ?PSCRL_InitializeInjection@@YAXXZ 10019930 f   pack_scrolling.obj
 0001:00018950       ?RES_loadException@@YAXXZ  10019950 f   resource_control.obj
 0001:00018960       ?CheckMusic@@YGXXZ         10019960 f   resource_control.obj
 0001:00018980       ?RES_loadDirectories@@YAXXZ 10019980 f   resource_control.obj
 0001:000189b0       ?RES_noLoad@@YAXXZ         100199b0 f   resource_control.obj
 0001:000189c0       ?TestMap@@YG_NPBD@Z        100199c0 f   resource_control.obj
 0001:00018c00       ?RES_loadFile@@YAHH@Z      10019c00 f   resource_control.obj
 0001:00018cf0       ?FIL_world0@@YAXXZ         10019cf0 f   resource_files_replace.obj
 0001:00018d10       ?FIL_world1@@YAXXZ         10019d10 f   resource_files_replace.obj
 0001:00018d30       ?FIL_world2@@YAXXZ         10019d30 f   resource_files_replace.obj
 0001:00018d50       ?FIL_world3@@YAXXZ         10019d50 f   resource_files_replace.obj
 0001:00018d60       ?FIL_world4@@YAXXZ         10019d60 f   resource_files_replace.obj
 0001:00018d70       ?FIL_world5@@YAXXZ         10019d70 f   resource_files_replace.obj
 0001:00018d80       ?FIL_world6@@YAXXZ         10019d80 f   resource_files_replace.obj
 0001:00018d90       ?FIL_world7@@YAXXZ         10019d90 f   resource_files_replace.obj
 0001:00018db0       ?FIL_world8@@YAXXZ         10019db0 f   resource_files_replace.obj
 0001:00018dc0       ?FIL_world9@@YAXXZ         10019dc0 f   resource_files_replace.obj
 0001:00018dd0       ?FIL_worldA@@YAXXZ         10019dd0 f   resource_files_replace.obj
 0001:00018de0       ?FIL_patch0@@YAXXZ         10019de0 f   resource_files_replace.obj
 0001:00018df0       ?FIL_patch1@@YAXXZ         10019df0 f   resource_files_replace.obj
 0001:00018e10       ?a2mgr_CheckValid@@YA_NFF@Z 10019e10 f   scanrange.obj
 0001:00018e60       ?a2mgr_GetHeight@@YAEFF@Z  10019e60 f   scanrange.obj
 0001:00018ec0       ?CalcVisMapCLIENT@@YGHPAD@Z 10019ec0 f   scanrange.obj
 0001:00018f60       ?GetEncoderClsid@@YAHPB_WPAU_GUID@@@Z 10019f60 f   screenshot.obj
 0001:00019060       ?SCREENSHOT_takeManual@@YAXXZ 1001a060 f   screenshot.obj
 0001:00019470       ?SCREENSHOT_take@@YAXXZ    1001a470 f   screenshot.obj
 0001:000194c0       ?SCROLL_part1@@YAXXZ       1001a4c0 f   scrolling.obj
 0001:00019520       ?SCROLL_part2@@YAXXZ       1001a520 f   scrolling.obj
 0001:00019550       ??BCArchive@@QAE_NXZ       1001a550 f   serialize.obj
 0001:00019560       ?ResetPosition@CArchive@@QAEXXZ 1001a560 f   serialize.obj
 0001:00019570       ?GetData@CArchive@@QAEXPAEI@Z 1001a570 f   serialize.obj
 0001:000195f0       ??5CArchive@@QAEAAV0@AAE@Z 1001a5f0 f   serialize.obj
 0001:00019610       ??5CArchive@@QAEAAV0@AAG@Z 1001a610 f   serialize.obj
 0001:00019630       ??5CArchive@@QAEAAV0@AAI@Z 1001a630 f   serialize.obj
 0001:00019650       ??5CArchive@@QAEAAV0@AA_K@Z 1001a650 f   serialize.obj
 0001:00019670       ??5CArchive@@QAEAAV0@AAC@Z 1001a670 f   serialize.obj
 0001:00019690       ??5CArchive@@QAEAAV0@AAF@Z 1001a690 f   serialize.obj
 0001:000196b0       ??5CArchive@@QAEAAV0@AAH@Z 1001a6b0 f   serialize.obj
 0001:000196d0       ??5CArchive@@QAEAAV0@AA_J@Z 1001a6d0 f   serialize.obj
 0001:000196f0       ??5CArchive@@QAEAAV0@AAPAD@Z 1001a6f0 f   serialize.obj
 0001:00019730       ??5CArchive@@QAEAAV0@AA_N@Z 1001a730 f   serialize.obj
 0001:00019760       ?GetAllData@CArchive@@QAEXAAPAEAAI@Z 1001a760 f   serialize.obj
 0001:000197d0       ??1CArchive@@QAE@XZ        1001a7d0 f   serialize.obj
 0001:00019830       ??5CArchive@@QAEAAV0@AAV?$basic_string@DU?$char_traits@D@std@@V?$allocator@D@2@@std@@@Z 1001a830 f   serialize.obj
 0001:000198b0       ??0CArchive@@QAE@XZ        1001a8b0 f   serialize.obj
 0001:00019910       ?AppendData@CArchive@@QAEXPAEI@Z 1001a910 f   serialize.obj
 0001:00019990       ??6CArchive@@QAEAAV0@E@Z   1001a990 f   serialize.obj
 0001:000199b0       ??6CArchive@@QAEAAV0@G@Z   1001a9b0 f   serialize.obj
 0001:000199d0       ??6CArchive@@QAEAAV0@I@Z   1001a9d0 f   serialize.obj
 0001:000199f0       ??6CArchive@@QAEAAV0@_K@Z  1001a9f0 f   serialize.obj
 0001:00019a10       ??6CArchive@@QAEAAV0@C@Z   1001aa10 f   serialize.obj
 0001:00019a30       ??6CArchive@@QAEAAV0@F@Z   1001aa30 f   serialize.obj
 0001:00019a50       ??6CArchive@@QAEAAV0@H@Z   1001aa50 f   serialize.obj
 0001:00019a70       ??6CArchive@@QAEAAV0@_J@Z  1001aa70 f   serialize.obj
 0001:00019a90       ??6CArchive@@QAEAAV0@ABV?$basic_string@DU?$char_traits@D@std@@V?$allocator@D@2@@std@@@Z 1001aa90 f   serialize.obj
 0001:00019b10       ??6CArchive@@QAEAAV0@PBD@Z 1001ab10 f   serialize.obj
 0001:00019b60       ??6CArchive@@QAEAAV0@_N@Z  1001ab60 f   serialize.obj
 0001:00019b90       ?SetAllData@CArchive@@QAEXPAEI@Z 1001ab90 f   serialize.obj
 0001:00019c40       ?Reset@CArchive@@QAEXXZ    1001ac40 f   serialize.obj
 0001:00019c60       ?SaveToStream@CArchive@@QAEXAAV?$basic_ostream@DU?$char_traits@D@std@@@std@@@Z 1001ac60 f   serialize.obj
 0001:00019ca0       ?LoadFromStream@CArchive@@QAEXAAV?$basic_istream@DU?$char_traits@D@std@@@std@@@Z 1001aca0 f   serialize.obj
 0001:00019d40       ?SaveToFile@CArchive@@QAEXV?$basic_string@DU?$char_traits@D@std@@V?$allocator@D@2@@std@@@Z 1001ad40 f   serialize.obj
 0001:00019ea0       ?LoadFromFile@CArchive@@QAEXV?$basic_string@DU?$char_traits@D@std@@V?$allocator@D@2@@std@@@Z 1001aea0 f   serialize.obj
 0001:0001a020       ??1?$basic_ostream@DU?$char_traits@D@std@@@std@@UAE@XZ 1001b020 f i serialize.obj
 0001:0001a030       ??_E?$basic_ostream@DU?$char_traits@D@std@@@std@@UAEPAXI@Z 1001b030 f i serialize.obj
 0001:0001a030       ??_G?$basic_ostream@DU?$char_traits@D@std@@@std@@UAEPAXI@Z 1001b030 f i serialize.obj
 0001:0001a070       ??G?$_Vector_iterator@EV?$allocator@E@std@@@std@@QBEHABV?$_Vector_const_iterator@EV?$allocator@E@std@@@1@@Z 1001b070 f i serialize.obj
 0001:0001a0a0       ??$fill@PAEE@std@@YAXPAE0ABE@Z 1001b0a0 f i serialize.obj
 0001:0001a0c0       ??$_Unchecked_move_backward@PAEPAE@stdext@@YAPAEPAE00@Z 1001b0c0 f i serialize.obj
 0001:0001a0f0       ??$_Umove@PAE@?$vector@EV?$allocator@E@std@@@std@@IAEPAEPAE00@Z 1001b0f0 f i serialize.obj
 0001:0001a0f0       ??$_Ucopy@PAE@?$vector@EV?$allocator@E@std@@@std@@IAEPAEPAE00@Z 1001b0f0 f i network_protocol_ext.obj
 0001:0001a120       ?_Ufill@?$vector@EV?$allocator@E@std@@@std@@IAEPAEPAEIABE@Z 1001b120 f i serialize.obj
 0001:0001a150       ?_Insert_n@?$vector@EV?$allocator@E@std@@@std@@IAEXV?$_Vector_iterator@EV?$allocator@E@std@@@2@IABE@Z 1001b150 f i serialize.obj
 0001:0001a300       ??1?$basic_ofstream@DU?$char_traits@D@std@@@std@@UAE@XZ 1001b300 f i serialize.obj
 0001:0001a370       ?insert@?$vector@EV?$allocator@E@std@@@std@@QAE?AV?$_Vector_iterator@EV?$allocator@E@std@@@2@V32@ABE@Z 1001b370 f i serialize.obj
 0001:0001a400       ??_D?$basic_ofstream@DU?$char_traits@D@std@@@std@@QAEXXZ 1001b400 f i serialize.obj
 0001:0001a420       ?push_back@?$vector@EV?$allocator@E@std@@@std@@QAEXABE@Z 1001b420 f i serialize.obj
 0001:0001a490       ??_G?$basic_ofstream@DU?$char_traits@D@std@@@std@@UAEPAXI@Z 1001b490 f i serialize.obj
 0001:0001a490       ??_E?$basic_ofstream@DU?$char_traits@D@std@@@std@@UAEPAXI@Z 1001b490 f i serialize.obj
 0001:0001a4d0       ??0sentry@?$basic_ostream@DU?$char_traits@D@std@@@std@@QAE@AAV12@@Z 1001b4d0 f i serialize.obj
 0001:0001a560       ?_Osfx@?$basic_ostream@DU?$char_traits@D@std@@@std@@QAEXXZ 1001b560 f i serialize.obj
 0001:0001a5c0       ??1sentry@?$basic_ostream@DU?$char_traits@D@std@@@std@@QAE@XZ 1001b5c0 f i serialize.obj
 0001:0001a630       ?write@?$basic_ostream@DU?$char_traits@D@std@@@std@@QAEAAV12@PBDH@Z 1001b630 f i serialize.obj
 0001:0001a730       ??0?$basic_ofstream@DU?$char_traits@D@std@@@std@@QAE@XZ 1001b730 f i serialize.obj
 0001:0001a830       ?IsWhitespace@@YA_ND@Z     1001b830 f   utils.obj
 0001:0001a960       ?Read@CDirectory@@QAE_NAAUCDirectoryEntry@@@Z 1001b960 f   utils.obj
 0001:0001a970       ?Close@CDirectory@@QAEXXZ  1001b970 f   utils.obj
 0001:0001a980       ??1CDirectory@@QAE@XZ      1001b980 f   utils.obj
 0001:0001a990       ??0CDirectory@@QAE@XZ      1001b990 f   utils.obj
 0001:0001a9a0       ?_call_func@@YAKKKZZ       1001b9a0 f   utils.obj
 0001:0001a9d0       ?_call_member_func@@YAKKKKZZ 1001b9d0 f   utils.obj
 0001:0001aa00       ?_call_virtual_func@@YAKKKKZZ 1001ba00 f   utils.obj
 0001:0001aa30       ?_get_this@@YAKXZ          1001ba30 f   utils.obj
 0001:0001aa40       ?Open@CDirectory@@QAE_NABV?$basic_string@DU?$char_traits@D@std@@V?$allocator@D@2@@std@@@Z 1001ba40 f   utils.obj
 0001:0001aa50       ?StrToInt@@YAKABV?$basic_string@DU?$char_traits@D@std@@V?$allocator@D@2@@std@@@Z 1001ba50 f   utils.obj
 0001:0001aa80       ?StrToFloat@@YANABV?$basic_string@DU?$char_traits@D@std@@V?$allocator@D@2@@std@@@Z 1001ba80 f   utils.obj
 0001:0001aab0       ?CheckInteger@@YA_NABV?$basic_string@DU?$char_traits@D@std@@V?$allocator@D@2@@std@@@Z 1001bab0 f   utils.obj
 0001:0001ab20       ?ToLower@@YA?AV?$basic_string@DU?$char_traits@D@std@@V?$allocator@D@2@@std@@ABV12@@Z 1001bb20 f   utils.obj
 0001:0001ac50       ?ToUpper@@YA?AV?$basic_string@DU?$char_traits@D@std@@V?$allocator@D@2@@std@@ABV12@@Z 1001bc50 f   utils.obj
 0001:0001ad80       ?Basename@@YA?AV?$basic_string@DU?$char_traits@D@std@@V?$allocator@D@2@@std@@ABV12@@Z 1001bd80 f   utils.obj
 0001:0001ae80       ?Dirname@@YA?AV?$basic_string@DU?$char_traits@D@std@@V?$allocator@D@2@@std@@ABV12@@Z 1001be80 f   utils.obj
 0001:0001af80       ?FixSlashes@@YA?AV?$basic_string@DU?$char_traits@D@std@@V?$allocator@D@2@@std@@ABV12@@Z 1001bf80 f   utils.obj
 0001:0001b0b0       ?TruncateSlashes@@YA?AV?$basic_string@DU?$char_traits@D@std@@V?$allocator@D@2@@std@@ABV12@@Z 1001c0b0 f   utils.obj
 0001:0001b260       ?Format@@YA?AV?$basic_string@DU?$char_traits@D@std@@V?$allocator@D@2@@std@@V12@ZZ 1001c260 f   utils.obj
 0001:0001b360       ?TrimLeft@@YA?AV?$basic_string@DU?$char_traits@D@std@@V?$allocator@D@2@@std@@ABV12@P6A_ND@Z@Z 1001c360 f   utils.obj
 0001:0001b5b0       ?TrimRight@@YA?AV?$basic_string@DU?$char_traits@D@std@@V?$allocator@D@2@@std@@ABV12@P6A_ND@Z@Z 1001c5b0 f   utils.obj
 0001:0001b810       ?Trim@@YA?AV?$basic_string@DU?$char_traits@D@std@@V?$allocator@D@2@@std@@ABV12@P6A_ND@Z@Z 1001c810 f   utils.obj
 0001:0001b890       ?StrToBoolean@@YA_NABV?$basic_string@DU?$char_traits@D@std@@V?$allocator@D@2@@std@@@Z 1001c890 f   utils.obj
 0001:0001b9c0       ?log_format@@YAXPADZZ      1001c9c0 f   utils.obj
 0001:0001bb10       ?log_format2@@YAXPADZZ     1001cb10 f   utils.obj
 0001:0001bc10       ?FileExists@@YA_NABV?$basic_string@DU?$char_traits@D@std@@V?$allocator@D@2@@std@@@Z 1001cc10 f   utils.obj
 0001:0001bd60       ?ParseCommandLine@@YA?AV?$vector@V?$basic_string@DU?$char_traits@D@std@@V?$allocator@D@2@@std@@V?$allocator@V?$basic_string@DU?$char_traits@D@std@@V?$allocator@D@2@@std@@@2@@std@@V?$basic_string@DU?$char_traits@D@std@@V?$allocator@D@2@@2@@Z 1001cd60 f   utils.obj
 0001:0001c1c0       ?Explode@@YA?AV?$vector@V?$basic_string@DU?$char_traits@D@std@@V?$allocator@D@2@@std@@V?$allocator@V?$basic_string@DU?$char_traits@D@std@@V?$allocator@D@2@@std@@@2@@std@@ABV?$basic_string@DU?$char_traits@D@std@@V?$allocator@D@2@@2@0@Z 1001d1c0 f   utils.obj
 0001:0001c300       ?rbegin@?$basic_string@DU?$char_traits@D@std@@V?$allocator@D@2@@std@@QAE?AV?$reverse_iterator@V?$_String_iterator@DU?$char_traits@D@std@@V?$allocator@D@2@@std@@@2@XZ 1001d300 f i utils.obj
 0001:0001c360       ?erase@?$basic_string@DU?$char_traits@D@std@@V?$allocator@D@2@@std@@QAE?AV?$_String_iterator@DU?$char_traits@D@std@@V?$allocator@D@2@@2@V32@@Z 1001d360 f i utils.obj
 0001:0001c3f0       ??$?6U?$char_traits@D@std@@@std@@YAAAV?$basic_ostream@DU?$char_traits@D@std@@@0@AAV10@PBD@Z 1001d3f0 f i utils.obj
 0001:0001c600       ?get_res@@YGXPAH0@Z        1001d600 f   video_init.obj
 0001:0001c910       ?VIDEO_checkVideoMode@@YAXXZ 1001d910 f   video_init.obj
 0001:0001c930       ?AfxGetMainWnd@zxmgr@@YAKXZ 1001d930 f   zxmgr.obj
 0001:0001c950       ?GetWindowLong@GUI@zxmgr@@YGKKK@Z 1001d950 f   zxmgr.obj
 0001:0001c970       ?RepaintWindow@GUI@zxmgr@@YGXK@Z 1001d970 f   zxmgr.obj
 0001:0001c980       ?RepaintWindowIndirect@GUI@zxmgr@@YGXK@Z 1001d980 f   zxmgr.obj
 0001:0001c9a0       ?GetClientRect@GUI@zxmgr@@YAXKPAUtagRECT@@@Z 1001d9a0 f   zxmgr.obj
 0001:0001c9d0       ?GetColor@Font@zxmgr@@YAKK@Z 1001d9d0 f   zxmgr.obj
 0001:0001c9f0       ?DrawText@Font@zxmgr@@YAXKHHPBDKKK@Z 1001d9f0 f   zxmgr.obj
 0001:0001ca20       ?MeasureTextWidth@Font@zxmgr@@YAKKPBD@Z 1001da20 f   zxmgr.obj
 0001:0001ca40       ?WriteChatRaw@zxmgr@@YAXPBD@Z 1001da40 f   zxmgr.obj
 0001:0001ca80       ?WriteChat@zxmgr@@YAXPBDZZ 1001da80 f   zxmgr.obj
 0001:0001cae0       ?WriteChatA@zxmgr@@YAXPBDZZ 1001dae0 f   zxmgr.obj
 0001:0001cb50       ?FillRect@zxmgr@@YAXHHHHK@Z 1001db50 f   zxmgr.obj
 0001:0001cb70       ?UpdateScreen@zxmgr@@YAXXZ 1001db70 f   zxmgr.obj
 0001:0001cb80       ?GetPatchString@zxmgr@@YAPADK@Z 1001db80 f   zxmgr.obj
 0001:0001cba0       ?LockBuffer@zxmgr@@YAXXZ   1001dba0 f   zxmgr.obj
 0001:0001cbb0       ?UnlockBuffer@zxmgr@@YAXXZ 1001dbb0 f   zxmgr.obj
 0001:0001cbc0       ?GlobalReceive@zxmgr@@YAHXZ 1001dbc0 f   zxmgr.obj
 0001:0001cbe0       ?DisplayMouse@zxmgr@@YAXXZ 1001dbe0 f   zxmgr.obj
 0001:0001cbf0       ?GetHWND@zxmgr@@YAPAUHWND__@@XZ 1001dbf0 f   zxmgr.obj
 0001:0001cc20       ?DoMessageLoop@zxmgr@@YAXXZ 1001dc20 f   zxmgr.obj
 0001:0001cc80       ?LockHighSurface@zxmgr@@YAXXZ 1001dc80 f   zxmgr.obj
 0001:0001cc90       ?UnlockHighSurface@zxmgr@@YAXXZ 1001dc90 f   zxmgr.obj
 0001:0001cca0       ?AfxAbort@zxmgr@@YAXXZ     1001dca0 f   zxmgr.obj
 0001:0001ccb0       ?sync@?$basic_streambuf@DU?$char_traits@D@std@@@std@@MAEHXZ 1001dcb0 f i config.obj
 0001:0001ccb0       ?showmanyc@?$basic_streambuf@DU?$char_traits@D@std@@@std@@MAEHXZ 1001dcb0 f i config.obj
 0001:0001ccb0       ?PopulateWindow@CWindow@GUI@zxmgr@@SAKKPAUtagRECT@@@Z 1001dcb0 f i zxmgr_gui.obj
 0001:0001ccb0       ?OnMessage@CWindow@GUI@zxmgr@@SAKKKK@Z 1001dcb0 f i zxmgr_gui.obj
 0001:0001ccc0       ?ShowWindow@CWindow@GUI@zxmgr@@QAEXXZ 1001dcc0 f   zxmgr_gui.obj
 0001:0001cce0       ?InitializeWindow@CWindow@GUI@zxmgr@@QAEXKKKKKK@Z 1001dce0 f   zxmgr_gui.obj
 0001:0001cd40       ?GetWinsockErrorString@happyhttp@@YAPBDH@Z 1001dd40 f   happyhttp.obj
 0001:0001cfe0       ?atoaddr@happyhttp@@YAPAUin_addr@@PBD@Z 1001dfe0 f   happyhttp.obj
 0001:0001d020       ??0Wobbly@happyhttp@@QAA@PBDZZ 1001e020 f   happyhttp.obj
 0001:0001d050       ?setcallbacks@Connection@happyhttp@@QAEXP6AXPBVResponse@2@PAX@ZP6AX01PBEH@Z21@Z 1001e050 f   happyhttp.obj
 0001:0001d070       ?getstatus@Response@happyhttp@@QBEHXZ 1001e070 f   happyhttp.obj
 0001:0001d080       ?ProcessDataChunked@Response@happyhttp@@AAEHPBEH@Z 1001e080 f   happyhttp.obj
 0001:0001d0c0       ?Finish@Response@happyhttp@@AAEXXZ 1001e0c0 f   happyhttp.obj
 0001:0001d0e0       ?BailOnSocketError@happyhttp@@YAXPBD@Z 1001e0e0 f   happyhttp.obj
 0001:0001d140       ?datawaiting@happyhttp@@YA_NH@Z 1001e140 f   happyhttp.obj
 0001:0001d1a0       ?notifyconnectionclosed@Response@happyhttp@@IAEXXZ 1001e1a0 f   happyhttp.obj
 0001:0001d210       ?ProcessDataNonChunked@Response@happyhttp@@AAEHPBEH@Z 1001e210 f   happyhttp.obj
 0001:0001d280       ?ProcessTrailerLine@Response@happyhttp@@AAEXABV?$basic_string@DU?$char_traits@D@std@@V?$allocator@D@2@@std@@@Z 1001e280 f   happyhttp.obj
 0001:0001d2b0       ?connect@Connection@happyhttp@@QAEXXZ 1001e2b0 f   happyhttp.obj
 0001:0001d3d0       ?send@Connection@happyhttp@@QAEXPBEH@Z 1001e3d0 f   happyhttp.obj
 0001:0001d420       ?getreason@Response@happyhttp@@QBEPBDXZ 1001e420 f   happyhttp.obj
 0001:0001d430       ?ProcessChunkLenLine@Response@happyhttp@@AAEXABV?$basic_string@DU?$char_traits@D@std@@V?$allocator@D@2@@std@@@Z 1001e430 f   happyhttp.obj
 0001:0001d480       ?ProcessStatusLine@Response@happyhttp@@AAEXABV?$basic_string@DU?$char_traits@D@std@@V?$allocator@D@2@@std@@@Z 1001e480 f   happyhttp.obj
 0001:0001d720       ?getheader@Response@happyhttp@@QBEPBDPBD@Z 1001e720 f   happyhttp.obj
 0001:0001d940       ?CheckClose@Response@happyhttp@@AAE_NXZ 1001e940 f   happyhttp.obj
 0001:0001d980       ?BeginBody@Response@happyhttp@@AAEXXZ 1001e980 f   happyhttp.obj
 0001:0001dab0       ??0Connection@happyhttp@@QAE@PBDH@Z 1001eab0 f   happyhttp.obj
 0001:0001db50       ?FlushHeader@Response@happyhttp@@AAEXXZ 1001eb50 f   happyhttp.obj
 0001:0001dcd0       ?ProcessHeaderLine@Response@happyhttp@@AAEXABV?$basic_string@DU?$char_traits@D@std@@V?$allocator@D@2@@std@@@Z 1001ecd0 f   happyhttp.obj
 0001:0001ddb0       ??0Response@happyhttp@@IAE@PBDAAVConnection@1@@Z 1001edb0 f   happyhttp.obj
 0001:0001dec0       ?pump@Response@happyhttp@@IAEHPBEH@Z 1001eec0 f   happyhttp.obj
 0001:0001e010       ?putheader@Connection@happyhttp@@QAEXPBD0@Z 1001f010 f   happyhttp.obj
 0001:0001e1d0       ?putheader@Connection@happyhttp@@QAEXPBDH@Z 1001f1d0 f   happyhttp.obj
 0001:0001e220       ?endheaders@Connection@happyhttp@@QAEXXZ 1001f220 f   happyhttp.obj
 0001:0001e450       ?close@Connection@happyhttp@@QAEXXZ 1001f450 f   happyhttp.obj
 0001:0001e500       ??1Connection@happyhttp@@QAE@XZ 1001f500 f   happyhttp.obj
 0001:0001e5b0       ?putrequest@Connection@happyhttp@@QAEXPBD0@Z 1001f5b0 f   happyhttp.obj
 0001:0001e780       ?pump@Connection@happyhttp@@QAEXXZ 1001f780 f   happyhttp.obj
 0001:0001e8c0       ?request@Connection@happyhttp@@QAEXPBD0QAPBDPBEH@Z 1001f8c0 f   happyhttp.obj
 0001:0001e970       ??8const_iterator@?$_Tree@V?$_Tmap_traits@PBDV?$basic_string@DU?$char_traits@D@std@@V?$allocator@D@2@@std@@U?$less@PBD@2@V?$allocator@U?$pair@QBDV?$basic_string@DU?$char_traits@D@std@@V?$allocator@D@2@@std@@@std@@@2@$0A@@std@@@std@@QBE_NABV012@@Z 1001f970 f i debug.obj
 0001:0001e970       ??8const_iterator@?$_Tree@V?$_Tmap_traits@KV?$basic_string@DU?$char_traits@D@std@@V?$allocator@D@2@@std@@U?$less@K@2@V?$allocator@U?$pair@$$CBKV?$basic_string@DU?$char_traits@D@std@@V?$allocator@D@2@@std@@@std@@@2@$0A@@std@@@std@@QBE_NABV012@@Z 1001f970 f i debug.obj
 0001:0001e970       ??8const_iterator@?$_Tree@V?$_Tmap_traits@PAXPAXU?$less@PAX@std@@V?$allocator@U?$pair@QAXPAX@std@@@2@$0A@@std@@@std@@QBE_NABV012@@Z 1001f970 f i class_extend.obj
 0001:0001e970       ??8const_iterator@?$_Tree@V?$_Tmap_traits@V?$basic_string@DU?$char_traits@D@std@@V?$allocator@D@2@@std@@V12@U?$less@V?$basic_string@DU?$char_traits@D@std@@V?$allocator@D@2@@std@@@2@V?$allocator@U?$pair@$$CBV?$basic_string@DU?$char_traits@D@std@@V?$allocator@D@2@@std@@V12@@std@@@2@$0A@@std@@@std@@QBE_NABV012@@Z 1001f970 f i happyhttp.obj
 0001:0001e9a0       ?_Rrotate@?$_Tree@V?$_Tmap_traits@V?$basic_string@DU?$char_traits@D@std@@V?$allocator@D@2@@std@@V12@U?$less@V?$basic_string@DU?$char_traits@D@std@@V?$allocator@D@2@@std@@@2@V?$allocator@U?$pair@$$CBV?$basic_string@DU?$char_traits@D@std@@V?$allocator@D@2@@std@@V12@@std@@@2@$0A@@std@@@std@@IAEXPAU_Node@?$_Tree_nod@V?$_Tmap_traits@V?$basic_string@DU?$char_traits@D@std@@V?$allocator@D@2@@std@@V12@U?$less@V?$basic_string@DU?$char_traits@D@std@@V?$allocator@D@2@@std@@@2@V?$allocator@U?$pair@$$CBV?$basic_string@DU?$char_traits@D@std@@V?$allocator@D@2@@std@@V12@@std@@@2@$0A@@std@@@2@@Z 1001f9a0 f i happyhttp.obj
 0001:0001ea00       ?_Max@?$_Tree@V?$_Tmap_traits@V?$basic_string@DU?$char_traits@D@std@@V?$allocator@D@2@@std@@V12@U?$less@V?$basic_string@DU?$char_traits@D@std@@V?$allocator@D@2@@std@@@2@V?$allocator@U?$pair@$$CBV?$basic_string@DU?$char_traits@D@std@@V?$allocator@D@2@@std@@V12@@std@@@2@$0A@@std@@@std@@KAPAU_Node@?$_Tree_nod@V?$_Tmap_traits@V?$basic_string@DU?$char_traits@D@std@@V?$allocator@D@2@@std@@V12@U?$less@V?$basic_string@DU?$char_traits@D@std@@V?$allocator@D@2@@std@@@2@V?$allocator@U?$pair@$$CBV?$basic_string@DU?$char_traits@D@std@@V?$allocator@D@2@@std@@V12@@std@@@2@$0A@@std@@@2@PAU342@@Z 1001fa00 f i happyhttp.obj
 0001:0001ea20       ?_Min@?$_Tree@V?$_Tmap_traits@V?$basic_string@DU?$char_traits@D@std@@V?$allocator@D@2@@std@@V12@U?$less@V?$basic_string@DU?$char_traits@D@std@@V?$allocator@D@2@@std@@@2@V?$allocator@U?$pair@$$CBV?$basic_string@DU?$char_traits@D@std@@V?$allocator@D@2@@std@@V12@@std@@@2@$0A@@std@@@std@@KAPAU_Node@?$_Tree_nod@V?$_Tmap_traits@V?$basic_string@DU?$char_traits@D@std@@V?$allocator@D@2@@std@@V12@U?$less@V?$basic_string@DU?$char_traits@D@std@@V?$allocator@D@2@@std@@@2@V?$allocator@U?$pair@$$CBV?$basic_string@DU?$char_traits@D@std@@V?$allocator@D@2@@std@@V12@@std@@@2@$0A@@std@@@2@PAU342@@Z 1001fa20 f i happyhttp.obj
 0001:0001ea40       ?_Dec@const_iterator@?$_Tree@V?$_Tmap_traits@V?$basic_string@DU?$char_traits@D@std@@V?$allocator@D@2@@std@@V12@U?$less@V?$basic_string@DU?$char_traits@D@std@@V?$allocator@D@2@@std@@@2@V?$allocator@U?$pair@$$CBV?$basic_string@DU?$char_traits@D@std@@V?$allocator@D@2@@std@@V12@@std@@@2@$0A@@std@@@std@@QAEXXZ 1001fa40 f i happyhttp.obj
 0001:0001ead0       ?_Inc@const_iterator@?$_Tree@V?$_Tmap_traits@V?$basic_string@DU?$char_traits@D@std@@V?$allocator@D@2@@std@@V12@U?$less@V?$basic_string@DU?$char_traits@D@std@@V?$allocator@D@2@@std@@@2@V?$allocator@U?$pair@$$CBV?$basic_string@DU?$char_traits@D@std@@V?$allocator@D@2@@std@@V12@@std@@@2@$0A@@std@@@std@@QAEXXZ 1001fad0 f i happyhttp.obj
 0001:0001eb40       ??$_Transform@PADPADP6AHH@ZUforward_iterator_tag@std@@@std@@YAPADPAD00P6AHH@ZUforward_iterator_tag@0@U_Range_checked_iterator_tag@0@@Z 1001fb40 f i happyhttp.obj
 0001:0001eb80       ?_Lrotate@?$_Tree@V?$_Tmap_traits@V?$basic_string@DU?$char_traits@D@std@@V?$allocator@D@2@@std@@V12@U?$less@V?$basic_string@DU?$char_traits@D@std@@V?$allocator@D@2@@std@@@2@V?$allocator@U?$pair@$$CBV?$basic_string@DU?$char_traits@D@std@@V?$allocator@D@2@@std@@V12@@std@@@2@$0A@@std@@@std@@IAEXPAU_Node@?$_Tree_nod@V?$_Tmap_traits@V?$basic_string@DU?$char_traits@D@std@@V?$allocator@D@2@@std@@V12@U?$less@V?$basic_string@DU?$char_traits@D@std@@V?$allocator@D@2@@std@@@2@V?$allocator@U?$pair@$$CBV?$basic_string@DU?$char_traits@D@std@@V?$allocator@D@2@@std@@V12@@std@@@2@$0A@@std@@@2@@Z 1001fb80 f i happyhttp.obj
 0001:0001ebd0       ?pop_front@?$deque@PAVResponse@happyhttp@@V?$allocator@PAVResponse@happyhttp@@@std@@@std@@QAEXXZ 1001fbd0 f i happyhttp.obj
 0001:0001ec10       ?_Tidy@?$deque@PAVResponse@happyhttp@@V?$allocator@PAVResponse@happyhttp@@@std@@@std@@IAEXXZ 1001fc10 f i happyhttp.obj
 0001:0001ec80       ?_Buynode@?$_Tree@V?$_Tmap_traits@V?$basic_string@DU?$char_traits@D@std@@V?$allocator@D@2@@std@@V12@U?$less@V?$basic_string@DU?$char_traits@D@std@@V?$allocator@D@2@@std@@@2@V?$allocator@U?$pair@$$CBV?$basic_string@DU?$char_traits@D@std@@V?$allocator@D@2@@std@@V12@@std@@@2@$0A@@std@@@std@@IAEPAU_Node@?$_Tree_nod@V?$_Tmap_traits@V?$basic_string@DU?$char_traits@D@std@@V?$allocator@D@2@@std@@V12@U?$less@V?$basic_string@DU?$char_traits@D@std@@V?$allocator@D@2@@std@@@2@V?$allocator@U?$pair@$$CBV?$basic_string@DU?$char_traits@D@std@@V?$allocator@D@2@@std@@V12@@std@@@2@$0A@@std@@@2@XZ 1001fc80 f i happyhttp.obj
 0001:0001ecc0       ??1?$deque@PAVResponse@happyhttp@@V?$allocator@PAVResponse@happyhttp@@@std@@@std@@QAE@XZ 1001fcc0 f i happyhttp.obj
 0001:0001ecd0       ??1?$pair@$$CBV?$basic_string@DU?$char_traits@D@std@@V?$allocator@D@2@@std@@V12@@std@@QAE@XZ 1001fcd0 f i happyhttp.obj
 0001:0001ed20       ??R?$less@V?$basic_string@DU?$char_traits@D@std@@V?$allocator@D@2@@std@@@std@@QBE_NABV?$basic_string@DU?$char_traits@D@std@@V?$allocator@D@2@@1@0@Z 1001fd20 f i happyhttp.obj
 0001:0001ed60       ?_Lbound@?$_Tree@V?$_Tmap_traits@V?$basic_string@DU?$char_traits@D@std@@V?$allocator@D@2@@std@@V12@U?$less@V?$basic_string@DU?$char_traits@D@std@@V?$allocator@D@2@@std@@@2@V?$allocator@U?$pair@$$CBV?$basic_string@DU?$char_traits@D@std@@V?$allocator@D@2@@std@@V12@@std@@@2@$0A@@std@@@std@@IBEPAU_Node@?$_Tree_nod@V?$_Tmap_traits@V?$basic_string@DU?$char_traits@D@std@@V?$allocator@D@2@@std@@V12@U?$less@V?$basic_string@DU?$char_traits@D@std@@V?$allocator@D@2@@std@@@2@V?$allocator@U?$pair@$$CBV?$basic_string@DU?$char_traits@D@std@@V?$allocator@D@2@@std@@V12@@std@@@2@$0A@@std@@@2@ABV?$basic_string@DU?$char_traits@D@std@@V?$allocator@D@2@@2@@Z 1001fd60 f i happyhttp.obj
 0001:0001edf0       ??$_Transform@PADV?$_String_iterator@DU?$char_traits@D@std@@V?$allocator@D@2@@std@@P6AHH@Z@std@@YA?AV?$_String_iterator@DU?$char_traits@D@std@@V?$allocator@D@2@@0@PAD0V10@P6AHH@ZUrandom_access_iterator_tag@0@U_Range_checked_iterator_tag@0@@Z 1001fdf0 f i happyhttp.obj
 0001:0001ee60       ?front@?$deque@PAVResponse@happyhttp@@V?$allocator@PAVResponse@happyhttp@@@std@@@std@@QAEAAPAVResponse@happyhttp@@XZ 1001fe60 f i happyhttp.obj
 0001:0001eeb0       ?find@?$_Tree@V?$_Tmap_traits@V?$basic_string@DU?$char_traits@D@std@@V?$allocator@D@2@@std@@V12@U?$less@V?$basic_string@DU?$char_traits@D@std@@V?$allocator@D@2@@std@@@2@V?$allocator@U?$pair@$$CBV?$basic_string@DU?$char_traits@D@std@@V?$allocator@D@2@@std@@V12@@std@@@2@$0A@@std@@@std@@QBE?AVconst_iterator@12@ABV?$basic_string@DU?$char_traits@D@std@@V?$allocator@D@2@@2@@Z 1001feb0 f i happyhttp.obj
 0001:0001ef30       ??0?$pair@$$CBV?$basic_string@DU?$char_traits@D@std@@V?$allocator@D@2@@std@@V12@@std@@QAE@ABV?$basic_string@DU?$char_traits@D@std@@V?$allocator@D@2@@1@0@Z 1001ff30 f i happyhttp.obj
 0001:0001efb0       ??0?$pair@$$CBV?$basic_string@DU?$char_traits@D@std@@V?$allocator@D@2@@std@@V12@@std@@QAE@ABU01@@Z 1001ffb0 f i happyhttp.obj
 0001:0001f030       ?_Xlen@?$deque@PAVResponse@happyhttp@@V?$allocator@PAVResponse@happyhttp@@@std@@@std@@KAXXZ 10020030 f i happyhttp.obj
 0001:0001f0b0       ?_Growmap@?$deque@PAVResponse@happyhttp@@V?$allocator@PAVResponse@happyhttp@@@std@@@std@@IAEXI@Z 100200b0 f i happyhttp.obj
 0001:0001f210       ?erase@?$_Tree@V?$_Tmap_traits@V?$basic_string@DU?$char_traits@D@std@@V?$allocator@D@2@@std@@V12@U?$less@V?$basic_string@DU?$char_traits@D@std@@V?$allocator@D@2@@std@@@2@V?$allocator@U?$pair@$$CBV?$basic_string@DU?$char_traits@D@std@@V?$allocator@D@2@@std@@V12@@std@@@2@$0A@@std@@@std@@QAE?AViterator@12@V312@@Z 10020210 f i happyhttp.obj
 0001:0001f520       ?_Buynode@?$_Tree@V?$_Tmap_traits@V?$basic_string@DU?$char_traits@D@std@@V?$allocator@D@2@@std@@V12@U?$less@V?$basic_string@DU?$char_traits@D@std@@V?$allocator@D@2@@std@@@2@V?$allocator@U?$pair@$$CBV?$basic_string@DU?$char_traits@D@std@@V?$allocator@D@2@@std@@V12@@std@@@2@$0A@@std@@@std@@IAEPAU_Node@?$_Tree_nod@V?$_Tmap_traits@V?$basic_string@DU?$char_traits@D@std@@V?$allocator@D@2@@std@@V12@U?$less@V?$basic_string@DU?$char_traits@D@std@@V?$allocator@D@2@@std@@@2@V?$allocator@U?$pair@$$CBV?$basic_string@DU?$char_traits@D@std@@V?$allocator@D@2@@std@@V12@@std@@@2@$0A@@std@@@2@PAU342@00ABU?$pair@$$CBV?$basic_string@DU?$char_traits@D@std@@V?$allocator@D@2@@std@@V12@@2@D@Z 10020520 f i happyhttp.obj
 0001:0001f5c0       ?_Erase@?$_Tree@V?$_Tmap_traits@V?$basic_string@DU?$char_traits@D@std@@V?$allocator@D@2@@std@@V12@U?$less@V?$basic_string@DU?$char_traits@D@std@@V?$allocator@D@2@@std@@@2@V?$allocator@U?$pair@$$CBV?$basic_string@DU?$char_traits@D@std@@V?$allocator@D@2@@std@@V12@@std@@@2@$0A@@std@@@std@@IAEXPAU_Node@?$_Tree_nod@V?$_Tmap_traits@V?$basic_string@DU?$char_traits@D@std@@V?$allocator@D@2@@std@@V12@U?$less@V?$basic_string@DU?$char_traits@D@std@@V?$allocator@D@2@@std@@@2@V?$allocator@U?$pair@$$CBV?$basic_string@DU?$char_traits@D@std@@V?$allocator@D@2@@std@@V12@@std@@@2@$0A@@std@@@2@@Z 100205c0 f i happyhttp.obj
 0001:0001f640       ?push_back@?$deque@PAVResponse@happyhttp@@V?$allocator@PAVResponse@happyhttp@@@std@@@std@@QAEXABQAVResponse@happyhttp@@@Z 10020640 f i happyhttp.obj
 0001:0001f6c0       ?_Insert@?$_Tree@V?$_Tmap_traits@V?$basic_string@DU?$char_traits@D@std@@V?$allocator@D@2@@std@@V12@U?$less@V?$basic_string@DU?$char_traits@D@std@@V?$allocator@D@2@@std@@@2@V?$allocator@U?$pair@$$CBV?$basic_string@DU?$char_traits@D@std@@V?$allocator@D@2@@std@@V12@@std@@@2@$0A@@std@@@std@@IAE?AViterator@12@_NPAU_Node@?$_Tree_nod@V?$_Tmap_traits@V?$basic_string@DU?$char_traits@D@std@@V?$allocator@D@2@@std@@V12@U?$less@V?$basic_string@DU?$char_traits@D@std@@V?$allocator@D@2@@std@@@2@V?$allocator@U?$pair@$$CBV?$basic_string@DU?$char_traits@D@std@@V?$allocator@D@2@@std@@V12@@std@@@2@$0A@@std@@@2@ABU?$pair@$$CBV?$basic_string@DU?$char_traits@D@std@@V?$allocator@D@2@@std@@V12@@2@@Z 100206c0 f i happyhttp.obj
 0001:0001f8c0       ?insert@?$_Tree@V?$_Tmap_traits@V?$basic_string@DU?$char_traits@D@std@@V?$allocator@D@2@@std@@V12@U?$less@V?$basic_string@DU?$char_traits@D@std@@V?$allocator@D@2@@std@@@2@V?$allocator@U?$pair@$$CBV?$basic_string@DU?$char_traits@D@std@@V?$allocator@D@2@@std@@V12@@std@@@2@$0A@@std@@@std@@QAE?AU?$pair@Viterator@?$_Tree@V?$_Tmap_traits@V?$basic_string@DU?$char_traits@D@std@@V?$allocator@D@2@@std@@V12@U?$less@V?$basic_string@DU?$char_traits@D@std@@V?$allocator@D@2@@std@@@2@V?$allocator@U?$pair@$$CBV?$basic_string@DU?$char_traits@D@std@@V?$allocator@D@2@@std@@V12@@std@@@2@$0A@@std@@@std@@_N@2@ABU?$pair@$$CBV?$basic_string@DU?$char_traits@D@std@@V?$allocator@D@2@@std@@V12@@2@@Z 100208c0 f i happyhttp.obj
 0001:0001f9f0       ?erase@?$_Tree@V?$_Tmap_traits@V?$basic_string@DU?$char_traits@D@std@@V?$allocator@D@2@@std@@V12@U?$less@V?$basic_string@DU?$char_traits@D@std@@V?$allocator@D@2@@std@@@2@V?$allocator@U?$pair@$$CBV?$basic_string@DU?$char_traits@D@std@@V?$allocator@D@2@@std@@V12@@std@@@2@$0A@@std@@@std@@QAE?AViterator@12@V312@0@Z 100209f0 f i happyhttp.obj
 0001:0001fac0       ?insert@?$_Tree@V?$_Tmap_traits@V?$basic_string@DU?$char_traits@D@std@@V?$allocator@D@2@@std@@V12@U?$less@V?$basic_string@DU?$char_traits@D@std@@V?$allocator@D@2@@std@@@2@V?$allocator@U?$pair@$$CBV?$basic_string@DU?$char_traits@D@std@@V?$allocator@D@2@@std@@V12@@std@@@2@$0A@@std@@@std@@QAE?AViterator@12@V312@ABU?$pair@$$CBV?$basic_string@DU?$char_traits@D@std@@V?$allocator@D@2@@std@@V12@@2@@Z 10020ac0 f i happyhttp.obj
 0001:0001fcc0       ??A?$map@V?$basic_string@DU?$char_traits@D@std@@V?$allocator@D@2@@std@@V12@U?$less@V?$basic_string@DU?$char_traits@D@std@@V?$allocator@D@2@@std@@@2@V?$allocator@U?$pair@$$CBV?$basic_string@DU?$char_traits@D@std@@V?$allocator@D@2@@std@@V12@@std@@@2@@std@@QAEAAV?$basic_string@DU?$char_traits@D@std@@V?$allocator@D@2@@1@ABV21@@Z 10020cc0 f i happyhttp.obj
 0001:0001fe10       ??1Response@happyhttp@@QAE@XZ 10020e10 f i happyhttp.obj
 0001:0001ff40       ?send_msg@@YAHIHPAEIH@Z    10020f40 f   hat2.obj
 0001:00020140       ??1LodePNGState@@UAE@XZ    10021140 f i lodepng.obj
 0001:00020150       ??_ELodePNGState@@UAEPAXI@Z 10021150 f i lodepng.obj
 0001:00020150       ??_GLodePNGState@@UAEPAXI@Z 10021150 f i lodepng.obj
 0001:000205b0       ?lodepng_read32bitInt@@YAIPBE@Z 100215b0 f   lodepng.obj
 0001:00020650       ?lodepng_load_file@@YAIPAPAEPAIPBD@Z 10021650 f   lodepng.obj
 0001:000206f0       ?lodepng_save_file@@YAIPBEIPBD@Z 100216f0 f   lodepng.obj
 0001:00020e10       ?lodepng_huffman_code_lengths@@YAIPAIPBIII@Z 10021e10 f   lodepng.obj
 0001:00021fd0       ?lodepng_inflate@@YAIPAPAEPAIPBEIPBULodePNGDecompressSettings@@@Z 10022fd0 f   lodepng.obj
 0001:00023990       ?lodepng_deflate@@YAIPAPAEPAIPBEIPBULodePNGCompressSettings@@@Z 10024990 f   lodepng.obj
 0001:00023ac0       ?lodepng_zlib_decompress@@YAIPAPAEPAIPBEIPBULodePNGDecompressSettings@@@Z 10024ac0 f   lodepng.obj
 0001:00023bc0       ?lodepng_zlib_compress@@YAIPAPAEPAIPBEIPBULodePNGCompressSettings@@@Z 10024bc0 f   lodepng.obj
 0001:00023dd0       ?lodepng_compress_settings_init@@YAXPAULodePNGCompressSettings@@@Z 10024dd0 f   lodepng.obj
 0001:00023e10       ?lodepng_decompress_settings_init@@YAXPAULodePNGDecompressSettings@@@Z 10024e10 f   lodepng.obj
 0001:00023e30       ?lodepng_crc32@@YAIPBEI@Z  10024e30 f   lodepng.obj
 0001:00023f40       ?lodepng_chunk_length@@YAIPBE@Z 10024f40 f   lodepng.obj
 0001:00023f60       ?lodepng_chunk_type@@YAXQADPBE@Z 10024f60 f   lodepng.obj
 0001:00023f90       ?lodepng_chunk_type_equals@@YAEPBEPBD@Z 10024f90 f   lodepng.obj
 0001:00023ff0       ?lodepng_chunk_ancillary@@YAEPBE@Z 10024ff0 f   lodepng.obj
 0001:00024000       ?lodepng_chunk_private@@YAEPBE@Z 10025000 f   lodepng.obj
 0001:00024010       ?lodepng_chunk_safetocopy@@YAEPBE@Z 10025010 f   lodepng.obj
 0001:00024020       ?lodepng_chunk_data@@YAPAEPAE@Z 10025020 f   lodepng.obj
 0001:00024030       ?lodepng_chunk_data_const@@YAPBEPBE@Z 10025030 f   lodepng.obj
 0001:00024040       ?lodepng_chunk_check_crc@@YAIPBE@Z 10025040 f   lodepng.obj
 0001:000240a0       ?lodepng_chunk_generate_crc@@YAXPAE@Z 100250a0 f   lodepng.obj
 0001:00024100       ?lodepng_chunk_next@@YAPAEPAE@Z 10025100 f   lodepng.obj
 0001:00024130       ?lodepng_chunk_next_const@@YAPBEPBE@Z 10025130 f   lodepng.obj
 0001:00024160       ?lodepng_chunk_append@@YAIPAPAEPAIPBE@Z 10025160 f   lodepng.obj
 0001:000241f0       ?lodepng_chunk_create@@YAIPAPAEPAIIPBDPBE@Z 100251f0 f   lodepng.obj
 0001:000243d0       ?lodepng_color_mode_init@@YAXPAULodePNGColorMode@@@Z 100253d0 f   lodepng.obj
 0001:00024470       ?lodepng_palette_clear@@YAXPAULodePNGColorMode@@@Z 10025470 f   lodepng.obj
 0001:000244a0       ?lodepng_palette_add@@YAIPAULodePNGColorMode@@EEEE@Z 100254a0 f   lodepng.obj
 0001:00024510       ?lodepng_get_bpp@@YAIPBULodePNGColorMode@@@Z 10025510 f   lodepng.obj
 0001:00024530       ?lodepng_get_channels@@YAIPBULodePNGColorMode@@@Z 10025530 f   lodepng.obj
 0001:00024580       ?lodepng_is_greyscale_type@@YAIPBULodePNGColorMode@@@Z 10025580 f   lodepng.obj
 0001:000245a0       ?lodepng_is_alpha_type@@YAIPBULodePNGColorMode@@@Z 100255a0 f   lodepng.obj
 0001:000245b0       ?lodepng_is_palette_type@@YAIPBULodePNGColorMode@@@Z 100255b0 f   lodepng.obj
 0001:000245c0       ?lodepng_has_palette_alpha@@YAIPBULodePNGColorMode@@@Z 100255c0 f   lodepng.obj
 0001:000245f0       ?lodepng_can_have_alpha@@YAIPBULodePNGColorMode@@@Z 100255f0 f   lodepng.obj
 0001:00024620       ?lodepng_get_raw_size@@YAIIIPBULodePNGColorMode@@@Z 10025620 f   lodepng.obj
 0001:00024650       ?lodepng_get_raw_size_lct@@YAIIIW4LodePNGColorType@@I@Z 10025650 f   lodepng.obj
 0001:00024820       ?lodepng_clear_text@@YAXPAULodePNGInfo@@@Z 10025820 f   lodepng.obj
 0001:00024830       ?lodepng_add_text@@YAIPAULodePNGInfo@@PBD1@Z 10025830 f   lodepng.obj
 0001:000249d0       ?lodepng_clear_itext@@YAXPAULodePNGInfo@@@Z 100259d0 f   lodepng.obj
 0001:000249e0       ?lodepng_add_itext@@YAIPAULodePNGInfo@@PBD111@Z 100259e0 f   lodepng.obj
 0001:00024b30       ?lodepng_info_init@@YAXPAULodePNGInfo@@@Z 10025b30 f   lodepng.obj
 0001:00024bb0       ?lodepng_info_swap@@YAXPAULodePNGInfo@@0@Z 10025bb0 f   lodepng.obj
 0001:00025850       ?lodepng_convert@@YAIPAEPBEPAULodePNGColorMode@@PBU1@II@Z 10026850 f   lodepng.obj
 0001:00025ae0       ?lodepng_color_profile_init@@YAXPAULodePNGColorProfile@@@Z 10026ae0 f   lodepng.obj
 0001:00025b50       ?lodepng_get_color_profile@@YAIPAULodePNGColorProfile@@PBEIIPBULodePNGColorMode@@@Z 10026b50 f   lodepng.obj
 0001:000271b0       ?lodepng_decoder_settings_init@@YAXPAULodePNGDecoderSettings@@@Z 100281b0 f   lodepng.obj
 0001:000295a0       ?lodepng_encoder_settings_init@@YAXPAULodePNGEncoderSettings@@@Z 1002a5a0 f   lodepng.obj
 0001:000295f0       ?lodepng_error_text@@YAPBDI@Z 1002a5f0 f   lodepng.obj
 0001:00029970       ?lodepng_color_mode_cleanup@@YAXPAULodePNGColorMode@@@Z 1002a970 f   lodepng.obj
 0001:000299a0       ?lodepng_color_mode_copy@@YAIPAULodePNGColorMode@@PBU1@@Z 1002a9a0 f   lodepng.obj
 0001:00029ae0       ?lodepng_info_cleanup@@YAXPAULodePNGInfo@@@Z 1002aae0 f   lodepng.obj
 0001:00029b30       ?lodepng_info_copy@@YAIPAULodePNGInfo@@PBU1@@Z 1002ab30 f   lodepng.obj
 0001:00029bd0       ?lodepng_auto_choose_color@@YAIPAULodePNGColorMode@@PBEIIPBU1@@Z 1002abd0 f   lodepng.obj
 0001:00029e50       ?lodepng_inspect@@YAIPAI0PAULodePNGState@@PBEI@Z 1002ae50 f   lodepng.obj
 0001:0002a6b0       ?lodepng_decode@@YAIPAPAEPAI1PAULodePNGState@@PBEI@Z 1002b6b0 f   lodepng.obj
 0001:0002a7f0       ?lodepng_state_init@@YAXPAULodePNGState@@@Z 1002b7f0 f   lodepng.obj
 0001:0002a890       ?lodepng_state_cleanup@@YAXPAULodePNGState@@@Z 1002b890 f   lodepng.obj
 0001:0002a8d0       ?lodepng_state_copy@@YAXPAULodePNGState@@PBU1@@Z 1002b8d0 f   lodepng.obj
 0001:0002a9b0       ?lodepng_encode@@YAIPAPAEPAIPBEIIPAULodePNGState@@@Z 1002b9b0 f   lodepng.obj
 0001:0002af60       ?lodepng_encode_memory@@YAIPAPAEPAIPBEIIW4LodePNGColorType@@I@Z 1002bf60 f   lodepng.obj
 0001:0002b060       ?lodepng_encode32@@YAIPAPAEPAIPBEII@Z 1002c060 f   lodepng.obj
 0001:0002b090       ?lodepng_encode24@@YAIPAPAEPAIPBEII@Z 1002c090 f   lodepng.obj
 0001:0002b0c0       ?lodepng_encode_file@@YAIPBDPBEIIW4LodePNGColorType@@I@Z 1002c0c0 f   lodepng.obj
 0001:0002b160       ?lodepng_encode32_file@@YAIPBDPBEII@Z 1002c160 f   lodepng.obj
 0001:0002b190       ?lodepng_encode24_file@@YAIPBDPBEII@Z 1002c190 f   lodepng.obj
 0001:0002b1c0       ??0State@lodepng@@QAE@XZ   1002c1c0 f   lodepng.obj
 0001:0002b1e0       ??0State@lodepng@@QAE@ABV01@@Z 1002c1e0 f   lodepng.obj
 0001:0002b210       ??1State@lodepng@@UAE@XZ   1002c210 f   lodepng.obj
 0001:0002b250       ??4State@lodepng@@QAEAAV01@ABV01@@Z 1002c250 f   lodepng.obj
 0001:0002b270       ?lodepng_decode_memory@@YAIPAPAEPAI1PBEIW4LodePNGColorType@@I@Z 1002c270 f   lodepng.obj
 0001:0002b360       ?lodepng_decode32@@YAIPAPAEPAI1PBEI@Z 1002c360 f   lodepng.obj
 0001:0002b390       ?lodepng_decode24@@YAIPAPAEPAI1PBEI@Z 1002c390 f   lodepng.obj
 0001:0002b3c0       ?lodepng_decode_file@@YAIPAPAEPAI1PBDW4LodePNGColorType@@I@Z 1002c3c0 f   lodepng.obj
 0001:0002b420       ?lodepng_decode32_file@@YAIPAPAEPAI1PBD@Z 1002c420 f   lodepng.obj
 0001:0002b450       ?lodepng_decode24_file@@YAIPAPAEPAI1PBD@Z 1002c450 f   lodepng.obj
 0001:0002b480       ?decompress@lodepng@@YAIAAV?$vector@EV?$allocator@E@std@@@std@@PBEIABULodePNGDecompressSettings@@@Z 1002c480 f   lodepng.obj
 0001:0002b520       ?decompress@lodepng@@YAIAAV?$vector@EV?$allocator@E@std@@@std@@ABV23@ABULodePNGDecompressSettings@@@Z 1002c520 f   lodepng.obj
 0001:0002b580       ?compress@lodepng@@YAIAAV?$vector@EV?$allocator@E@std@@@std@@PBEIABULodePNGCompressSettings@@@Z 1002c580 f   lodepng.obj
 0001:0002b620       ?compress@lodepng@@YAIAAV?$vector@EV?$allocator@E@std@@@std@@ABV23@ABULodePNGCompressSettings@@@Z 1002c620 f   lodepng.obj
 0001:0002b680       ?decode@lodepng@@YAIAAV?$vector@EV?$allocator@E@std@@@std@@AAI1PBEIW4LodePNGColorType@@I@Z 1002c680 f   lodepng.obj
 0001:0002b7b0       ?decode@lodepng@@YAIAAV?$vector@EV?$allocator@E@std@@@std@@AAI1ABV23@W4LodePNGColorType@@I@Z 1002c7b0 f   lodepng.obj
 0001:0002b810       ?decode@lodepng@@YAIAAV?$vector@EV?$allocator@E@std@@@std@@AAI1AAVState@1@PBEI@Z 1002c810 f   lodepng.obj
 0001:0002b8b0       ?decode@lodepng@@YAIAAV?$vector@EV?$allocator@E@std@@@std@@AAI1AAVState@1@ABV23@@Z 1002c8b0 f   lodepng.obj
 0001:0002b910       ?encode@lodepng@@YAIAAV?$vector@EV?$allocator@E@std@@@std@@PBEIIW4LodePNGColorType@@I@Z 1002c910 f   lodepng.obj
 0001:0002b990       ?encode@lodepng@@YAIAAV?$vector@EV?$allocator@E@std@@@std@@ABV23@IIW4LodePNGColorType@@I@Z 1002c990 f   lodepng.obj
 0001:0002ba20       ?encode@lodepng@@YAIAAV?$vector@EV?$allocator@E@std@@@std@@PBEIIAAVState@1@@Z 1002ca20 f   lodepng.obj
 0001:0002baa0       ?encode@lodepng@@YAIAAV?$vector@EV?$allocator@E@std@@@std@@ABV23@IIAAVState@1@@Z 1002caa0 f   lodepng.obj
 0001:0002bb20       ?load_file@lodepng@@YAXAAV?$vector@EV?$allocator@E@std@@@std@@ABV?$basic_string@DU?$char_traits@D@std@@V?$allocator@D@2@@3@@Z 1002cb20 f   lodepng.obj
 0001:0002bcb0       ?save_file@lodepng@@YAXABV?$vector@EV?$allocator@E@std@@@std@@ABV?$basic_string@DU?$char_traits@D@std@@V?$allocator@D@2@@3@@Z 1002ccb0 f   lodepng.obj
 0001:0002bd90       ?decode@lodepng@@YAIAAV?$vector@EV?$allocator@E@std@@@std@@AAI1ABV?$basic_string@DU?$char_traits@D@std@@V?$allocator@D@2@@3@W4LodePNGColorType@@I@Z 1002cd90 f   lodepng.obj
 0001:0002be60       ?encode@lodepng@@YAIABV?$basic_string@DU?$char_traits@D@std@@V?$allocator@D@2@@std@@PBEIIW4LodePNGColorType@@I@Z 1002ce60 f   lodepng.obj
 0001:0002bf00       ?encode@lodepng@@YAIABV?$basic_string@DU?$char_traits@D@std@@V?$allocator@D@2@@std@@ABV?$vector@EV?$allocator@E@std@@@3@IIW4LodePNGColorType@@I@Z 1002cf00 f   lodepng.obj
 0001:0002bf90       ??_EState@lodepng@@UAEPAXI@Z 1002cf90 f i lodepng.obj
 0001:0002bf90       ??_GState@lodepng@@UAEPAXI@Z 1002cf90 f i lodepng.obj
 0001:0002bff0       ??$_Insert@PAE@?$vector@EV?$allocator@E@std@@@std@@QAEXV?$_Vector_iterator@EV?$allocator@E@std@@@1@PAE1Uforward_iterator_tag@1@@Z 1002cff0 f i lodepng.obj
 0001:0002c1e0       ?resize@?$vector@EV?$allocator@E@std@@@std@@QAEXIE@Z 1002d1e0 f i lodepng.obj
 0001:0002c290       ??0?$basic_ifstream@DU?$char_traits@D@std@@@std@@QAE@PBDHH@Z 1002d290 f i lodepng.obj
 0001:0002c3d0       ??0?$basic_ofstream@DU?$char_traits@D@std@@@std@@QAE@PBDHH@Z 1002d3d0 f i lodepng.obj
 0001:0002c510       ?PACKET_GetKey@@YAPBEK@Z   1002d510 f   packet.obj
 0001:0002c570       ?PACKET_XorByKey@@YAXPAEKK@Z 1002d570 f   packet.obj
 0001:0002c5d0       ?PACKET_Crypt@@YAXAAVBinaryStream@@K@Z 1002d5d0 f   packet.obj
 0001:0002c6a0       ??0?$vector@EV?$allocator@E@std@@@std@@QAE@ABV01@@Z 1002d6a0 f i packet.obj
 0001:0002c730       ??0CScanrangeCalc@@QAE@XZ  1002d730 f   ScanrangeCalc.obj
 0001:0002c740       ?InitializeTables@CScanrangeCalc@@QAEXXZ 1002d740 f   ScanrangeCalc.obj
 0001:0002c910       ?SetCell@CScanrangeCalc@@AAE_NEEEE@Z 1002d910 f   ScanrangeCalc.obj
 0001:0002c970       ?CalculateVision@CScanrangeCalc@@QAEXHHGP6AEFF@ZP6A_NFF@Z@Z 1002d970 f   ScanrangeCalc.obj
 0001:0002cc90       ?GetPosition@BinaryStream@@QAEIXZ 1002dc90 f   serialize1.obj
 0001:0002cca0       ?Seek@BinaryStream@@QAEII@Z 1002dca0 f   serialize1.obj
 0001:0002cce0       ?ReadUInt8@BinaryStream@@QAEEXZ 1002dce0 f   serialize1.obj
 0001:0002cd40       ?ReadUInt16@BinaryStream@@QAEGXZ 1002dd40 f   serialize1.obj
 0001:0002cdd0       ?ReadUInt32@BinaryStream@@QAEIXZ 1002ddd0 f   serialize1.obj
 0001:0002cea0       ?ReadDouble@BinaryStream@@QAENXZ 1002dea0 f   serialize1.obj
 0001:0002ced0       ?ReadFloat@BinaryStream@@QAEMXZ 1002ded0 f   serialize1.obj
 0001:0002cee0       ?EndOfStream@BinaryStream@@QAE_NXZ 1002dee0 f   serialize1.obj
 0001:0002cf40       ?GetLength@BinaryStream@@QAEIXZ 1002df40 f   serialize1.obj
 0001:0002cf50       ?ReadData@BinaryStream@@QAEXPAXI@Z 1002df50 f   serialize1.obj
 0001:0002cfd0       ?Reset@BinaryStream@@QAEXXZ 1002dfd0 f   serialize1.obj
 0001:0002d020       ??1BinaryStream@@QAE@XZ    1002e020 f   serialize1.obj
 0001:0002d090       ?ReadString@BinaryStream@@QAE?AV?$basic_string@DU?$char_traits@D@std@@V?$allocator@D@2@@std@@XZ 1002e090 f   serialize1.obj
 0001:0002d280       ?ReadBigString@BinaryStream@@QAE?AV?$basic_string@DU?$char_traits@D@std@@V?$allocator@D@2@@std@@XZ 1002e280 f   serialize1.obj
 0001:0002d430       ?ReadSmallString@BinaryStream@@QAE?AV?$basic_string@DU?$char_traits@D@std@@V?$allocator@D@2@@std@@XZ 1002e430 f   serialize1.obj
 0001:0002d5f0       ?ReadFixedString@BinaryStream@@QAE?AV?$basic_string@DU?$char_traits@D@std@@V?$allocator@D@2@@std@@I@Z 1002e5f0 f   serialize1.obj
 0001:0002d760       ??0BinaryStream@@QAE@XZ    1002e760 f   serialize1.obj
 0001:0002d780       ?SaveToStream@BinaryStream@@QAEXAAV1@@Z 1002e780 f   serialize1.obj
 0001:0002d840       ?WriteUInt8@BinaryStream@@QAEXE@Z 1002e840 f   serialize1.obj
 0001:0002d8b0       ?WriteUInt16@BinaryStream@@QAEXG@Z 1002e8b0 f   serialize1.obj
 0001:0002d970       ?WriteUInt32@BinaryStream@@QAEXI@Z 1002e970 f   serialize1.obj
 0001:0002dac0       ?WriteDouble@BinaryStream@@QAEXN@Z 1002eac0 f   serialize1.obj
 0001:0002dae0       ?WriteFloat@BinaryStream@@QAEXM@Z 1002eae0 f   serialize1.obj
 0001:0002daf0       ?WriteString@BinaryStream@@QAEXV?$basic_string@DU?$char_traits@D@std@@V?$allocator@D@2@@std@@@Z 1002eaf0 f   serialize1.obj
 0001:0002dc30       ?WriteBigString@BinaryStream@@QAEXV?$basic_string@DU?$char_traits@D@std@@V?$allocator@D@2@@std@@@Z 1002ec30 f   serialize1.obj
 0001:0002dd70       ?WriteSmallString@BinaryStream@@QAEXV?$basic_string@DU?$char_traits@D@std@@V?$allocator@D@2@@std@@@Z 1002ed70 f   serialize1.obj
 0001:0002deb0       ?WriteFixedString@BinaryStream@@QAEXV?$basic_string@DU?$char_traits@D@std@@V?$allocator@D@2@@std@@I@Z 1002eeb0 f   serialize1.obj
 0001:0002dfe0       ?WriteData@BinaryStream@@QAEXPAXI@Z 1002efe0 f   serialize1.obj
 0001:0002e010       ?LoadFromStream@BinaryStream@@QAE_NAAV1@I@Z 1002f010 f   serialize1.obj
 0001:0002e0d0       ?LoadFromFile@BinaryStream@@QAE_NV?$basic_string@DU?$char_traits@D@std@@V?$allocator@D@2@@std@@@Z 1002f0d0 f   serialize1.obj
 0001:0002e3e0       ?SaveToFile@BinaryStream@@QAE_NV?$basic_string@DU?$char_traits@D@std@@V?$allocator@D@2@@std@@@Z 1002f3e0 f   serialize1.obj
 0001:0002e620       _sha1_starts               1002f620 f   sha1.obj
 0001:0002fb20       _sha1_update               10030b20 f   sha1.obj
 0001:0002fbc0       _sha1_finish               10030bc0 f   sha1.obj
 0001:0002fd10       _sha1                      10030d10 f   sha1.obj
 0001:0002fda0       _sha1_file                 10030da0 f   sha1.obj
 0001:0002fec0       _sha1_hmac_starts          10030ec0 f   sha1.obj
 0001:0002ff90       _sha1_hmac_update          10030f90 f   sha1.obj
 0001:0002ffa0       _sha1_hmac_finish          10030fa0 f   sha1.obj
 0001:00030030       _sha1_hmac_reset           10031030 f   sha1.obj
 0001:00030080       _sha1_hmac                 10031080 f   sha1.obj
 0001:00030100       ?SOCK_Accept@@YAIIAAUsockaddr_in@@@Z 10031100 f   socket.obj
 0001:00030130       ?SOCK_Destroy@@YAXI@Z      10031130 f   socket.obj
 0001:00030140       ?SOCK_SetBlocking@@YAXI_N@Z 10031140 f   socket.obj
 0001:00030160       ?SOCK_WaitEvent@@YA_NIK@Z  10031160 f   socket.obj
 0001:000301c0       ?Connect@PacketReceiver@@QAEXI@Z 100311c0 f   socket.obj
 0001:000301d0       ?SOCK_ReceivePacket@@YAHIAAVBinaryStream@@K@Z 100311d0 f   socket.obj
 0001:00030380       ?SOCK_Listen@@YAIV?$basic_string@DU?$char_traits@D@std@@V?$allocator@D@2@@std@@G@Z 10031380 f   socket.obj
 0001:00030490       ?SOCK_SendPacket@@YAHIAAVBinaryStream@@K_N@Z 10031490 f   socket.obj
 0001:00030670       ??0PacketReceiver@@QAE@XZ  10031670 f   socket.obj
 0001:00030690       ?CheckIP@@YA_NV?$basic_string@DU?$char_traits@D@std@@V?$allocator@D@2@@std@@@Z 10031690 f   socket.obj
 0001:00030820       ?SOCK_Connect@@YAIV?$basic_string@DU?$char_traits@D@std@@V?$allocator@D@2@@std@@G0G@Z 10031820 f   socket.obj
 0001:00030a10       ?FromString@IPAddress@IPFilter@@QAEXV?$basic_string@DU?$char_traits@D@std@@V?$allocator@D@2@@std@@@Z 10031a10 f   socket.obj
 0001:00030e40       ?CheckAddress@IPFFile@IPFilter@@QAEHV?$basic_string@DU?$char_traits@D@std@@V?$allocator@D@2@@std@@@Z 10031e40 f   socket.obj
 0001:00030fe0       ?GetPacket@PacketReceiver@@QAE_NAAVBinaryStream@@@Z 10031fe0 f   socket.obj
 0001:000310e0       ?ReadIPF@IPFFile@IPFilter@@QAEXV?$basic_string@DU?$char_traits@D@std@@V?$allocator@D@2@@std@@_N@Z 100320e0 f   socket.obj
 0001:000316d0       ??1PacketReceiver@@QAE@XZ  100326d0 f   socket.obj
 0001:00031750       ?Receive@PacketReceiver@@QAE_NI@Z 10032750 f   socket.obj
 0001:00031880       ?size@?$vector@VBinaryStream@@V?$allocator@VBinaryStream@@@std@@@std@@QBEIXZ 10032880 f i socket.obj
 0001:000318a0       ?size@?$vector@UIPFEntry@IPFilter@@V?$allocator@UIPFEntry@IPFilter@@@std@@@std@@QBEIXZ 100328a0 f i socket.obj
 0001:000318c0       ??$_Allocate@UIPFEntry@IPFilter@@@std@@YAPAUIPFEntry@IPFilter@@IPAU12@@Z 100328c0 f i socket.obj
 0001:00031920       ??$_Allocate@VBinaryStream@@@std@@YAPAVBinaryStream@@IPAV1@@Z 10032920 f i socket.obj
 0001:00031980       ?back@?$vector@VBinaryStream@@V?$allocator@VBinaryStream@@@std@@@std@@QAEAAVBinaryStream@@XZ 10032980 f i socket.obj
 0001:000319d0       ?_Destroy@?$vector@VBinaryStream@@V?$allocator@VBinaryStream@@@std@@@std@@IAEXPAVBinaryStream@@0@Z 100329d0 f i socket.obj
 0001:00031a00       ?_Tidy@?$vector@VBinaryStream@@V?$allocator@VBinaryStream@@@std@@@std@@IAEXXZ 10032a00 f i socket.obj
 0001:00031a50       ??1?$vector@VBinaryStream@@V?$allocator@VBinaryStream@@@std@@@std@@QAE@XZ 10032a50 f i socket.obj
 0001:00031a60       ?_Buy@?$vector@UIPFEntry@IPFilter@@V?$allocator@UIPFEntry@IPFilter@@@std@@@std@@IAE_NI@Z 10032a60 f i socket.obj
 0001:00031ab0       ?destroy@?$allocator@UIPFEntry@IPFilter@@@std@@QAEXPAUIPFEntry@IPFilter@@@Z 10032ab0 f i socket.obj
 0001:00031ae0       ??$_Copy_opt@PAUIPFEntry@IPFilter@@PAU12@Uforward_iterator_tag@std@@@std@@YAPAUIPFEntry@IPFilter@@PAU12@00Uforward_iterator_tag@0@U_Nonscalar_ptr_iterator_tag@0@U_Range_checked_iterator_tag@0@@Z 10032ae0 f i socket.obj
 0001:00031b40       ??$_Uninit_copy@PAUIPFEntry@IPFilter@@PAU12@V?$allocator@UIPFEntry@IPFilter@@@std@@@std@@YAPAUIPFEntry@IPFilter@@PAU12@00AAV?$allocator@UIPFEntry@IPFilter@@@0@U_Nonscalar_ptr_iterator_tag@0@U_Range_checked_iterator_tag@0@@Z 10032b40 f i socket.obj
 0001:00031c30       ??$_Copy_backward_opt@PAUIPFEntry@IPFilter@@PAU12@Uforward_iterator_tag@std@@@std@@YAPAUIPFEntry@IPFilter@@PAU12@00Uforward_iterator_tag@0@U_Nonscalar_ptr_iterator_tag@0@U_Range_checked_iterator_tag@0@@Z 10032c30 f i socket.obj
 0001:00031c90       ??$_Destroy_range@UIPFEntry@IPFilter@@V?$allocator@UIPFEntry@IPFilter@@@std@@@std@@YAXPAUIPFEntry@IPFilter@@0AAV?$allocator@UIPFEntry@IPFilter@@@0@U_Nonscalar_ptr_iterator_tag@0@@Z 10032c90 f i socket.obj
 0001:00031ce0       ??$_Uninit_fill_n@PAUIPFEntry@IPFilter@@IU12@V?$allocator@UIPFEntry@IPFilter@@@std@@@std@@YAXPAUIPFEntry@IPFilter@@IABU12@AAV?$allocator@UIPFEntry@IPFilter@@@0@U_Nonscalar_ptr_iterator_tag@0@U_Range_checked_iterator_tag@0@@Z 10032ce0 f i socket.obj
 0001:00031dc0       ??$_Fill@PAUIPFEntry@IPFilter@@U12@@std@@YAXPAUIPFEntry@IPFilter@@0ABU12@@Z 10032dc0 f i socket.obj
 0001:00031e10       ??$_Copy_backward_opt@PAUIPFEntry@IPFilter@@PAU12@@std@@YAPAUIPFEntry@IPFilter@@PAU12@00Urandom_access_iterator_tag@0@U_Nonscalar_ptr_iterator_tag@0@U_Range_checked_iterator_tag@0@@Z 10032e10 f i socket.obj
 0001:00031e70       ??$unchecked_copy@PAUIPFEntry@IPFilter@@PAU12@@stdext@@YAPAUIPFEntry@IPFilter@@PAU12@00@Z 10032e70 f i socket.obj
 0001:00031ed0       ??$_Umove@PAUIPFEntry@IPFilter@@@?$vector@UIPFEntry@IPFilter@@V?$allocator@UIPFEntry@IPFilter@@@std@@@std@@IAEPAUIPFEntry@IPFilter@@PAU23@00@Z 10032ed0 f i socket.obj
 0001:00031ed0       ??$_Ucopy@PAUIPFEntry@IPFilter@@@?$vector@UIPFEntry@IPFilter@@V?$allocator@UIPFEntry@IPFilter@@@std@@@std@@IAEPAUIPFEntry@IPFilter@@PAU23@00@Z 10032ed0 f i socket.obj
 0001:00031f00       ??$_Copy_opt@PAVBinaryStream@@PAV1@Uforward_iterator_tag@std@@@std@@YAPAVBinaryStream@@PAV1@00Uforward_iterator_tag@0@U_Nonscalar_ptr_iterator_tag@0@U_Range_checked_iterator_tag@0@@Z 10032f00 f i socket.obj
 0001:00031f40       ??$_Copy_backward_opt@PAVBinaryStream@@PAV1@Uforward_iterator_tag@std@@@std@@YAPAVBinaryStream@@PAV1@00Uforward_iterator_tag@0@U_Nonscalar_ptr_iterator_tag@0@U_Range_checked_iterator_tag@0@@Z 10032f40 f i socket.obj
 0001:00031f80       ?_Destroy@?$vector@UIPFEntry@IPFilter@@V?$allocator@UIPFEntry@IPFilter@@@std@@@std@@IAEXPAUIPFEntry@IPFilter@@0@Z 10032f80 f i socket.obj
 0001:00031fa0       ?_Ufill@?$vector@UIPFEntry@IPFilter@@V?$allocator@UIPFEntry@IPFilter@@@std@@@std@@IAEPAUIPFEntry@IPFilter@@PAU34@IABU34@@Z 10032fa0 f i socket.obj
 0001:00031fe0       ?erase@?$vector@UIPFEntry@IPFilter@@V?$allocator@UIPFEntry@IPFilter@@@std@@@std@@QAE?AV?$_Vector_iterator@UIPFEntry@IPFilter@@V?$allocator@UIPFEntry@IPFilter@@@std@@@2@V32@0@Z 10032fe0 f i socket.obj
 0001:00032040       ??$?5DU?$char_traits@D@std@@V?$allocator@D@1@@std@@YAAAV?$basic_istream@DU?$char_traits@D@std@@@0@AAV10@AAV?$basic_string@DU?$char_traits@D@std@@V?$allocator@D@2@@0@@Z 10033040 f i socket.obj
 0001:00032200       ??$_Unchecked_move_backward@PAUIPFEntry@IPFilter@@PAU12@@stdext@@YAPAUIPFEntry@IPFilter@@PAU12@00@Z 10033200 f i socket.obj
 0001:00032230       ??$_Copy_backward_opt@PAVBinaryStream@@PAV1@@std@@YAPAVBinaryStream@@PAV1@00Urandom_access_iterator_tag@0@U_Nonscalar_ptr_iterator_tag@0@U_Range_checked_iterator_tag@0@@Z 10033230 f i socket.obj
 0001:00032290       ??$_Uninit_copy@PAVBinaryStream@@PAV1@V?$allocator@VBinaryStream@@@std@@@std@@YAPAVBinaryStream@@PAV1@00AAV?$allocator@VBinaryStream@@@0@U_Nonscalar_ptr_iterator_tag@0@U_Range_checked_iterator_tag@0@@Z 10033290 f i socket.obj
 0001:00032340       ??1?$vector@UIPFEntry@IPFilter@@V?$allocator@UIPFEntry@IPFilter@@@std@@@std@@QAE@XZ 10033340 f i socket.obj
 0001:00032380       ?clear@?$vector@UIPFEntry@IPFilter@@V?$allocator@UIPFEntry@IPFilter@@@std@@@std@@QAEXXZ 10033380 f i socket.obj
 0001:000323c0       ?_Insert_n@?$vector@UIPFEntry@IPFilter@@V?$allocator@UIPFEntry@IPFilter@@@std@@@std@@IAEXV?$_Vector_iterator@UIPFEntry@IPFilter@@V?$allocator@UIPFEntry@IPFilter@@@std@@@2@IABUIPFEntry@IPFilter@@@Z 100333c0 f i socket.obj
 0001:000326e0       ??$unchecked_copy@PAVBinaryStream@@PAV1@@stdext@@YAPAVBinaryStream@@PAV1@00@Z 100336e0 f i socket.obj
 0001:00032740       ??$_Uninit_fill_n@PAVBinaryStream@@IV1@V?$allocator@VBinaryStream@@@std@@@std@@YAXPAVBinaryStream@@IABV1@AAV?$allocator@VBinaryStream@@@0@U_Nonscalar_ptr_iterator_tag@0@U_Range_checked_iterator_tag@0@@Z 10033740 f i socket.obj
 0001:000327f0       ??4?$vector@UIPFEntry@IPFilter@@V?$allocator@UIPFEntry@IPFilter@@@std@@@std@@QAEAAV01@ABV01@@Z 100337f0 f i socket.obj
 0001:00032960       ?erase@?$vector@VBinaryStream@@V?$allocator@VBinaryStream@@@std@@@std@@QAE?AV?$_Vector_iterator@VBinaryStream@@V?$allocator@VBinaryStream@@@std@@@2@V32@@Z 10033960 f i socket.obj
 0001:000329b0       ?insert@?$vector@UIPFEntry@IPFilter@@V?$allocator@UIPFEntry@IPFilter@@@std@@@std@@QAE?AV?$_Vector_iterator@UIPFEntry@IPFilter@@V?$allocator@UIPFEntry@IPFilter@@@std@@@2@V32@ABUIPFEntry@IPFilter@@@Z 100339b0 f i socket.obj
 0001:00032a60       ?erase@?$vector@VBinaryStream@@V?$allocator@VBinaryStream@@@std@@@std@@QAE?AV?$_Vector_iterator@VBinaryStream@@V?$allocator@VBinaryStream@@@std@@@2@V32@0@Z 10033a60 f i socket.obj
 0001:00032ad0       ??$_Unchecked_move_backward@PAVBinaryStream@@PAV1@@stdext@@YAPAVBinaryStream@@PAV1@00@Z 10033ad0 f i socket.obj
 0001:00032b00       ?push_back@?$vector@UIPFEntry@IPFilter@@V?$allocator@UIPFEntry@IPFilter@@@std@@@std@@QAEXABUIPFEntry@IPFilter@@@Z 10033b00 f i socket.obj
 0001:00032ba0       ?_Ufill@?$vector@VBinaryStream@@V?$allocator@VBinaryStream@@@std@@@std@@IAEPAVBinaryStream@@PAV3@IABV3@@Z 10033ba0 f i socket.obj
 0001:00032be0       ??$_Umove@PAVBinaryStream@@@?$vector@VBinaryStream@@V?$allocator@VBinaryStream@@@std@@@std@@IAEPAVBinaryStream@@PAV2@00@Z 10033be0 f i socket.obj
 0001:00032c10       ?_Insert_n@?$vector@VBinaryStream@@V?$allocator@VBinaryStream@@@std@@@std@@IAEXV?$_Vector_iterator@VBinaryStream@@V?$allocator@VBinaryStream@@@std@@@2@IABVBinaryStream@@@Z 10033c10 f i socket.obj
 0001:00032f50       ?insert@?$vector@VBinaryStream@@V?$allocator@VBinaryStream@@@std@@@std@@QAE?AV?$_Vector_iterator@VBinaryStream@@V?$allocator@VBinaryStream@@@std@@@2@V32@ABVBinaryStream@@@Z 10033f50 f i socket.obj
 0001:00033000       ?push_back@?$vector@VBinaryStream@@V?$allocator@VBinaryStream@@@std@@@std@@QAEXABVBinaryStream@@@Z 10034000 f i socket.obj
 0001:000330a0       ?CheckBool@@YA_NABV?$basic_string@DU?$char_traits@D@std@@V?$allocator@D@2@@std@@@Z 100340a0 f   utils1.obj
 0001:00033230       ?StrToBool@@YA_NABV?$basic_string@DU?$char_traits@D@std@@V?$allocator@D@2@@std@@@Z 10034230 f   utils1.obj
 0001:00033360       ?DoMenuDraw@@YGXXZ         10034360 f   menu.obj
 0001:00033470       ?DoMenuClick@@YGHH@Z       10034470 f   menu.obj
 0001:00033490       ?DoMenuHover@@YGXPAEHHI@Z  10034490 f   menu.obj
 0001:000335c0       ?MENU_draw@@YAXXZ          100345c0 f   menu.obj
 0001:000335d0       ?MENU_click@@YAXXZ         100345d0 f   menu.obj
 0001:00033600       ?MENU_hover1@@YAXXZ        10034600 f   menu.obj
 0001:00033620       ?MENU_hover2@@YAXXZ        10034620 f   menu.obj
 0001:00033640       ?MENU_hover3@@YAXXZ        10034640 f   menu.obj
 0001:00033660       ?DoMenuLoad@@YGXXZ         10034660 f   menu.obj
 0001:00033840       ?MENU_load@@YAXXZ          10034840 f   menu.obj
 0001:0003384c       _SDL_Init                  1003484c f   SDL:SDL.dll
 0001:00033852       _SDL_ConvertSurface        10034852 f   SDL:SDL.dll
 0001:00033858       _SDL_FreeSurface           10034858 f   SDL:SDL.dll
 0001:0003385e       _SDL_RWFromMem             1003485e f   SDL:SDL.dll
 0001:00033864       _SDL_UpperBlit             10034864 f   SDL:SDL.dll
 0001:0003386a       _SDL_CreateRGBSurface      1003486a f   SDL:SDL.dll
 0001:00033870       _SDL_LoadBMP_RW            10034870 f   SDL:SDL.dll
 0001:00033876       _SDL_RWFromFile            10034876 f   SDL:SDL.dll
 0001:0003387c       _IMG_Init                  1003487c f   SDL_image:SDL_image.dll
 0001:00033882       _IMG_Load_RW               10034882 f   SDL_image:SDL_image.dll
 0001:00033888       ?_Xlen@_String_base@std@@SAXXZ 10034888 f   libcpmt:string.obj
 0001:000338c7       ?_Xran@_String_base@std@@SAXXZ 100348c7 f   libcpmt:string.obj
 0001:00033906       ??_U@YAPAXI@Z              10034906 f   libcpmt:newaop.obj
 0001:0003390b       __Tolower                  1003490b f   libcpmt:_tolower.obj
 0001:00033a1a       __Getctype                 10034a1a f   libcpmt:_tolower.obj
 0001:00033a75       ??0_Init_locks@std@@QAE@XZ 10034a75 f   libcpmt:xlock.obj
 0001:00033aa4       ??1_Init_locks@std@@QAE@XZ 10034aa4 f   libcpmt:xlock.obj
 0001:00033acd       ??0_Lockit@std@@QAE@H@Z    10034acd f   libcpmt:xlock.obj
 0001:00033aee       ??1_Lockit@std@@QAE@XZ     10034aee f   libcpmt:xlock.obj
 0001:00033b00       ??1_Fac_node@std@@QAE@XZ   10034b00 f i libcpmt:locale0.obj
 0001:00033b15       __Deletegloballocale       10034b15 f   libcpmt:locale0.obj
 0001:00033b5b       ?_Getgloballocale@locale@std@@CAPAV_Locimp@12@XZ 10034b5b f   libcpmt:locale0.obj
 0001:00033b61       ?_Setgloballocale@locale@std@@CAXPAX@Z 10034b61 f   libcpmt:locale0.obj
 0001:00033b86       ?_Locimp_dtor@_Locimp@locale@std@@CAXPAV123@@Z 10034b86 f   libcpmt:locale0.obj
 0001:00033be6       __Fac_tidy                 10034be6 f   libcpmt:locale0.obj
 0001:00033c29       ?facet_Register@facet@locale@std@@CAXPAV123@@Z 10034c29 f   libcpmt:locale0.obj
 0001:00033c62       ?_Locinfo_dtor@_Locinfo@std@@SAXPAV12@@Z 10034c62 f   libcpmt:locale0.obj
 0001:00033c85       ??0_Locimp@locale@std@@AAE@_N@Z 10034c85 f i libcpmt:locale0.obj
 0001:00033cce       ??1_Locimp@locale@std@@MAE@XZ 10034cce f i libcpmt:locale0.obj
 0001:00033d0b       ??_E_Locimp@locale@std@@MAEPAXI@Z 10034d0b f i libcpmt:locale0.obj
 0001:00033d0b       ??_G_Locimp@locale@std@@MAEPAXI@Z 10034d0b f i libcpmt:locale0.obj
 0001:00033d27       ?_Init@locale@std@@CAPAV_Locimp@12@XZ 10034d27 f   libcpmt:locale0.obj
 0001:00033dc1       ?_Locinfo_ctor@_Locinfo@std@@SAXPAV12@PBD@Z 10034dc1 f   libcpmt:locale0.obj
 0001:00033e0b       ?_Callfns@ios_base@std@@AAEXW4event@12@@Z 10034e0b f i libcpmt:ios.obj
 0001:00033e2d       ?_Tidy@ios_base@std@@AAAXXZ 10034e2d f i libcpmt:ios.obj
 0001:00033e73       ?_Ios_base_dtor@ios_base@std@@CAXPAV12@@Z 10034e73 f   libcpmt:ios.obj
 0001:00033eb1       ??0_Mutex@std@@QAE@XZ      10034eb1 f   libcpmt:xmutex.obj
 0001:00033ec9       ??1_Mutex@std@@QAE@XZ      10034ec9 f   libcpmt:xmutex.obj
 0001:00033ede       ?_Lock@_Mutex@std@@QAEXXZ  10034ede f   libcpmt:xmutex.obj
 0001:00033ee7       ?_Unlock@_Mutex@std@@QAEXXZ 10034ee7 f   libcpmt:xmutex.obj
 0001:00033ef0       __Toupper                  10034ef0 f   libcpmt:_toupper.obj
 0001:00034004       ?_Xfsopen@std@@YAPAU_iobuf@@PB_W0H@Z 10035004 f   libcpmt:fiopen.obj
 0001:000340b9       ?_Fiopen@std@@YAPAU_iobuf@@PB_WHH@Z 100350b9 f   libcpmt:fiopen.obj
 0001:0003416e       ?_Fiopen@std@@YAPAU_iobuf@@PBDHH@Z 1003516e f   libcpmt:fiopen.obj
 0001:000341c9       ?uncaught_exception@std@@YA_NXZ 100351c9 f   libcpmt:uncaught.obj
 0001:000341ce       __Mtxinit                  100351ce f   libcpmt:xmtx.obj
 0001:000341d9       __Mtxdst                   100351d9 f   libcpmt:xmtx.obj
 0001:000341e4       __Mtxlock                  100351e4 f   libcpmt:xmtx.obj
 0001:000341ef       __Mtxunlock                100351ef f   libcpmt:xmtx.obj
 0001:000341fa       ?_Atexit@@YAXP6AXXZ@Z      100351fa f   libcpmt:iosptrs.obj
 0001:0003421a       ??1_Init_atexit@@QAE@XZ    1003521a f i libcpmt:iosptrs.obj
 0001:00034240       _GetModuleFileNameExA@16   10035240 f   psapi:PSAPI.DLL
 0001:00034246       _EnumProcesses@12          10035246 f   psapi:PSAPI.DLL
 0001:0003424c       ??0exception@std@@QAE@XZ   1003524c f   LIBCMT:stdexcpt.obj
 0001:0003425d       ??0exception@std@@QAE@ABQBD@Z 1003525d f   LIBCMT:stdexcpt.obj
 0001:000342ab       ??0exception@std@@QAE@ABQBDH@Z 100352ab f   LIBCMT:stdexcpt.obj
 0001:000342c3       ??0exception@std@@QAE@ABV01@@Z 100352c3 f   LIBCMT:stdexcpt.obj
 0001:0003431b       ??1exception@std@@UAE@XZ   1003531b f   LIBCMT:stdexcpt.obj
 0001:00034331       ?what@exception@std@@UBEPBDXZ 10035331 f   LIBCMT:stdexcpt.obj
 0001:0003433e       ??0bad_cast@std@@QAE@PBD@Z 1003533e f   LIBCMT:stdexcpt.obj
 0001:00034357       ??0bad_cast@std@@QAE@ABV01@@Z 10035357 f   LIBCMT:stdexcpt.obj
 0001:0003436f       ??1bad_cast@std@@UAE@XZ    1003536f f   LIBCMT:stdexcpt.obj
 0001:0003437a       ??_Eexception@std@@UAEPAXI@Z 1003537a f i LIBCMT:stdexcpt.obj
 0001:0003437a       ??_Gexception@std@@UAEPAXI@Z 1003537a f i LIBCMT:stdexcpt.obj
 0001:00034396       ??_Ebad_cast@std@@UAEPAXI@Z 10035396 f i LIBCMT:stdexcpt.obj
 0001:00034396       ??_Gbad_cast@std@@UAEPAXI@Z 10035396 f i LIBCMT:stdexcpt.obj
 0001:000343b8       ??1type_info@@UAE@XZ       100353b8 f   LIBCMT:typinfo.obj
 0001:000343c6       ??_Gtype_info@@UAEPAXI@Z   100353c6 f i LIBCMT:typinfo.obj
 0001:000343c6       ??_Etype_info@@UAEPAXI@Z   100353c6 f i LIBCMT:typinfo.obj
 0001:000343e2       ??8type_info@@QBE_NABV0@@Z 100353e2 f   LIBCMT:typinfo.obj
 0001:000343fd       ??3@YAXPAX@Z               100353fd f   LIBCMT:delete.obj
 0001:00034402       _memcpy_s                  10035402 f   LIBCMT:memcpy_s.obj
 0001:00034480       _memchr                    10035480 f   LIBCMT:memchr.obj
 0001:0003452d       _memmove_s                 1003552d f   LIBCMT:memmove_s.obj
 0001:00034588       __localtime64_s            10035588 f   LIBCMT:loctim64.obj
 0001:00034830       __localtime64              10035830 f   LIBCMT:loctim64.obj
 0001:00034854       __time64                   10035854 f   LIBCMT:time64.obj
 0001:00034890       __initp_misc_invarg        10035890 f   LIBCMT:invarg.obj
 0001:0003489a       __invoke_watson            1003589a f   LIBCMT:invarg.obj
 0001:00034996       __invalid_parameter        10035996 f   LIBCMT:invarg.obj
 0001:000349ba       __invalid_parameter_noinfo 100359ba f   LIBCMT:invarg.obj
 0001:000349ca       ??0bad_alloc@std@@QAE@XZ   100359ca f i LIBCMT:new.obj
 0001:000349e3       ??2@YAPAXI@Z               100359e3 f   LIBCMT:new.obj
 0001:00034a4d       __CxxThrowException@8      10035a4d f   LIBCMT:throw.obj
 0001:00034a97       ?_JumpToContinuation@@YGXPAXPAUEHRegistrationNode@@@Z 10035a97 f   LIBCMT:trnsctrl.obj
 0001:00034ac7       ?_CallMemberFunction0@@YGXPAX0@Z 10035ac7 f   LIBCMT:trnsctrl.obj
 0001:00034ac7       ?_CallMemberFunction2@@YGXPAX00H@Z 10035ac7 f   LIBCMT:trnsctrl.obj
 0001:00034ac7       ?_CallMemberFunction1@@YGXPAX00@Z 10035ac7 f   LIBCMT:trnsctrl.obj
 0001:00034ace       ?_UnwindNestedFrames@@YGXPAUEHRegistrationNode@@PAUEHExceptionRecord@@@Z 10035ace f   LIBCMT:trnsctrl.obj
 0001:00034b20       ___CxxFrameHandler3        10035b20 f   LIBCMT:trnsctrl.obj
 0001:00034b86       ?_CallSETranslator@@YAHPAUEHExceptionRecord@@PAUEHRegistrationNode@@PAX2PBU_s_FuncInfo@@H1@Z 10035b86 f   LIBCMT:trnsctrl.obj
 0001:00034cf8       ?_GetRangeOfTrysToCheck@@YAPBU_s_TryBlockMapEntry@@PBU_s_FuncInfo@@HHPAI1@Z 10035cf8 f   LIBCMT:trnsctrl.obj
 0001:00034d6b       __CreateFrameInfo          10035d6b f   LIBCMT:trnsctrl.obj
 0001:00034d93       __IsExceptionObjectToBeDestroyed 10035d93 f   LIBCMT:trnsctrl.obj
 0001:00034db4       __FindAndUnlinkFrame       10035db4 f   LIBCMT:trnsctrl.obj
 0001:00034e00       ?_CallCatchBlock2@@YAPAXPAUEHRegistrationNode@@PBU_s_FuncInfo@@PAXHK@Z 10035e00 f   LIBCMT:trnsctrl.obj
 0001:00034e5e       @__security_check_cookie@4 10035e5e f   LIBCMT:secchk.obj
 0001:00034e6d       __snprintf                 10035e6d f   LIBCMT:snprintf.obj
 0001:00034f20       __alloca_probe             10035f20     LIBCMT:chkstk.obj
 0001:00034f20       __chkstk                   10035f20 f   LIBCMT:chkstk.obj
 0001:00034f50       _memset                    10035f50 f   LIBCMT:memset.obj
 0001:00034fca       __difftime64               10035fca f   LIBCMT:difftm64.obj
 0001:0003500b       __initp_misc_winxfltr      1003600b f   LIBCMT:winxfltr.obj
 0001:0003500b       __fpclear                  1003600b f   LIBCMT:fpinit.obj
 0001:0003500c       __cfltcvt_init             1003600c f   LIBCMT:fpinit.obj
 0001:0003506c       __fpmath                   1003606c f   LIBCMT:fpinit.obj
 0001:0003508a       __gmtime64_s               1003608a f   LIBCMT:gmtime64.obj
 0001:000352c6       __gmtime64                 100362c6 f   LIBCMT:gmtime64.obj
 0001:000352f0       __ftol2_sse                100362f0 f   LIBCMT:ftol2.obj
 0001:000352f9       __ftol2_pentium4           100362f9 f   LIBCMT:ftol2.obj
 0001:0003530c       __ftol2_sse_excpt          1003630c f   LIBCMT:ftol2.obj
 0001:00035326       __ftol2                    10036326 f   LIBCMT:ftol2.obj
 0001:000353a0       _strstr                    100363a0 f   LIBCMT:strstr.obj
 0001:00035430       _strncat                   10036430 f   LIBCMT:strncat.obj
 0001:00035565       __strdup                   10036565 f   LIBCMT:strdup.obj
 0001:00035662       ___onexitinit              10036662 f   LIBCMT:onexit.obj
 0001:00035691       __onexit                   10036691 f   LIBCMT:onexit.obj
 0001:000356cd       _atexit                    100366cd f   LIBCMT:onexit.obj
 0001:000356df       ??_V@YAXPAX@Z              100366df f   LIBCMT:delete2.obj
 0001:000356e4       _free                      100366e4 f   LIBCMT:free.obj
 0001:00035772       _fgetc                     10036772 f   LIBCMT:fgetc.obj
 0001:000358a9       _fputc                     100368a9 f   LIBCMT:fputc.obj
 0001:000359e8       __ungetc_nolock            100369e8 f   LIBCMT:ungetc.obj
 0001:00035b06       _ungetc                    10036b06 f   LIBCMT:ungetc.obj
 0001:00035b78       __flush                    10036b78 f   LIBCMT:fflush.obj
 0001:00035bda       __fflush_nolock            10036bda f   LIBCMT:fflush.obj
 0001:00035cf6       _fflush                    10036cf6 f   LIBCMT:fflush.obj
 0001:00035d49       __flushall                 10036d49 f   LIBCMT:fflush.obj
 0001:00035d52       _setvbuf                   10036d52 f   LIBCMT:setvbuf.obj
 0001:00035e50       __fwrite_nolock            10036e50 f   LIBCMT:fwrite.obj
 0001:00035f6a       _fwrite                    10036f6a f   LIBCMT:fwrite.obj
 0001:00035ff7       _fgetpos                   10036ff7 f   LIBCMT:fgetpos.obj
 0001:00036062       __fseek_nolock             10037062 f   LIBCMT:fseek.obj
 0001:000360e9       _fseek                     100370e9 f   LIBCMT:fseek.obj
 0001:0003616e       _fsetpos                   1003716e f   LIBCMT:fsetpos.obj
 0001:000361b0       __fclose_nolock            100371b0 f   LIBCMT:fclose.obj
 0001:00036223       _fclose                    10037223 f   LIBCMT:fclose.obj
 0001:0003629f       __close_nolock             1003729f f   LIBCMT:close.obj
 0001:00036333       __close                    10037333 f   LIBCMT:close.obj
 0001:00036400       __read_nolock              10037400 f   LIBCMT:read.obj
 0001:000369a2       __read                     100379a2 f   LIBCMT:read.obj
 0001:00036a7e       __lseeki64_nolock          10037a7e f   LIBCMT:lseeki64.obj
 0001:00036b01       __lseeki64                 10037b01 f   LIBCMT:lseeki64.obj
 0001:00036c1a       ?_sopen@@YAHPBDHHH@Z       10037c1a f   LIBCMT:openo.obj
 0001:00036c50       _memcpy                    10037c50 f   LIBCMT:memcpy.obj
 0001:00036fc0       _strncpy                   10037fc0 f   LIBCMT:strncpy.obj
 0001:000370f0       __except_handler4          100380f0 f   LIBCMT:chandler4.obj
 0001:00037286       _V6_HeapAlloc              10038286 f   LIBCMT:malloc.obj
 0001:000372d5       _malloc                    100382d5 f   LIBCMT:malloc.obj
 0001:00037398       ??0_LocaleUpdate@@QAE@PAUlocaleinfo_struct@@@Z 10038398 f i LIBCMT:mbscmp.obj
 0001:0003741a       __mbscmp_l                 1003841a f   LIBCMT:mbscmp.obj
 0001:00037536       __mbscmp                   10038536 f   LIBCMT:mbscmp.obj
 0001:00037549       __calloc_impl              10038549 f   LIBCMT:calloc.obj
 0001:00037667       _realloc                   10038667 f   LIBCMT:realloc.obj
 0001:00037882       __recalloc                 10038882 f   LIBCMT:realloc.obj
 0001:000378d0       __alloca_probe_16          100388d0 f   LIBCMT:alloca16.obj
 0001:000378e6       __alloca_probe_8           100388e6     LIBCMT:alloca16.obj
 0001:00037900       __allmul                   10038900 f   LIBCMT:llmul.obj
 0001:00037934       __mkdir                    10038934 f   LIBCMT:mkdir.obj
 0001:00037960       __fread_nolock_s           10038960 f   LIBCMT:fread.obj
 0001:00037af6       _fread_s                   10038af6 f   LIBCMT:fread.obj
 0001:00037bbd       _fread                     10038bbd f   LIBCMT:fread.obj
 0001:00037bd8       __ftell_nolock             10038bd8 f   LIBCMT:ftell.obj
 0001:00037d70       _ftell                     10038d70 f   LIBCMT:ftell.obj
 0001:00037dde       __fsopen                   10038dde f   LIBCMT:fopen.obj
 0001:00037ea2       _fopen                     10038ea2 f   LIBCMT:fopen.obj
 0001:00037f1d       _sscanf                    10038f1d f   LIBCMT:sscanf.obj
 0001:00037f3c       __tolower_l                10038f3c f   LIBCMT:tolower.obj
 0001:00038053       _tolower                   10039053 f   LIBCMT:tolower.obj
 0001:0003807a       __toupper_l                1003907a f   LIBCMT:toupper.obj
 0001:00038192       _toupper                   10039192 f   LIBCMT:toupper.obj
 0001:000381b9       _sprintf                   100391b9 f   LIBCMT:sprintf.obj
 0001:00038234       __vsnprintf_l              10039234 f   LIBCMT:vsnprint.obj
 0001:000382e5       _vsnprintf                 100392e5 f   LIBCMT:vsnprint.obj
 0001:000382e5       __vsnprintf                100392e5 f   LIBCMT:vsnprint.obj
 0001:0003852b       _strtol                    1003952b f   LIBCMT:strtol.obj
 0001:00038554       _atol                      10039554 f   LIBCMT:atox.obj
 0001:00038565       _atoi                      10039565 f   LIBCMT:atox.obj
 0001:0003856a       ___ascii_stricmp           1003956a f   LIBCMT:stricmp.obj
 0001:0003859f       __stricmp_l                1003959f f   LIBCMT:stricmp.obj
 0001:00038672       __stricmp                  10039672 f   LIBCMT:stricmp.obj
 0001:000386c2       __isupper_l                100396c2 f i LIBCMT:_ctype.obj
 0001:00038711       _isupper                   10039711 f i LIBCMT:_ctype.obj
 0001:0003873a       __islower_l                1003973a f i LIBCMT:_ctype.obj
 0001:00038789       _islower                   10039789 f i LIBCMT:_ctype.obj
 0001:000387b2       __isdigit_l                100397b2 f i LIBCMT:_ctype.obj
 0001:00038801       _isdigit                   10039801 f i LIBCMT:_ctype.obj
 0001:0003882a       __isxdigit_l               1003982a f i LIBCMT:_ctype.obj
 0001:0003887e       _isxdigit                  1003987e f i LIBCMT:_ctype.obj
 0001:000388a9       __isspace_l                100398a9 f i LIBCMT:_ctype.obj
 0001:000388f8       _isspace                   100398f8 f i LIBCMT:_ctype.obj
 0001:00038921       _rewind                    10039921 f   LIBCMT:rewind.obj
 0001:00038ab0       _qsort                     10039ab0 f   LIBCMT:qsort.obj
 0001:00038d60       __CIsqrt                   10039d60 f   LIBCMT:sqrt.obj
 0001:00038d74       _sqrt                      10039d74     LIBCMT:sqrt.obj
 0001:00038e1a       _ferror                    10039e1a f   LIBCMT:feoferr.obj
 0001:00038e49       __CRT_INIT@12              10039e49 f   LIBCMT:dllcrt0.obj
 0001:00039118       __DllMainCRTStartup@12     1003a118 f   LIBCMT:dllcrt0.obj
 0001:00039140       _strlen                    1003a140 f   LIBCMT:strlen.obj
 0001:000391cb       __EH_prolog3               1003a1cb f   LIBCMT:ehprolg3.obj
 0001:000391fe       __EH_prolog3_catch         1003a1fe f   LIBCMT:ehprolg3.obj
 0001:00039234       __EH_epilog3               1003a234 f   LIBCMT:ehprolg3.obj
 0001:00039248       __freea                    1003a248 f i LIBCMT:a_map.obj
 0001:00039605       ___crtLCMapStringA         1003a605 f   LIBCMT:a_map.obj
 0001:00039648       ___pctype_func             1003a648 f   LIBCMT:ctype.obj
 0001:00039671       ___init_ctype              1003a671 f   LIBCMT:initctyp.obj
 0001:00039a06       ____lc_codepage_func       1003aa06 f   LIBCMT:initctyp.obj
 0001:00039a2c       ____lc_handle_func         1003aa2c f   LIBCMT:initctyp.obj
 0001:00039a52       __malloc_crt               1003aa52 f   LIBCMT:crtheap.obj
 0001:00039a92       __calloc_crt               1003aa92 f   LIBCMT:crtheap.obj
 0001:00039ada       __realloc_crt              1003aada f   LIBCMT:crtheap.obj
 0001:00039b25       __recalloc_crt             1003ab25 f   LIBCMT:crtheap.obj
 0001:00039b75       ___freetlocinfo            1003ab75 f   LIBCMT:setlocal.obj
 0001:00039cb5       ___addlocaleref            1003acb5 f   LIBCMT:setlocal.obj
 0001:00039d3b       ___removelocaleref         1003ad3b f   LIBCMT:setlocal.obj
 0001:00039e29       ___updatetlocinfo          1003ae29 f   LIBCMT:setlocal.obj
 0001:00039ef2       ___init_dummy              1003aef2 f   LIBCMT:setlocal.obj
 0001:00039ef2       __matherr                  1003aef2 f   LIBCMT:matherr.obj
 0001:00039ef2       ___init_collate            1003aef2 f   LIBCMT:initcoll.obj
 0001:00039ef5       __strcats                  1003aef5 f   LIBCMT:setlocal.obj
 0001:00039f33       ___lc_strtolc              1003af33 f   LIBCMT:setlocal.obj
 0001:0003a05c       ___lc_lctostr              1003b05c f   LIBCMT:setlocal.obj
 0001:0003a238       __expandlocale             1003b238 f   LIBCMT:setlocal.obj
 0001:0003a8d0       _setlocale                 1003b8d0 f   LIBCMT:setlocal.obj
 0001:0003aa40       __wcstombs_l_helper        1003ba40 f   LIBCMT:wcstombs.obj
 0001:0003ac86       __wcstombs_s_l             1003bc86 f   LIBCMT:wcstombs.obj
 0001:0003ad37       _wcstombs_s                1003bd37 f   LIBCMT:wcstombs.obj
 0001:0003ad55       __wfsopen                  1003bd55 f   LIBCMT:wfopen.obj
 0001:0003ae1b       __amsg_exit                1003be1b f   LIBCMT:crt0dat.obj
 0001:0003ae3f       ___crtCorExitProcess       1003be3f f   LIBCMT:crt0dat.obj
 0001:0003ae65       ___crtExitProcess          1003be65 f   LIBCMT:crt0dat.obj
 0001:0003ae7a       __lockexit                 1003be7a f   LIBCMT:crt0dat.obj
 0001:0003ae83       __unlockexit               1003be83 f   LIBCMT:crt0dat.obj
 0001:0003aea4       __initterm_e               1003bea4 f   LIBCMT:crt0dat.obj
 0001:0003aec4       __get_osplatform           1003bec4 f   LIBCMT:crt0dat.obj
 0001:0003aefb       __get_winmajor             1003befb f   LIBCMT:crt0dat.obj
 0001:0003af37       __cinit                    1003bf37 f   LIBCMT:crt0dat.obj
 0001:0003b097       __exit                     1003c097 f   LIBCMT:crt0dat.obj
 0001:0003b0a8       __cexit                    1003c0a8 f   LIBCMT:crt0dat.obj
 0001:0003b0b7       __init_pointers            1003c0b7 f   LIBCMT:crt0dat.obj
 0001:0003b103       __mbstowcs_l_helper        1003c103 f   LIBCMT:mbstowcs.obj
 0001:0003b28b       __mbstowcs_s_l             1003c28b f   LIBCMT:mbstowcs.obj
 0001:0003b381       _mbstowcs_s                1003c381 f   LIBCMT:mbstowcs.obj
 0001:0003b39f       ??1bad_exception@std@@UAE@XZ 1003c39f f i LIBCMT:frame.obj
 0001:0003b3aa       ??_Ebad_exception@std@@UAEPAXI@Z 1003c3aa f i LIBCMT:frame.obj
 0001:0003b3aa       ??_Gbad_exception@std@@UAEPAXI@Z 1003c3aa f i LIBCMT:frame.obj
 0001:0003b3cc       ___TypeMatch               1003c3cc f   LIBCMT:frame.obj
 0001:0003b428       ___FrameUnwindFilter       1003c428 f   LIBCMT:frame.obj
 0001:0003b46c       ___FrameUnwindToState      1003c46c f   LIBCMT:frame.obj
 0001:0003b592       ___DestructExceptionObject 1003c592 f   LIBCMT:frame.obj
 0001:0003b5e6       ___AdjustPointer           1003c5e6 f   LIBCMT:frame.obj
 0001:0003b60b       ?__uncaught_exception@@YA_NXZ 1003c60b f   LIBCMT:frame.obj
 0001:0003b87c       ___BuildCatchObjectHelper  1003c87c f   LIBCMT:frame.obj
 0001:0003b9fb       ___BuildCatchObject        1003c9fb f   LIBCMT:frame.obj
 0001:0003bf40       ??0bad_exception@std@@QAE@ABV01@@Z 1003cf40 f i LIBCMT:frame.obj
 0001:0003bf58       ___InternalCxxFrameHandler 1003cf58 f   LIBCMT:frame.obj
 0001:0003c03c       _abort                     1003d03c f   LIBCMT:abort.obj
 0001:0003c12f       _strcpy_s                  1003d12f f   LIBCMT:strcpy_s.obj
 0001:0003c194       ?_Type_info_dtor@type_info@@CAXPAV1@@Z 1003d194 f   LIBCMT:typname.obj
 0001:0003c210       _strcmp                    1003d210 f   LIBCMT:strcmp.obj
 0001:0003c298       __get_errno_from_oserr     1003d298 f   LIBCMT:dosmap.obj
 0001:0003c2d3       __errno                    1003d2d3 f   LIBCMT:dosmap.obj
 0001:0003c2e6       ___doserrno                1003d2e6 f   LIBCMT:dosmap.obj
 0001:0003c2f9       __dosmaperr                1003d2f9 f   LIBCMT:dosmap.obj
 0001:0003c320       _memmove                   1003d320 f   LIBCMT:memmove.obj
 0001:0003cd67       ___tzset                   1003dd67 f   LIBCMT:tzset.obj
 0001:0003cdb6       __isindst                  1003ddb6 f   LIBCMT:tzset.obj
 0001:0003cdf7       __get_daylight             1003ddf7 f   LIBCMT:timeset.obj
 0001:0003ce2b       __get_dstbias              1003de2b f   LIBCMT:timeset.obj
 0001:0003ce5f       __get_timezone             1003de5f f   LIBCMT:timeset.obj
 0001:0003ce93       ___daylight                1003de93 f   LIBCMT:timeset.obj
 0001:0003ce99       ___dstbias                 1003de99 f   LIBCMT:timeset.obj
 0001:0003ce9f       ___timezone                1003de9f f   LIBCMT:timeset.obj
 0001:0003cea5       ___tzname                  1003dea5 f   LIBCMT:timeset.obj
 0001:0003ceb0       __alldiv                   1003deb0 f   LIBCMT:lldiv.obj
 0001:0003cf60       __allrem                   1003df60 f   LIBCMT:llrem.obj
 0001:0003d012       ___getgmtimebuf            1003e012 f   LIBCMT:gmtime.obj
 0001:0003d060       __aulldiv                  1003e060 f   LIBCMT:ulldiv.obj
 0001:0003d0c8       __crt_debugger_hook        1003e0c8 f   LIBCMT:dbghook.obj
 0001:0003d0d0       __encode_pointer           1003e0d0 f   LIBCMT:tidtable.obj
 0001:0003d133       __encoded_null             1003e133 f   LIBCMT:tidtable.obj
 0001:0003d13c       __decode_pointer           1003e13c f   LIBCMT:tidtable.obj
 0001:0003d19f       ___crtTlsAlloc@4           1003e19f f   LIBCMT:tidtable.obj
 0001:0003d1a8       ___set_flsgetvalue         1003e1a8 f   LIBCMT:tidtable.obj
 0001:0003d1d2       __mtterm                   1003e1d2 f   LIBCMT:tidtable.obj
 0001:0003d20f       __initptd                  1003e20f f   LIBCMT:tidtable.obj
 0001:0003d2c3       __getptd_noexit            1003e2c3 f   LIBCMT:tidtable.obj
 0001:0003d346       __getptd                   1003e346 f   LIBCMT:tidtable.obj
 0001:0003d35e       __freefls@4                1003e35e f   LIBCMT:tidtable.obj
 0001:0003d47f       __freeptd                  1003e47f f   LIBCMT:tidtable.obj
 0001:0003d4e8       __mtinit                   1003e4e8 f   LIBCMT:tidtable.obj
 0001:0003d66c       __initp_heap_handler       1003e66c f   LIBCMT:handler.obj
 0001:0003d676       __callnewh                 1003e676 f   LIBCMT:handler.obj
 0001:0003d698       ?__CxxUnhandledExceptionFilter@@YGJPAU_EXCEPTION_POINTERS@@@Z 1003e698 f   LIBCMT:unhandld.obj
 0001:0003d704       ?__CxxSetUnhandledExceptionFilter@@YAHXZ 1003e704 f   LIBCMT:unhandld.obj
 0001:0003d725       ?__CxxRestoreUnhandledExceptionFilter@@YAXXZ 1003e725 f   LIBCMT:unhandld.obj
 0001:0003d749       ?terminate@@YAXXZ          1003e749 f   LIBCMT:hooks.obj
 0001:0003d782       ?unexpected@@YAXXZ         1003e782 f   LIBCMT:hooks.obj
 0001:0003d795       ?_inconsistency@@YAXXZ     1003e795 f   LIBCMT:hooks.obj
 0001:0003d7cc       __initp_eh_hooks           1003e7cc f   LIBCMT:hooks.obj
 0001:0003d7e0       __CallSettingFrame@12      1003e7e0 f   LIBCMT:lowhelpr.obj
 0001:0003d807       __NLG_Return               1003e807     LIBCMT:lowhelpr.obj
 0001:0003d82c       ___report_gsfailure        1003e82c f   LIBCMT:gs_report.obj
 0001:0003d930       __flsbuf                   1003e930 f   LIBCMT:_flsbuf.obj
 0001:0003db31       __output_l                 1003eb31 f   LIBCMT:output.obj
 0001:0003e520       __VEC_memzero              1003f520 f   LIBCMT:p4_memset.obj
 0001:0003e5af       __sse2_mathfcns_init       1003f5af f   LIBCMT:mathfcns.obj
 0001:0003e5c3       __forcdecpt_l              1003f5c3 f   LIBCMT:cvt.obj
 0001:0003e634       __cropzeros_l              1003f634 f   LIBCMT:cvt.obj
 0001:0003e6b4       __positive                 1003f6b4 f   LIBCMT:cvt.obj
 0001:0003e6ca       __fassign_l                1003f6ca f   LIBCMT:cvt.obj
 0001:0003e70a       __fassign                  1003f70a f   LIBCMT:cvt.obj
 0001:0003e73e       __forcdecpt                1003f73e f   LIBCMT:cvt.obj
 0001:0003e74c       __cropzeros                1003f74c f   LIBCMT:cvt.obj
 0001:0003e8c7       __cftoe_l                  1003f8c7 f   LIBCMT:cvt.obj
 0001:0003e995       __cftoe                    1003f995 f   LIBCMT:cvt.obj
 0001:0003e9b3       __cftoa_l                  1003f9b3 f   LIBCMT:cvt.obj
 0001:0003ee19       __cftof_l                  1003fe19 f   LIBCMT:cvt.obj
 0001:0003eed2       __cftog_l                  1003fed2 f   LIBCMT:cvt.obj
 0001:0003efca       __cfltcvt_l                1003ffca f   LIBCMT:cvt.obj
 0001:0003f050       __cfltcvt                  10040050 f   LIBCMT:cvt.obj
 0001:0003f071       __initp_misc_cfltcvt_tab   10040071 f   LIBCMT:cmiscdat.obj
 0001:0003f090       __setdefaultprecision      10040090 f   LIBCMT:fp8.obj
 0001:0003f0b9       __ms_p5_test_fdiv          100400b9 f   LIBCMT:testfdiv.obj
 0001:0003f0f5       __ms_p5_mp_test_fdiv       100400f5 f   LIBCMT:testfdiv.obj
 0001:0003f130       _strchr                    10040130 f   LIBCMT:strchr.obj
 0001:0003f136       ___from_strstr_to_strchr   10040136     LIBCMT:strchr.obj
 0001:0003f1ee       __msize                    100401ee f   LIBCMT:msize.obj
 0001:0003f294       __SEH_prolog4              10040294 f   LIBCMT:sehprolg4.obj
 0001:0003f2d9       __SEH_epilog4              100402d9 f   LIBCMT:sehprolg4.obj
 0001:0003f2ed       ___heap_select             100402ed f   LIBCMT:heapinit.obj
 0001:0003f348       __heap_init                10040348 f   LIBCMT:heapinit.obj
 0001:0003f3a2       __heap_term                100403a2 f   LIBCMT:heapinit.obj
 0001:0003f416       __mtinitlocks              10040416 f   LIBCMT:mlock.obj
 0001:0003f45f       __mtdeletelocks            1004045f f   LIBCMT:mlock.obj
 0001:0003f4b4       __unlock                   100404b4 f   LIBCMT:mlock.obj
 0001:0003f4c9       __mtinitlocknum            100404c9 f   LIBCMT:mlock.obj
 0001:0003f58c       __lock                     1004058c f   LIBCMT:mlock.obj
 0001:0003f5bd       ___sbh_heap_init           100405bd f   LIBCMT:sbheap.obj
 0001:0003f605       ___sbh_find_block          10040605 f   LIBCMT:sbheap.obj
 0001:0003f630       ___sbh_free_block          10040630 f   LIBCMT:sbheap.obj
 0001:0003f944       ___sbh_alloc_new_region    10040944 f   LIBCMT:sbheap.obj
 0001:0003f9f4       ___sbh_alloc_new_group     100409f4 f   LIBCMT:sbheap.obj
 0001:0003fafa       ___sbh_resize_block        10040afa f   LIBCMT:sbheap.obj
 0001:0003fdd9       ___sbh_alloc_block         10040dd9 f   LIBCMT:sbheap.obj
 0001:000400bc       ___iob_func                100410bc f   LIBCMT:_file.obj
 0001:000400c2       ___initstdio               100410c2 f   LIBCMT:_file.obj
 0001:00040173       ___endstdio                10041173 f   LIBCMT:_file.obj
 0001:00040193       __lock_file                10041193 f   LIBCMT:_file.obj
 0001:000401c2       __lock_file2               100411c2 f   LIBCMT:_file.obj
 0001:000401e5       __unlock_file              100411e5 f   LIBCMT:_file.obj
 0001:00040214       __unlock_file2             10041214 f   LIBCMT:_file.obj
 0001:00040237       __filbuf                   10041237 f   LIBCMT:_filbuf.obj
 0001:00040357       __ioinit                   10041357 f   LIBCMT:ioinit.obj
 0001:00040597       __ioterm                   10041597 f   LIBCMT:ioinit.obj
 0001:000405e3       __fileno                   100415e3 f   LIBCMT:fileno.obj
 0001:00040610       __getbuf                   10041610 f   LIBCMT:_getbuf.obj
 0001:00040654       __write_nolock             10041654 f   LIBCMT:write.obj
 0001:00040c1a       __write                    10041c1a f   LIBCMT:write.obj
 0001:00040cf6       __commit                   10041cf6 f   LIBCMT:commit.obj
 0001:00040dd7       __freebuf                  10041dd7 f   LIBCMT:_freebuf.obj
 0001:00040e03       __ftelli64_nolock          10041e03 f   LIBCMT:ftelli64.obj
 0001:00040fb7       __ftelli64                 10041fb7 f   LIBCMT:ftelli64.obj
 0001:00041001       __lseek_nolock             10042001 f   LIBCMT:lseek.obj
 0001:00041073       __lseek                    10042073 f   LIBCMT:lseek.obj
 0001:0004114f       __fseeki64_nolock          1004214f f   LIBCMT:fseeki64.obj
 0001:000411e8       __fseeki64                 100421e8 f   LIBCMT:fseeki64.obj
 0001:00041237       __set_osfhnd               10042237 f   LIBCMT:osfinfo.obj
 0001:000412b4       __free_osfhnd              100422b4 f   LIBCMT:osfinfo.obj
 0001:00041335       __get_osfhandle            10042335 f   LIBCMT:osfinfo.obj
 0001:000413a6       ___lock_fhandle            100423a6 f   LIBCMT:osfinfo.obj
 0001:00041446       __unlock_fhandle           10042446 f   LIBCMT:osfinfo.obj
 0001:00041468       __alloc_osfhnd             10042468 f   LIBCMT:osfinfo.obj
 0001:00041c45       __sopen_helper             10042c45 f   LIBCMT:open.obj
 0001:00041d11       __sopen_s                  10042d11 f   LIBCMT:open.obj
 0001:0004236e       __wsopen_helper            1004336e f   LIBCMT:wopen.obj
 0001:0004243a       __wsopen_s                 1004343a f   LIBCMT:wopen.obj
 0001:000424df       __VEC_memcpy               100434df f   LIBCMT:p4_memcpy.obj
 0001:000425c4       __local_unwind4            100435c4 f   LIBCMT:exsup4.obj
 0001:0004269a       __seh_longjmp_unwind4@4    1004369a f   LIBCMT:exsup4.obj
 0001:000426b6       @_EH4_CallFilterFunc@8     100436b6 f   LIBCMT:exsup4.obj
 0001:000426cd       @_EH4_TransferToHandler@8  100436cd f   LIBCMT:exsup4.obj
 0001:000426e6       @_EH4_GlobalUnwind@4       100436e6 f   LIBCMT:exsup4.obj
 0001:00042700       @_EH4_LocalUnwind@16       10043700 f   LIBCMT:exsup4.obj
 0001:00042720       __ValidateImageBase        10043720 f   LIBCMT:pesect.obj
 0001:00042750       __FindPESection            10043750 f   LIBCMT:pesect.obj
 0001:00042792       __IsNonwritableInCurrentImage 10043792 f   LIBCMT:pesect.obj
 0001:000427fe       __NMSG_WRITE               100437fe f   LIBCMT:crt0msg.obj
 0001:0004299e       __FF_MSGBANNER             1004399e f   LIBCMT:crt0msg.obj
 0001:00042be5       ___updatetmbcinfo          10043be5 f   LIBCMT:mbctype.obj
 0001:00042d03       __setmbcp_nolock           10043d03 f   LIBCMT:mbctype.obj
 0001:00042eae       __setmbcp                  10043eae f   LIBCMT:mbctype.obj
 0001:00043048       ___initmbctable            10044048 f   LIBCMT:mbctype.obj
 0001:00043066       __openfile                 10044066 f   LIBCMT:_open.obj
 0001:00043308       __getstream                10044308 f   LIBCMT:stream.obj
 0001:000434bd       __input_l                  100444bd f   LIBCMT:input.obj
 0001:0004410a       __isleadbyte_l             1004510a f i LIBCMT:_wctype.obj
 0001:00044140       _isleadbyte                10045140 f i LIBCMT:_wctype.obj
 0001:0004414e       __isctype_l                1004514e f   LIBCMT:isctype.obj
 0001:00044210       __trandisp1                10045210 f   LIBCMT:87disp.obj
 0001:00044277       __trandisp2                10045277 f   LIBCMT:87disp.obj
 0001:00044303       __rttospopde               10045303     LIBCMT:87disp.obj
 0001:00044308       __rttospop                 10045308     LIBCMT:87disp.obj
 0001:0004430a       __rtnospop                 1004530a     LIBCMT:87disp.obj
 0001:0004430c       __rttosnpop                1004530c     LIBCMT:87disp.obj
 0001:0004430d       __rtnospopde               1004530d     LIBCMT:87disp.obj
 0001:00044314       __rtzeropop                10045314     LIBCMT:87disp.obj
 0001:00044316       __rtzeronpop               10045316     LIBCMT:87disp.obj
 0001:0004431b       __rtonepop                 1004531b     LIBCMT:87disp.obj
 0001:0004431d       __rtonenpop                1004531d     LIBCMT:87disp.obj
 0001:00044322       __tosnan1                  10045322     LIBCMT:87disp.obj
 0001:0004434d       __nosnan2                  1004534d     LIBCMT:87disp.obj
 0001:0004434f       __tosnan2                  1004534f     LIBCMT:87disp.obj
 0001:00044377       __nan2                     10045377     LIBCMT:87disp.obj
 0001:000443b6       __rtindfpop                100453b6     LIBCMT:87disp.obj
 0001:000443b8       __rtindfnpop               100453b8     LIBCMT:87disp.obj
 0001:000443c9       __rttosnpopde              100453c9     LIBCMT:87disp.obj
 0001:000443d3       __rtchsifneg               100453d3     LIBCMT:87disp.obj
 0001:000443e0       __startTwoArgErrorHandling 100453e0 f   LIBCMT:genexcep.obj
 0001:000443f7       __startOneArgErrorHandling 100453f7 f   LIBCMT:genexcep.obj
 0001:00044440       __twoToTOS                 10045440 f   LIBCMT:common.obj
 0001:00044455       __load_CW                  10045455 f   LIBCMT:common.obj
 0001:0004446c       __convertTOStoQNaN         1004546c f   LIBCMT:common.obj
 0001:00044485       __fload_withFB             10045485 f   LIBCMT:common.obj
 0001:000444c8       __checkTOS_withFB          100454c8 f   LIBCMT:common.obj
 0001:000444de       __fast_exit                100454de f   LIBCMT:common.obj
 0001:000444eb       __math_exit                100454eb f   LIBCMT:common.obj
 0001:00044515       __check_overflow_exit      10045515 f   LIBCMT:common.obj
 0001:00044529       __check_range_exit         10045529 f   LIBCMT:common.obj
 0001:000445cc       __setenvp                  100455cc f   LIBCMT:stdenvp.obj
 0001:0004483f       __setargv                  1004583f f   LIBCMT:stdargv.obj
 0001:000448f8       ___crtGetEnvironmentStringsA 100458f8 f   LIBCMT:a_env.obj
 0001:00044a2d       __RTC_Initialize           10045a2d f   LIBCMT:initsect.obj
 0001:00044a51       __RTC_Terminate            10045a51 f   LIBCMT:initsect.obj
 0001:00044a75       __XcptFilter               10045a75 f   LIBCMT:winxfltr.obj
 0001:00044be4       ___CppXcptFilter           10045be4 f   LIBCMT:winxfltr.obj
 0001:00044bff       ___security_init_cookie    10045bff f   LIBCMT:gs_support.obj
 0001:00044c93       ___ansicp                  10045c93 f   LIBCMT:convrtcp.obj
 0001:00044cda       ___convertcp               10045cda f   LIBCMT:convrtcp.obj
 0001:00045044       ___crtGetStringTypeA       10046044 f   LIBCMT:a_str.obj
 0001:00045084       ___getlocaleinfo           10046084 f   LIBCMT:inithelp.obj
 0001:000451de       __initp_misc_purevirt      100461de f   LIBCMT:inithelp.obj
 0001:00045601       ___free_lc_time            10046601 f   LIBCMT:inittime.obj
 0001:00045791       ___init_time               10046791 f   LIBCMT:inittime.obj
 0001:00045804       ___free_lconv_num          10046804 f   LIBCMT:initnum.obj
 0001:00045844       ___init_numeric            10046844 f   LIBCMT:initnum.obj
 0001:00045a0c       ___free_lconv_mon          10046a0c f   LIBCMT:initmon.obj
 0001:00045a95       ___init_monetary           10046a95 f   LIBCMT:initmon.obj
 0001:00045d59       _strcat_s                  10046d59 f   LIBCMT:strcat_s.obj
 0001:00045dd0       _strcspn                   10046dd0 f   LIBCMT:strcspn.obj
 0001:00045e16       _strncpy_s                 10046e16 f   LIBCMT:strncpy_s.obj
 0001:00046443       ___get_qualified_locale    10047443 f   LIBCMT:getqloc.obj
 0001:00046626       _memcmp                    10047626 f   LIBCMT:memcmp.obj
 0001:00047ca6       _strncmp                   10048ca6 f   LIBCMT:strncmp.obj
 0001:00047d70       _strpbrk                   10048d70 f   LIBCMT:strpbrk.obj
 0001:00047db0       _wcslen                    10048db0 f   LIBCMT:wcslen.obj
 0001:00047dc6       __wopenfile                10048dc6 f   LIBCMT:_wopen.obj
 0001:00048052       __initp_misc_winsig        10049052 f   LIBCMT:winsig.obj
 0001:0004809f       ___get_sigabrt             1004909f f   LIBCMT:winsig.obj
 0001:000480ac       _raise                     100490ac f   LIBCMT:winsig.obj
 0001:0004825c       __initp_misc_rand_s        1004925c f   LIBCMT:rand_s.obj
 0001:00048266       __initp_misc_initcrit      10049266 f   LIBCMT:initcrit.obj
 0001:00048280       ___crtInitCritSecAndSpinCount 10049280 f   LIBCMT:initcrit.obj
 0001:00048345       ?_ValidateExecute@@YAHP6GHXZ@Z 10049345 f   LIBCMT:validate.obj
 0001:00048345       ?_ValidateWrite@@YAHPAXI@Z 10049345 f   LIBCMT:validate.obj
 0001:00048345       ?_ValidateRead@@YAHPBXI@Z  10049345 f   LIBCMT:validate.obj
 0001:00048352       __getenv_helper_nolock     10049352 f   LIBCMT:getenv.obj
 0001:000483d4       __global_unwind2           100493d4 f   LIBCMT:exsup.obj
 0001:00048439       __local_unwind2            10049439 f   LIBCMT:exsup.obj
 0001:000484bd       __abnormal_termination     100494bd f   LIBCMT:exsup.obj
 0001:000484e0       __NLG_Notify1              100494e0 f   LIBCMT:exsup.obj
 0001:000484e9       __NLG_Notify               100494e9 f   LIBCMT:exsup.obj
 0001:00048500       __NLG_Dispatch2            10049500     LIBCMT:exsup.obj
 0001:00048500       __NLG_Dispatch             10049500     LIBCMT:exsup.obj
 0001:00048508       __NLG_Call                 10049508 f   LIBCMT:exsup.obj
 0001:0004850a       __NLG_Return2              1004950a     LIBCMT:exsup.obj
 0001:0004850b       __isatty                   1004950b f   LIBCMT:isatty.obj
 0001:00048569       __get_printf_count_output  10049569 f   LIBCMT:printf.obj
 0001:0004857f       __wctomb_s_l               1004957f f   LIBCMT:wctomb.obj
 0001:000486de       _wctomb_s                  100496de f   LIBCMT:wctomb.obj
 0001:00048700       __aulldvrm                 10049700 f   LIBCMT:ulldvrm.obj
 0001:000487e5       __get_sse2_info            100497e5 f   LIBCMT:cpu_disp.obj
 0001:00048845       ___sse2_available_init     10049845 f   LIBCMT:cpu_disp.obj
 0001:00048860       _strrchr                   10049860 f   LIBCMT:strrchr.obj
 0001:0004888d       __atodbl_l                 1004988d f   LIBCMT:atodbl.obj
 0001:00048933       __atoflt_l                 10049933 f   LIBCMT:atodbl.obj
 0001:000489d9       __fptostr                  100499d9 f   LIBCMT:_fptostr.obj
 0001:00048a96       ___dtold                   10049a96 f   LIBCMT:cfout.obj
 0001:00048b51       __fltout2                  10049b51 f   LIBCMT:cfout.obj
 0001:00048be0       __alldvrm                  10049be0 f   LIBCMT:lldvrm.obj
 0001:00048cc0       __aullshr                  10049cc0 f   LIBCMT:ullshr.obj
 0001:00048cdf       __fptrap                   10049cdf f   LIBCMT:crt0fp.obj
 0001:00048ce8       __controlfp_s              10049ce8 f   LIBCMT:contrlfp.obj
 0001:00048d52       __fcloseall                10049d52 f   LIBCMT:closeall.obj
 0001:00048df1       __putwch_nolock            10049df1 f   LIBCMT:putwch.obj
 0001:00048eb3       __mbtowc_l                 10049eb3 f   LIBCMT:mbtowc.obj
 0001:00048fc6       _mbtowc                    10049fc6 f   LIBCMT:mbtowc.obj
 0001:00048fdd       __chsize_nolock            10049fdd f   LIBCMT:chsize.obj
 0001:00049191       __setmode_nolock           1004a191 f   LIBCMT:setmode.obj
 0001:0004924d       __get_fmode                1004a24d f   LIBCMT:setmode.obj
 0001:00049281       ___crtMessageBoxA          1004a281 f   LIBCMT:crtmbox.obj
 0001:0004941f       __set_error_mode           1004a41f f   LIBCMT:errmode.obj
 0001:00049465       __mbsicmp_l                1004a465 f   LIBCMT:mbsicmp.obj
 0001:0004967f       __mbsicmp                  1004a67f f   LIBCMT:mbsicmp.obj
 0001:00049692       __mbsnbcmp_l               1004a692 f   LIBCMT:mbsnbcmp.obj
 0001:000497fb       __mbsnbcmp                 1004a7fb f   LIBCMT:mbsnbcmp.obj
 0001:00049812       __iswctype_l               1004a812 f   LIBCMT:iswctype.obj
 0001:00049894       __87except                 1004a894 f   LIBCMT:87except.obj
 0001:000499e1       __ismbblead                1004a9e1 f   LIBCMT:ismbbyte.obj
 0001:00049b2f       ___crtGetLocaleInfoW       1004ab2f f   LIBCMT:w_loc.obj
 0001:00049ca7       ___crtGetLocaleInfoA       1004aca7 f   LIBCMT:a_loc.obj
 0001:00049ce2       __strnicmp_l               1004ace2 f   LIBCMT:strnicmp.obj
 0001:00049dd2       __strnicmp                 1004add2 f   LIBCMT:strnicmp.obj
 0001:00049f09       __itoa_s                   1004af09 f   LIBCMT:xtoas.obj
 0001:00049f31       __wcsicmp_l                1004af31 f   LIBCMT:wcsicmp.obj
 0001:0004a040       __wcsicmp                  1004b040 f   LIBCMT:wcsicmp.obj
 0001:0004a0d1       _wcsncmp                   1004b0d1 f   LIBCMT:wcsncmp.obj
 0001:0004a106       __mbsnbicoll_l             1004b106 f   LIBCMT:mbsnbico.obj
 0001:0004a1f2       __mbsnbicoll               1004b1f2 f   LIBCMT:mbsnbico.obj
 0001:0004a209       ___wtomb_environ           1004b209 f   LIBCMT:wtombenv.obj
 0001:0004a29e       __ld12tod                  1004b29e f   LIBCMT:intrncvt.obj
 0001:0004a7e0       __ld12tof                  1004b7e0 f   LIBCMT:intrncvt.obj
 0001:0004ad22       ___strgtold12_l            1004bd22 f   LIBCMT:strgtold.obj
 0001:0004b3e6       _$I10_OUTPUT               1004c3e6 f   LIBCMT:x10fout.obj
 0001:0004bddc       __control87                1004cddc f i LIBCMT:ieee87.obj
 0001:0004c0df       ___initconout              1004d0df f   LIBCMT:initcon.obj
 0001:0004c0fe       ___termcon                 1004d0fe f   LIBCMT:initcon.obj
 0001:0004c34f       ___crtGetStringTypeW       1004d34f f   LIBCMT:w_str.obj
 0001:0004c38d       __raise_exc_ex             1004d38d f   LIBCMT:fpexcept.obj
 0001:0004c667       __raise_exc                1004d667 f   LIBCMT:fpexcept.obj
 0001:0004c688       __handle_exc               1004d688 f   LIBCMT:fpexcept.obj
 0001:0004c869       __set_errno_from_matherr   1004d869 f   LIBCMT:fpexcept.obj
 0001:0004c891       __statfp                   1004d891 f   LIBCMT:fpctrl.obj
 0001:0004c89c       __clrfp                    1004d89c f   LIBCMT:fpctrl.obj
 0001:0004c8a8       __ctrlfp                   1004d8a8 f   LIBCMT:fpctrl.obj
 0001:0004c8cf       __set_statfp               1004d8cf f   LIBCMT:fpctrl.obj
 0001:0004c925       ___set_fpsr_sse2           1004d925 f   LIBCMT:fpctrl.obj
 0001:0004c9a0       ___ascii_strnicmp          1004d9a0 f   LIBCMT:_strnicm.obj
 0001:0004ca01       __towlower_l               1004da01 f   LIBCMT:towlower.obj
 0001:0004ce37       ___crtCompareStringA       1004de37 f   LIBCMT:a_cmp.obj
 0001:0004ce77       __strnicoll_l              1004de77 f   LIBCMT:strnicol.obj
 0001:0004d019       ___crtsetenv               1004e019 f   LIBCMT:setenv.obj
 0001:0004d260       ___mtold12                 1004e260 f   LIBCMT:mantold.obj
 0001:0004d42c       __set_exp                  1004e42c f   LIBCMT:util.obj
 0001:0004d456       __decomp                   1004e456 f   LIBCMT:util.obj
 0001:0004d766       ___crtLCMapStringW         1004e766 f   LIBCMT:w_map.obj
 0001:0004d7a6       __mbschr_l                 1004e7a6 f   LIBCMT:mbschr.obj
 0001:0004d860       __mbschr                   1004e860 f   LIBCMT:mbschr.obj
 0001:0004d874       ___WSAFDIsSet@8            1004e874 f   ws2_32:WS2_32.dll
 0001:0004d87a       ?_AtlGetThreadACPFake@ATL@@YGIXZ 1004e87a f i atls:atltrace.obj
 0001:0004d8df       ?_AtlGetThreadACPReal@ATL@@YGIXZ 1004e8df f i atls:atltrace.obj
 0001:0004d8e3       ?_AtlGetThreadACPThunk@ATL@@YGIXZ 1004e8e3 f i atls:atltrace.obj
 0001:0004d947       ??0CComCriticalSection@ATL@@QAE@XZ 1004e947 f i atls:atlbase.obj
 0001:0004d95b       ?Init@CComCriticalSection@ATL@@QAEJXZ 1004e95b f i atls:atlbase.obj
 0001:0004d9a6       ?AtlWinModuleInit@ATL@@YGJPAU_ATL_WIN_MODULE70@1@@Z 1004e9a6 f i atls:atlbase.obj
 0001:0004d9c9       ?RemoveAll@?$CSimpleArray@PAUHINSTANCE__@@V?$CSimpleArrayEqualHelper@PAUHINSTANCE__@@@ATL@@@ATL@@QAEXXZ 1004e9c9 f i atls:atlbase.obj
 0001:0004d9c9       ?RemoveAll@?$CSimpleArray@GV?$CSimpleArrayEqualHelper@G@ATL@@@ATL@@QAEXXZ 1004e9c9 f i atls:atlbase.obj
 0001:0004d9e6       ??A?$CSimpleArray@GV?$CSimpleArrayEqualHelper@G@ATL@@@ATL@@QAEAAGH@Z 1004e9e6 f i atls:atlbase.obj
 0001:0004da0d       ??A?$CSimpleArray@PAUHINSTANCE__@@V?$CSimpleArrayEqualHelper@PAUHINSTANCE__@@@ATL@@@ATL@@QAEAAPAUHINSTANCE__@@H@Z 1004ea0d f i atls:atlbase.obj
 0001:0004da34       ??0_ATL_WIN_MODULE70@ATL@@QAE@XZ 1004ea34 f i atls:atlbase.obj
 0001:0004da4e       ?AtlWinModuleTerm@ATL@@YGJPAU_ATL_WIN_MODULE70@1@PAUHINSTANCE__@@@Z 1004ea4e f i atls:atlbase.obj
 0001:0004daae       ??1?$CComCritSecLock@VCComCriticalSection@ATL@@@ATL@@QAE@XZ 1004eaae f i atls:atlbase.obj
 0001:0004dac5       ??0_ATL_BASE_MODULE70@ATL@@QAE@XZ 1004eac5 f i atls:atlbase.obj
 0001:0004dadf       ??1CAtlBaseModule@ATL@@QAE@XZ 1004eadf f   atls:atlbase.obj
 0001:0004daf5       ?GetHInstanceAt@CAtlBaseModule@ATL@@QAEPAUHINSTANCE__@@H@Z 1004eaf5 f   atls:atlbase.obj
 0001:0004db4b       ??0CAtlWinModule@ATL@@QAE@XZ 1004eb4b f i atls:atlbase.obj
 0001:0004db71       ??0CAtlBaseModule@ATL@@QAE@XZ 1004eb71 f   atls:atlbase.obj
 0001:0004dc20       ??1CAtlWinModule@ATL@@QAE@XZ 1004ec20 f i atls:atlbase.obj
 0001:0004dc38       ??1CWin32Heap@ATL@@UAE@XZ  1004ec38 f i atls:atlstr.obj
 0001:0004dc53       ?Allocate@CWin32Heap@ATL@@UAEPAXI@Z 1004ec53 f i atls:atlstr.obj
 0001:0004dc65       ?Free@CWin32Heap@ATL@@UAEXPAX@Z 1004ec65 f i atls:atlstr.obj
 0001:0004dc7e       ?Reallocate@CWin32Heap@ATL@@UAEPAXPAXI@Z 1004ec7e f i atls:atlstr.obj
 0001:0004dcb6       ?GetSize@CWin32Heap@ATL@@UAEIPAX@Z 1004ecb6 f i atls:atlstr.obj
 0001:0004dcc8       ??_GCWin32Heap@ATL@@UAEPAXI@Z 1004ecc8 f i atls:atlstr.obj
 0001:0004dcc8       ??_ECWin32Heap@ATL@@UAEPAXI@Z 1004ecc8 f i atls:atlstr.obj
 0001:0004dce4       ??0CAtlStringMgr@ATL@@QAE@PAUIAtlMemMgr@1@@Z 1004ece4 f i atls:atlstr.obj
 0001:0004dd10       ??$AtlMultiply@K@ATL@@YAJPAKKK@Z 1004ed10 f i atls:atlstr.obj
 0001:0004dd30       ?Free@CAtlStringMgr@ATL@@UAEXPAUCStringData@2@@Z 1004ed30 f i atls:atlstr.obj
 0001:0004dd38       ?GetNilString@CAtlStringMgr@ATL@@UAEPAUCStringData@2@XZ 1004ed38 f i atls:atlstr.obj
 0001:0004dd46       ?Clone@CAtlStringMgr@ATL@@UAEPAUIAtlStringMgr@2@XZ 1004ed46 f i atls:atlstr.obj
 0001:0004dd49       ??_GCAtlStringMgr@ATL@@UAEPAXI@Z 1004ed49 f i atls:atlstr.obj
 0001:0004dd49       ??_ECAtlStringMgr@ATL@@UAEPAXI@Z 1004ed49 f i atls:atlstr.obj
 0001:0004dd66       ??$AtlAdd@I@ATL@@YAJPAIII@Z 1004ed66 f i atls:atlstr.obj
 0001:0004dd88       ?Allocate@CAtlStringMgr@ATL@@UAEPAUCStringData@2@HH@Z 1004ed88 f i atls:atlstr.obj
 0001:0004ddea       ?Reallocate@CAtlStringMgr@ATL@@UAEPAUCStringData@2@PAU32@HH@Z 1004edea f i atls:atlstr.obj
 0001:0004de44       _GdipGetImageEncodersSize@8 1004ee44 f   gdiplus:gdiplus.dll
 0001:0004de4a       _GdipGetImageEncoders@12   1004ee4a f   gdiplus:gdiplus.dll
 0001:0004de50       _RtlUnwind@16              1004ee50 f   kernel32:KERNEL32.dll
 0002:00000000       __imp__RegSetValueExA@24   10052000     advapi32:ADVAPI32.dll
 0002:00000004       \177ADVAPI32_NULL_THUNK_DATA 10052004     advapi32:ADVAPI32.dll
 0002:00000008       __imp__CreateFileW@28      10052008     kernel32:KERNEL32.dll
 0002:0000000c       __imp__CreateFileA@28      1005200c     kernel32:KERNEL32.dll
 0002:00000010       __imp__SetStdHandle@8      10052010     kernel32:KERNEL32.dll
 0002:00000014       __imp__FlushFileBuffers@4  10052014     kernel32:KERNEL32.dll
 0002:00000018       __imp__GetConsoleMode@8    10052018     kernel32:KERNEL32.dll
 0002:0000001c       __imp__GetConsoleCP@0      1005201c     kernel32:KERNEL32.dll
 0002:00000020       __imp__WriteFile@20        10052020     kernel32:KERNEL32.dll
 0002:00000024       __imp__GetStartupInfoA@4   10052024     kernel32:KERNEL32.dll
 0002:00000028       __imp__GetFileType@4       10052028     kernel32:KERNEL32.dll
 0002:0000002c       __imp__GetStdHandle@4      1005202c     kernel32:KERNEL32.dll
 0002:00000030       __imp__GetFileAttributesA@4 10052030     kernel32:KERNEL32.dll
 0002:00000034       __imp__SetCurrentDirectoryA@4 10052034     kernel32:KERNEL32.dll
 0002:00000038       __imp__Sleep@4             10052038     kernel32:KERNEL32.dll
 0002:0000003c       __imp__GetCommandLineA@0   1005203c     kernel32:KERNEL32.dll
 0002:00000040       __imp__FindVolumeClose@4   10052040     kernel32:KERNEL32.dll
 0002:00000044       __imp__FindFirstVolumeA@8  10052044     kernel32:KERNEL32.dll
 0002:00000048       __imp__CloseHandle@4       10052048     kernel32:KERNEL32.dll
 0002:0000004c       __imp__OpenProcess@12      1005204c     kernel32:KERNEL32.dll
 0002:00000050       __imp__GetProcessId@4      10052050     kernel32:KERNEL32.dll
 0002:00000054       __imp__GetCurrentProcess@0 10052054     kernel32:KERNEL32.dll
 0002:00000058       __imp__CreateDirectoryA@8  10052058     kernel32:KERNEL32.dll
 0002:0000005c       __imp__GetModuleFileNameA@12 1005205c     kernel32:KERNEL32.dll
 0002:00000060       __imp__ReleaseMutex@4      10052060     kernel32:KERNEL32.dll
 0002:00000064       __imp__WaitForSingleObject@8 10052064     kernel32:KERNEL32.dll
 0002:00000068       __imp__CreateMutexA@12     10052068     kernel32:KERNEL32.dll
 0002:0000006c       __imp__IsBadReadPtr@8      1005206c     kernel32:KERNEL32.dll
 0002:00000070       __imp__IsBadWritePtr@8     10052070     kernel32:KERNEL32.dll
 0002:00000074       __imp__ResumeThread@4      10052074     kernel32:KERNEL32.dll
 0002:00000078       __imp__CreateThread@24     10052078     kernel32:KERNEL32.dll
 0002:0000007c       __imp__TerminateProcess@8  1005207c     kernel32:KERNEL32.dll
 0002:00000080       __imp__SetUnhandledExceptionFilter@4 10052080     kernel32:KERNEL32.dll
 0002:00000084       __imp__GetSystemDefaultUILanguage@0 10052084     kernel32:KERNEL32.dll
 0002:00000088       __imp__MoveFileA@8         10052088     kernel32:KERNEL32.dll
 0002:0000008c       __imp__DeleteFileA@4       1005208c     kernel32:KERNEL32.dll
 0002:00000090       __imp__InterlockedExchange@8 10052090     kernel32:KERNEL32.dll
 0002:00000094       __imp__MultiByteToWideChar@24 10052094     kernel32:KERNEL32.dll
 0002:00000098       __imp__WideCharToMultiByte@32 10052098     kernel32:KERNEL32.dll
 0002:0000009c       __imp__GetLastError@0      1005209c     kernel32:KERNEL32.dll
 0002:000000a0       __imp__GetACP@0            100520a0     kernel32:KERNEL32.dll
 0002:000000a4       __imp__LockResource@4      100520a4     kernel32:KERNEL32.dll
 0002:000000a8       __imp__LoadResource@8      100520a8     kernel32:KERNEL32.dll
 0002:000000ac       __imp__FindResourceA@12    100520ac     kernel32:KERNEL32.dll
 0002:000000b0       __imp__FindResourceExA@16  100520b0     kernel32:KERNEL32.dll
 0002:000000b4       __imp__CompareStringA@24   100520b4     kernel32:KERNEL32.dll
 0002:000000b8       __imp__CompareStringW@24   100520b8     kernel32:KERNEL32.dll
 0002:000000bc       __imp__GetTickCount@0      100520bc     kernel32:KERNEL32.dll
 0002:000000c0       __imp__ExitProcess@4       100520c0     kernel32:KERNEL32.dll
 0002:000000c4       __imp__CreateProcessA@40   100520c4     kernel32:KERNEL32.dll
 0002:000000c8       __imp__CopyFileA@12        100520c8     kernel32:KERNEL32.dll
 0002:000000cc       __imp__GetLocalTime@4      100520cc     kernel32:KERNEL32.dll
 0002:000000d0       __imp__SetHandleCount@4    100520d0     kernel32:KERNEL32.dll
 0002:000000d4       __imp__VirtualFree@12      100520d4     kernel32:KERNEL32.dll
 0002:000000d8       __imp__HeapCreate@12       100520d8     kernel32:KERNEL32.dll
 0002:000000dc       __imp__HeapDestroy@4       100520dc     kernel32:KERNEL32.dll
 0002:000000e0       __imp__HeapSize@12         100520e0     kernel32:KERNEL32.dll
 0002:000000e4       __imp__SetLastError@4      100520e4     kernel32:KERNEL32.dll
 0002:000000e8       __imp__TlsFree@4           100520e8     kernel32:KERNEL32.dll
 0002:000000ec       __imp__TlsSetValue@8       100520ec     kernel32:KERNEL32.dll
 0002:000000f0       __imp__TlsAlloc@0          100520f0     kernel32:KERNEL32.dll
 0002:000000f4       __imp__TlsGetValue@4       100520f4     kernel32:KERNEL32.dll
 0002:000000f8       __imp__GetTimeZoneInformation@4 100520f8     kernel32:KERNEL32.dll
 0002:000000fc       __imp__GetCPInfo@8         100520fc     kernel32:KERNEL32.dll
 0002:00000100       __imp__LCMapStringW@24     10052100     kernel32:KERNEL32.dll
 0002:00000104       __imp__LCMapStringA@24     10052104     kernel32:KERNEL32.dll
 0002:00000108       __imp__GetProcessHeap@0    10052108     kernel32:KERNEL32.dll
 0002:0000010c       __imp__GetVersionExA@4     1005210c     kernel32:KERNEL32.dll
 0002:00000110       __imp__SizeofResource@8    10052110     kernel32:KERNEL32.dll
 0002:00000114       __imp__GetOEMCP@0          10052114     kernel32:KERNEL32.dll
 0002:00000118       __imp__GetModuleHandleA@4  10052118     kernel32:KERNEL32.dll
 0002:0000011c       __imp__GetProcAddress@8    1005211c     kernel32:KERNEL32.dll
 0002:00000120       __imp__GetThreadLocale@0   10052120     kernel32:KERNEL32.dll
 0002:00000124       __imp__SetEnvironmentVariableA@8 10052124     kernel32:KERNEL32.dll
 0002:00000128       __imp__GetLocaleInfoW@16   10052128     kernel32:KERNEL32.dll
 0002:0000012c       __imp__SetEndOfFile@4      1005212c     kernel32:KERNEL32.dll
 0002:00000130       __imp__WriteConsoleW@20    10052130     kernel32:KERNEL32.dll
 0002:00000134       __imp__GetConsoleOutputCP@0 10052134     kernel32:KERNEL32.dll
 0002:00000138       __imp__WriteConsoleA@20    10052138     kernel32:KERNEL32.dll
 0002:0000013c       __imp__LoadLibraryA@4      1005213c     kernel32:KERNEL32.dll
 0002:00000140       __imp__GetCurrentThreadId@0 10052140     kernel32:KERNEL32.dll
 0002:00000144       __imp__IsValidCodePage@4   10052144     kernel32:KERNEL32.dll
 0002:00000148       __imp__IsValidLocale@8     10052148     kernel32:KERNEL32.dll
 0002:0000014c       __imp__EnumSystemLocalesA@8 1005214c     kernel32:KERNEL32.dll
 0002:00000150       __imp__GetUserDefaultLCID@0 10052150     kernel32:KERNEL32.dll
 0002:00000154       __imp__GetStringTypeW@16   10052154     kernel32:KERNEL32.dll
 0002:00000158       __imp__GetStringTypeA@20   10052158     kernel32:KERNEL32.dll
 0002:0000015c       __imp__GetLocaleInfoA@16   1005215c     kernel32:KERNEL32.dll
 0002:00000160       __imp__GetCurrentProcessId@0 10052160     kernel32:KERNEL32.dll
 0002:00000164       __imp__QueryPerformanceCounter@4 10052164     kernel32:KERNEL32.dll
 0002:00000168       __imp__GetEnvironmentStringsW@0 10052168     kernel32:KERNEL32.dll
 0002:0000016c       __imp__FreeEnvironmentStringsW@4 1005216c     kernel32:KERNEL32.dll
 0002:00000170       __imp__GetEnvironmentStrings@0 10052170     kernel32:KERNEL32.dll
 0002:00000174       __imp__FreeEnvironmentStringsA@4 10052174     kernel32:KERNEL32.dll
 0002:00000178       __imp__InterlockedIncrement@4 10052178     kernel32:KERNEL32.dll
 0002:0000017c       __imp__InterlockedDecrement@4 1005217c     kernel32:KERNEL32.dll
 0002:00000180       __imp__InitializeCriticalSection@4 10052180     kernel32:KERNEL32.dll
 0002:00000184       __imp__DeleteCriticalSection@4 10052184     kernel32:KERNEL32.dll
 0002:00000188       __imp__EnterCriticalSection@4 10052188     kernel32:KERNEL32.dll
 0002:0000018c       __imp__LeaveCriticalSection@4 1005218c     kernel32:KERNEL32.dll
 0002:00000190       __imp__GetSystemTimeAsFileTime@4 10052190     kernel32:KERNEL32.dll
 0002:00000194       __imp__UnhandledExceptionFilter@4 10052194     kernel32:KERNEL32.dll
 0002:00000198       __imp__IsDebuggerPresent@0 10052198     kernel32:KERNEL32.dll
 0002:0000019c       __imp__RaiseException@16   1005219c     kernel32:KERNEL32.dll
 0002:000001a0       __imp__RtlUnwind@16        100521a0     kernel32:KERNEL32.dll
 0002:000001a4       __imp__HeapFree@12         100521a4     kernel32:KERNEL32.dll
 0002:000001a8       __imp__ReadFile@20         100521a8     kernel32:KERNEL32.dll
 0002:000001ac       __imp__SetFilePointer@16   100521ac     kernel32:KERNEL32.dll
 0002:000001b0       __imp__HeapAlloc@12        100521b0     kernel32:KERNEL32.dll
 0002:000001b4       __imp__HeapReAlloc@16      100521b4     kernel32:KERNEL32.dll
 0002:000001b8       __imp__VirtualAlloc@16     100521b8     kernel32:KERNEL32.dll
 0002:000001bc       \177KERNEL32_NULL_THUNK_DATA 100521bc     kernel32:KERNEL32.dll
 0002:000001c0       __imp__GetModuleFileNameExA@16 100521c0     psapi:PSAPI.DLL
 0002:000001c4       __imp__EnumProcesses@12    100521c4     psapi:PSAPI.DLL
 0002:000001c8       \177PSAPI_NULL_THUNK_DATA  100521c8     psapi:PSAPI.DLL
 0002:000001cc       __imp__SDL_Init            100521cc     SDL:SDL.dll
 0002:000001d0       __imp__SDL_FreeSurface     100521d0     SDL:SDL.dll
 0002:000001d4       __imp__SDL_RWFromMem       100521d4     SDL:SDL.dll
 0002:000001d8       __imp__SDL_UpperBlit       100521d8     SDL:SDL.dll
 0002:000001dc       __imp__SDL_CreateRGBSurface 100521dc     SDL:SDL.dll
 0002:000001e0       __imp__SDL_LoadBMP_RW      100521e0     SDL:SDL.dll
 0002:000001e4       __imp__SDL_RWFromFile      100521e4     SDL:SDL.dll
 0002:000001e8       __imp__SDL_ConvertSurface  100521e8     SDL:SDL.dll
 0002:000001ec       \177SDL_NULL_THUNK_DATA    100521ec     SDL:SDL.dll
 0002:000001f0       __imp__IMG_Load_RW         100521f0     SDL_image:SDL_image.dll
 0002:000001f4       __imp__IMG_Init            100521f4     SDL_image:SDL_image.dll
 0002:000001f8       \177SDL_image_NULL_THUNK_DATA 100521f8     SDL_image:SDL_image.dll
 0002:000001fc       __imp__MessageBoxA@16      100521fc     user32:USER32.dll
 0002:00000200       __imp__IsWindow@4          10052200     user32:USER32.dll
 0002:00000204       __imp__GetParent@4         10052204     user32:USER32.dll
 0002:00000208       __imp__GetAsyncKeyState@4  10052208     user32:USER32.dll
 0002:0000020c       __imp__MapVirtualKeyA@8    1005220c     user32:USER32.dll
 0002:00000210       __imp__IsIconic@4          10052210     user32:USER32.dll
 0002:00000214       __imp__OemToCharA@8        10052214     user32:USER32.dll
 0002:00000218       __imp__EnumDisplaySettingsA@12 10052218     user32:USER32.dll
 0002:0000021c       __imp__CharToOemA@8        1005221c     user32:USER32.dll
 0002:00000220       __imp__TranslateMessage@4  10052220     user32:USER32.dll
 0002:00000224       __imp__DispatchMessageA@4  10052224     user32:USER32.dll
 0002:00000228       __imp__PeekMessageA@20     10052228     user32:USER32.dll
 0002:0000022c       __imp__PostMessageA@16     1005222c     user32:USER32.dll
 0002:00000230       __imp__UnregisterClassA@8  10052230     user32:USER32.dll
 0002:00000234       \177USER32_NULL_THUNK_DATA 10052234     user32:USER32.dll
 0002:00000238       __imp__accept@12           10052238     ws2_32:WS2_32.dll
 0002:0000023c       __imp__recv@16             1005223c     ws2_32:WS2_32.dll
 0002:00000240       __imp__WSAStartup@8        10052240     ws2_32:WS2_32.dll
 0002:00000244       __imp__gethostbyname@4     10052244     ws2_32:WS2_32.dll
 0002:00000248       __imp__inet_addr@4         10052248     ws2_32:WS2_32.dll
 0002:0000024c       __imp__WSAGetLastError@0   1005224c     ws2_32:WS2_32.dll
 0002:00000250       __imp____WSAFDIsSet@8      10052250     ws2_32:WS2_32.dll
 0002:00000254       __imp__select@20           10052254     ws2_32:WS2_32.dll
 0002:00000258       __imp__connect@12          10052258     ws2_32:WS2_32.dll
 0002:0000025c       __imp__bind@12             1005225c     ws2_32:WS2_32.dll
 0002:00000260       __imp__listen@8            10052260     ws2_32:WS2_32.dll
 0002:00000264       __imp__ioctlsocket@12      10052264     ws2_32:WS2_32.dll
 0002:00000268       __imp__send@16             10052268     ws2_32:WS2_32.dll
 0002:0000026c       __imp__closesocket@4       1005226c     ws2_32:WS2_32.dll
 0002:00000270       __imp__htons@4             10052270     ws2_32:WS2_32.dll
 0002:00000274       __imp__socket@12           10052274     ws2_32:WS2_32.dll
 0002:00000278       \177WS2_32_NULL_THUNK_DATA 10052278     ws2_32:WS2_32.dll
 0002:0000027c       __imp__GdipGetImageEncodersSize@8 1005227c     gdiplus:gdiplus.dll
 0002:00000280       __imp__GdipGetImageEncoders@12 10052280     gdiplus:gdiplus.dll
 0002:00000284       \177gdiplus_NULL_THUNK_DATA 10052284     gdiplus:gdiplus.dll
 0002:00000288       ___xc_a                    10052288     LIBCMT:crt0init.obj
 0002:000002ec       ___xc_z                    100522ec     LIBCMT:crt0init.obj
 0002:000002f0       ___xi_a                    100522f0     LIBCMT:crt0init.obj
 0002:0000030c       ___xi_z                    1005230c     LIBCMT:crt0init.obj
 0002:00000310       ___xp_a                    10052310     LIBCMT:crt0init.obj
 0002:0000031c       ___xp_z                    1005231c     LIBCMT:crt0init.obj
 0002:00000320       ___xt_a                    10052320     LIBCMT:crt0init.obj
 0002:00000328       ___xt_z                    10052328     LIBCMT:crt0init.obj
 0002:00000478       ??_7bad_alloc@std@@6B@     10052478     a2mgr.obj
 0002:0000069c       ??_7logic_error@std@@6B@   1005269c     chat_history.obj
 0002:000006a8       ??_7length_error@std@@6B@  100526a8     chat_history.obj
 0002:000006b0       ??_C@_0BD@OLBABOEK@vector?$DMT?$DO?5too?5long?$AA@ 100526b0     chat_history.obj
 0002:000006d8       ??_7out_of_range@std@@6B@  100526d8     class_extend.obj
 0002:000006e0       ??_C@_0BE@JONHPENG@map?1set?$DMT?$DO?5too?5long?$AA@ 100526e0     class_extend.obj
 0002:000006f4       ??_C@_0BM@PAPJHAGI@invalid?5map?1set?$DMT?$DO?5iterator?$AA@ 100526f4     class_extend.obj
 0002:0000074c       ??_7CEMapObject@@6B@       1005274c     class_mapobject.obj
 0002:00000898       ??_7facet@locale@std@@6B@  10052898     config.obj
 0002:000008a0       ??_7ios_base@std@@6B@      100528a0     config.obj
 0002:000008a8       ??_7?$basic_istream@DU?$char_traits@D@std@@@std@@6B@ 100528a8     config.obj
 0002:000008b0       ??_7?$basic_ios@DU?$char_traits@D@std@@@std@@6B@ 100528b0     config.obj
 0002:000008b8       ??_7?$basic_streambuf@DU?$char_traits@D@std@@@std@@6B@ 100528b8     config.obj
 0002:000008f4       ??_7?$basic_filebuf@DU?$char_traits@D@std@@@std@@6B@ 100528f4     config.obj
 0002:00000930       ??_7runtime_error@std@@6B@ 10052930     config.obj
 0002:0000093c       ??_7failure@ios_base@std@@6B@ 1005293c     config.obj
 0002:00000944       ??_C@_0BA@ELKIONDK@bad?5locale?5name?$AA@ 10052944     config.obj
 0002:00000958       ??_7?$ctype@D@std@@6B@     10052958     config.obj
 0002:00000984       ??_C@_01GFHCPBMG@C?$AA@    10052984     config.obj
 0002:00000988       ??_C@_0BF@OOHOMBOF@ios_base?3?3eofbit?5set?$AA@ 10052988     config.obj
 0002:000009a0       ??_C@_0BG@FMKFHCIL@ios_base?3?3failbit?5set?$AA@ 100529a0     config.obj
 0002:000009b8       ??_C@_0BF@PHHKMMFD@ios_base?3?3badbit?5set?$AA@ 100529b8     config.obj
 0002:000009d4       ??_7?$basic_ifstream@DU?$char_traits@D@std@@@std@@6B@ 100529d4     config.obj
 0002:000009d8       ??_C@_08EPJLHIJG@bad?5cast?$AA@ 100529d8     config.obj
 0002:000009e8       ??_7?$codecvt@DDH@std@@6B@ 100529e8     config.obj
 0002:00000a08       ??_8?$basic_ifstream@DU?$char_traits@D@std@@@std@@7B@ 10052a08     config.obj
 0002:00000a10       __real@404f800000000000    10052a10     config.obj
 0002:00000a18       __real@403f000000000000    10052a18     config.obj
 0002:00000a20       __real@406fe00000000000    10052a20     config.obj
 0002:00000a28       __real@4f800000            10052a28     config.obj
 0002:00000a30       __real@4059000000000000    10052a30     CRC_32.obj
 0002:00000a38       __real@41f0000000000000    10052a38     CRC_32.obj
 0002:00000c2b       ??_C@_00CNPNBAHC@?$AA@     10052c2b     File.obj
 0002:00000e3c       __real@41f80000            10052e3c     landscape_renderer.obj
 0002:00000e40       __real@4040000000000000    10052e40     landscape_renderer.obj
 0002:00000e48       __real@3fa0000000000000    10052e48     landscape_renderer.obj
 0002:00001d20       __real@0000000000000000    10053d20     network_protocol_ext.obj
 0002:00001d28       ??_C@_01EEMJAFIK@?6?$AA@   10053d28     network_protocol_ext.obj
 0002:00001d2c       ??_C@_01CLKCMJKC@?5?$AA@   10053d2c     network_protocol_ext.obj
 0002:00001d30       __real@3f50000000000000    10053d30     network_protocol_ext.obj
 0002:00001d38       __real@3eb0000000000000    10053d38     network_protocol_ext.obj
 0002:00001fb8       ??_7?$basic_ostream@DU?$char_traits@D@std@@@std@@6B@ 10053fb8     serialize.obj
 0002:00001fc0       ??_7?$basic_ofstream@DU?$char_traits@D@std@@@std@@6B@ 10053fc0     serialize.obj
 0002:00001fc4       ??_8?$basic_ofstream@DU?$char_traits@D@std@@@std@@7B@ 10053fc4     serialize.obj
 0002:00002730       ??_C@_0BC@KBDMBKEH@deque?$DMT?$DO?5too?5long?$AA@ 10054730     happyhttp.obj
 0002:000027e4       ?lodepng_default_compress_settings@@3ULodePNGCompressSettings@@B 100547e4     lodepng.obj
 0002:000029d4       ?lodepng_default_decompress_settings@@3ULodePNGDecompressSettings@@B 100549d4     lodepng.obj
 0002:00003b14       ??_7LodePNGState@@6B@      10055b14     lodepng.obj
 0002:00003b18       __real@3ff7154760000000    10055b18     lodepng.obj
 0002:00003b20       __real@3ffd5551e0000000    10055b20     lodepng.obj
 0002:00003b28       __real@4008000000000000    10055b28     lodepng.obj
 0002:00003b30       __real@3fe0000000000000    10055b30     lodepng.obj
 0002:00003b38       __real@40000000            10055b38     lodepng.obj
 0002:00003b40       __real@3fb0000000000000    10055b40     lodepng.obj
 0002:00003b48       __real@4010000000000000    10055b48     lodepng.obj
 0002:00003b50       __real@42000000            10055b50     lodepng.obj
 0002:00003b58       ??_7State@lodepng@@6B@     10055b58     lodepng.obj
 0002:00003b70       ?key_08@@3QBEB             10055b70     packet.obj
 0002:00003bc0       ?key_10@@3QBEB             10055bc0     packet.obj
 0002:00003c10       ?key_11@@3QBEB             10055c10     packet.obj
 0002:00003c60       ?key_15@@3QBEB             10055c60     packet.obj
 0002:00003cb0       ?key_20@@3QBEB             10055cb0     packet.obj
 0002:00003e70       ??_C@_0P@GHFPNOJB@bad?5allocation?$AA@ 10055e70     libcpmt:string.obj
 0002:00003e80       ??_C@_0BA@JFNIOLAK@string?5too?5long?$AA@ 10055e80     libcpmt:string.obj
 0002:00003e90       ??_C@_0BI@CFPLBAOH@invalid?5string?5position?$AA@ 10055e90     libcpmt:string.obj
 0002:00003eac       ??_7_Locimp@locale@std@@6B@ 10055eac     libcpmt:locale0.obj
 0002:00003eb0       ??_C@_01NBENCBCI@?$CK?$AA@ 10055eb0     libcpmt:locale0.obj
 0002:00003eb4       ?_BADOFF@std@@3JB          10055eb4     libcpmt:ios.obj
 0002:00003eb8       ??_C@_13BPINEIPE@?$AAr?$AA?$AA@ 10055eb8     libcpmt:fiopen.obj
 0002:00003ef8       ??_C@_13CIFDLIMG@?$AAw?$AA?$AA@ 10055ef8     libcpmt:fiopen.obj
 0002:00003efc       ??_C@_13FNCBLAIF@?$AAa?$AA?$AA@ 10055efc     libcpmt:fiopen.obj
 0002:00003f00       ??_C@_15JJPIMNBO@?$AAr?$AAb?$AA?$AA@ 10055f00     libcpmt:fiopen.obj
 0002:00003f08       ??_C@_15MJDFFMKN@?$AAw?$AAb?$AA?$AA@ 10055f08     libcpmt:fiopen.obj
 0002:00003f10       ??_C@_15BMLKLNCL@?$AAa?$AAb?$AA?$AA@ 10055f10     libcpmt:fiopen.obj
 0002:00003f18       ??_C@_15HPOENKKJ@?$AAr?$AA?$CL?$AA?$AA@ 10055f18     libcpmt:fiopen.obj
 0002:00003f20       ??_C@_15CPCJELBK@?$AAw?$AA?$CL?$AA?$AA@ 10055f20     libcpmt:fiopen.obj
 0002:00003f28       ??_C@_15PKKGKKJM@?$AAa?$AA?$CL?$AA?$AA@ 10055f28     libcpmt:fiopen.obj
 0002:00003f30       ??_C@_17IIOMHMAG@?$AAr?$AA?$CL?$AAb?$AA?$AA@ 10055f30     libcpmt:fiopen.obj
 0002:00003f38       ??_C@_17MAAMHCGC@?$AAw?$AA?$CL?$AAb?$AA?$AA@ 10055f38     libcpmt:fiopen.obj
 0002:00003f40       ??_C@_17HKNIEKMO@?$AAa?$AA?$CL?$AAb?$AA?$AA@ 10055f40     libcpmt:fiopen.obj
 0002:00003f4c       ??_7exception@std@@6B@     10055f4c     LIBCMT:stdexcpt.obj
 0002:00003f54       ??_C@_0BC@EOODALEL@Unknown?5exception?$AA@ 10055f54     LIBCMT:stdexcpt.obj
 0002:00003f6c       ??_7bad_cast@std@@6B@      10055f6c     LIBCMT:stdexcpt.obj
 0002:00003f78       ??_7type_info@@6B@         10055f78     LIBCMT:typinfo.obj
 0002:00003f9c       __FPinit                   10055f9c     LIBCMT:fpinit.obj
 0002:00003fa0       __FPmtinit                 10055fa0     LIBCMT:fpinit.obj
 0002:00003fa4       __FPmtterm                 10055fa4     LIBCMT:fpinit.obj
 0002:00003fa8       ??_C@_0N@MDJJJHMB@kernel32?4dll?$AA@ 10055fa8     LIBCMT:resetstk.obj
 0002:00003fb8       __pDefaultRawDllMain       10055fb8     LIBCMT:dllcrt0.obj
 0002:00003fb8       __pRawDllMain              10055fb8     LIBCMT:dllcrt0.obj
 0002:00003fbc       ??_C@_13NOLLCAOD@?$AA?$AA?$AA?$AA@ 10055fbc     LIBCMT:a_map.obj
 0002:00003fc0       ___newctype                10055fc0     LIBCMT:ctype.obj
 0002:000042c0       __wctype                   100562c0     LIBCMT:ctype.obj
 0002:000044c8       ___newclmap                100564c8     LIBCMT:ctype.obj
 0002:00004648       ___newcumap                10056648     LIBCMT:ctype.obj
 0002:000047c8       ??_C@_07LCBHPJJN@LC_TIME?$AA@ 100567c8     LIBCMT:setlocal.obj
 0002:000047d0       ??_C@_0L@DLHIECNL@LC_NUMERIC?$AA@ 100567d0     LIBCMT:setlocal.obj
 0002:000047dc       ??_C@_0M@MIENIKLA@LC_MONETARY?$AA@ 100567dc     LIBCMT:setlocal.obj
 0002:000047e8       ??_C@_08EADHIDAD@LC_CTYPE?$AA@ 100567e8     LIBCMT:setlocal.obj
 0002:000047f4       ??_C@_0L@KFJHEKIK@LC_COLLATE?$AA@ 100567f4     LIBCMT:setlocal.obj
 0002:00004800       ??_C@_06NEFDFEKB@LC_ALL?$AA@ 10056800     LIBCMT:setlocal.obj
 0002:00004808       ___lc_category             10056808     LIBCMT:setlocal.obj
 0002:000048d0       ??_C@_03EGDHDPFD@_?4?0?$AA@ 100568d0     LIBCMT:setlocal.obj
 0002:000048d4       ??_C@_01LFCBOECM@?4?$AA@   100568d4     LIBCMT:setlocal.obj
 0002:000048d8       ??_C@_01IDAFKMJL@_?$AA@    100568d8     LIBCMT:setlocal.obj
 0002:000048dc       ??_C@_01ICJEACDI@?$DL?$AA@ 100568dc     LIBCMT:setlocal.obj
 0002:000048e0       ??_C@_01NEMOKFLO@?$DN?$AA@ 100568e0     LIBCMT:setlocal.obj
 0002:000048e4       ??_C@_02BALPLPBG@?$DN?$DL?$AA@ 100568e4     LIBCMT:setlocal.obj
 0002:000048e8       ??_C@_0P@MIGLKIOC@CorExitProcess?$AA@ 100568e8     LIBCMT:crt0dat.obj
 0002:000048f8       ??_C@_0M@MBOPBNBK@mscoree?4dll?$AA@ 100568f8     LIBCMT:crt0dat.obj
 0002:00004904       __pDestructExceptionObject 10056904     LIBCMT:frame.obj
 0002:0000490c       ??_7bad_exception@std@@6B@ 1005690c     LIBCMT:frame.obj
 0002:00004914       ??_C@_0O@DPKOEFFH@bad?5exception?$AA@ 10056914     LIBCMT:frame.obj
 0002:00004924       ??_C@_02CLFPBFFP@TZ?$AA@   10056924     LIBCMT:tzset.obj
 0002:00004928       ___dnames                  10056928     LIBCMT:timeset.obj
 0002:00004940       ___mnames                  10056940     LIBCMT:timeset.obj
 0002:00004968       ??_C@_0O@NLDKAIKN@EncodePointer?$AA@ 10056968     LIBCMT:tidtable.obj
 0002:00004978       ??_C@_0N@NHGLKGEC@KERNEL32?4DLL?$AA@ 10056978     LIBCMT:tidtable.obj
 0002:00004988       ??_C@_0O@KBPMFGHI@DecodePointer?$AA@ 10056988     LIBCMT:tidtable.obj
 0002:00004998       ??_C@_07PEJMOBNF@FlsFree?$AA@ 10056998     LIBCMT:tidtable.obj
 0002:000049a0       ??_C@_0M@JCPCPOEF@FlsSetValue?$AA@ 100569a0     LIBCMT:tidtable.obj
 0002:000049ac       ??_C@_0M@GDNOONDI@FlsGetValue?$AA@ 100569ac     LIBCMT:tidtable.obj
 0002:000049b8       ??_C@_08KNHFBNJ@FlsAlloc?$AA@ 100569b8     LIBCMT:tidtable.obj
 0002:000049cc       ??_C@_1O@CEDCILHN@?$AA?$CI?$AAn?$AAu?$AAl?$AAl?$AA?$CJ?$AA?$AA@ 100569cc     LIBCMT:output.obj
 0002:000049dc       ??_C@_06OJHGLDPL@?$CInull?$CJ?$AA@ 100569dc     LIBCMT:output.obj
 0002:000049e8       ___lookuptable             100569e8     LIBCMT:output.obj
 0002:00004a44       ??_C@_05KLBDPFGC@e?$CL000?$AA@ 10056a44     LIBCMT:cvt.obj
 0002:00004a50       __real@4150017ec0000000    10056a50     LIBCMT:testfdiv.obj
 0002:00004a58       __real@4147ffff80000000    10056a58     LIBCMT:testfdiv.obj
 0002:00004a60       ??_C@_0BK@NHEOCAHP@IsProcessorFeaturePresent?$AA@ 10056a60     LIBCMT:testfdiv.obj
 0002:00004a7c       ??_C@_08CPNIBGIE@KERNEL32?$AA@ 10056a7c     LIBCMT:testfdiv.obj
 0002:00004a88       ??_C@_0P@GGKDKEEG@runtime?5error?5?$AA@ 10056a88     LIBCMT:crt0msg.obj
 0002:00004a98       ??_C@_02PCIJFNDE@?$AN?6?$AA@ 10056a98     LIBCMT:crt0msg.obj
 0002:00004a9c       ??_C@_0O@MJNIPGOH@TLOSS?5error?$AN?6?$AA@ 10056a9c     LIBCMT:crt0msg.obj
 0002:00004aac       ??_C@_0N@BONNPDHF@SING?5error?$AN?6?$AA@ 10056aac     LIBCMT:crt0msg.obj
 0002:00004abc       ??_C@_0P@MBDAJNE@DOMAIN?5error?$AN?6?$AA@ 10056abc     LIBCMT:crt0msg.obj
 0002:00004ad0       ??_C@_0JL@DFDOOABL@R6034?$AN?6An?5application?5has?5made?5a@ 10056ad0     LIBCMT:crt0msg.obj
 0002:00004b70       ??_C@_0PH@EPAFIJ@R6033?$AN?6?9?5Attempt?5to?5use?5MSIL?5cod@ 10056b70     LIBCMT:crt0msg.obj
 0002:00004c68       ??_C@_0DD@BKEEABMM@R6032?$AN?6?9?5not?5enough?5space?5for?5lo@ 10056c68     LIBCMT:crt0msg.obj
 0002:00004ca0       ??_C@_0GD@OFKILIED@R6031?$AN?6?9?5Attempt?5to?5initialize?5t@ 10056ca0     LIBCMT:crt0msg.obj
 0002:00004d04       ??_C@_0BP@LPMHJOKI@R6030?$AN?6?9?5CRT?5not?5initialized?$AN?6?$AA@ 10056d04     LIBCMT:crt0msg.obj
 0002:00004d24       ??_C@_0CF@KJDAIALP@R6028?$AN?6?9?5unable?5to?5initialize?5he@ 10056d24     LIBCMT:crt0msg.obj
 0002:00004d4c       ??_C@_0DF@GAKBPDFP@R6027?$AN?6?9?5not?5enough?5space?5for?5lo@ 10056d4c     LIBCMT:crt0msg.obj
 0002:00004d84       ??_C@_0DF@IBLNNAIG@R6026?$AN?6?9?5not?5enough?5space?5for?5st@ 10056d84     LIBCMT:crt0msg.obj
 0002:00004dbc       ??_C@_0CG@IOHKGFNJ@R6025?$AN?6?9?5pure?5virtual?5function?5c@ 10056dbc     LIBCMT:crt0msg.obj
 0002:00004de4       ??_C@_0DF@JIJJFJDC@R6024?$AN?6?9?5not?5enough?5space?5for?5_o@ 10056de4     LIBCMT:crt0msg.obj
 0002:00004e1c       ??_C@_0CJ@EGEJHFME@R6019?$AN?6?9?5unable?5to?5open?5console?5@ 10056e1c     LIBCMT:crt0msg.obj
 0002:00004e48       ??_C@_0CB@GNHNIELH@R6018?$AN?6?9?5unexpected?5heap?5error?$AN?6@ 10056e48     LIBCMT:crt0msg.obj
 0002:00004e6c       ??_C@_0CN@FOLDKNG@R6017?$AN?6?9?5unexpected?5multithread?5@ 10056e6c     LIBCMT:crt0msg.obj
 0002:00004e9c       ??_C@_0CM@FAHFJNHO@R6016?$AN?6?9?5not?5enough?5space?5for?5th@ 10056e9c     LIBCMT:crt0msg.obj
 0002:00004ec8       ??_C@_0JG@LBKMGKLD@?$AN?6This?5application?5has?5requested@ 10056ec8     LIBCMT:crt0msg.obj
 0002:00004f60       ??_C@_0CM@FLCNIPKK@R6009?$AN?6?9?5not?5enough?5space?5for?5en@ 10056f60     LIBCMT:crt0msg.obj
 0002:00004f8c       ??_C@_0CK@KMMJOAPP@R6008?$AN?6?9?5not?5enough?5space?5for?5ar@ 10056f8c     LIBCMT:crt0msg.obj
 0002:00004fb8       ??_C@_0CF@HOHMHDEK@R6002?$AN?6?9?5floating?5point?5not?5load@ 10056fb8     LIBCMT:crt0msg.obj
 0002:00004fe0       ??_C@_0CF@GOGNBNAK@Microsoft?5Visual?5C?$CL?$CL?5Runtime?5Lib@ 10056fe0     LIBCMT:crt0msg.obj
 0002:00005008       ??_C@_02PHMGELLB@?6?6?$AA@ 10057008     LIBCMT:crt0msg.obj
 0002:0000500c       ??_C@_03KHICJKCI@?4?4?4?$AA@ 1005700c     LIBCMT:crt0msg.obj
 0002:00005010       ??_C@_0BH@DNAGHKFM@?$DMprogram?5name?5unknown?$DO?$AA@ 10057010     LIBCMT:crt0msg.obj
 0002:00005028       ??_C@_0BK@OFGJDLJJ@Runtime?5Error?$CB?6?6Program?3?5?$AA@ 10057028     LIBCMT:crt0msg.obj
 0002:00005078       __DEFAULT_CW_in_mem        10057078     LIBCMT:common.obj
 0002:0000507a       __pi_by_2_to_61            1005707a     LIBCMT:common.obj
 0002:000050b4       ??_C@_08JCCMCCIL@HH?3mm?3ss?$AA@ 100570b4     LIBCMT:strftime.obj
 0002:000050c0       ??_C@_0BE@CKGJFCPC@dddd?0?5MMMM?5dd?0?5yyyy?$AA@ 100570c0     LIBCMT:strftime.obj
 0002:000050d4       ??_C@_08BPBNCDIB@MM?1dd?1yy?$AA@ 100570d4     LIBCMT:strftime.obj
 0002:000050e0       ??_C@_02CJNFDJBF@PM?$AA@   100570e0     LIBCMT:strftime.obj
 0002:000050e4       ??_C@_02DEDBPAFC@AM?$AA@   100570e4     LIBCMT:strftime.obj
 0002:000050e8       ??_C@_08EDHMEBNP@December?$AA@ 100570e8     LIBCMT:strftime.obj
 0002:000050f4       ??_C@_08HCHEGEOA@November?$AA@ 100570f4     LIBCMT:strftime.obj
 0002:00005100       ??_C@_07JJNFCEND@October?$AA@ 10057100     LIBCMT:strftime.obj
 0002:00005108       ??_C@_09BHHEALKD@September?$AA@ 10057108     LIBCMT:strftime.obj
 0002:00005114       ??_C@_06LBBHFDDG@August?$AA@ 10057114     LIBCMT:strftime.obj
 0002:0000511c       ??_C@_04MIEPOIFP@July?$AA@ 1005711c     LIBCMT:strftime.obj
 0002:00005124       ??_C@_04CNLMGBGM@June?$AA@ 10057124     LIBCMT:strftime.obj
 0002:0000512c       ??_C@_05DMJDNLEJ@April?$AA@ 1005712c     LIBCMT:strftime.obj
 0002:00005134       ??_C@_05HPCKOFNC@March?$AA@ 10057134     LIBCMT:strftime.obj
 0002:0000513c       ??_C@_08GNJGEPFN@February?$AA@ 1005713c     LIBCMT:strftime.obj
 0002:00005148       ??_C@_07CGJPFGJA@January?$AA@ 10057148     LIBCMT:strftime.obj
 0002:00005150       ??_C@_03MKABNOCG@Dec?$AA@  10057150     LIBCMT:strftime.obj
 0002:00005154       ??_C@_03JPJOFNIA@Nov?$AA@  10057154     LIBCMT:strftime.obj
 0002:00005158       ??_C@_03BMAOKBAD@Oct?$AA@  10057158     LIBCMT:strftime.obj
 0002:0000515c       ??_C@_03GGCAPAJC@Sep?$AA@  1005715c     LIBCMT:strftime.obj
 0002:00005160       ??_C@_03IFJFEIGA@Aug?$AA@  10057160     LIBCMT:strftime.obj
 0002:00005164       ??_C@_03LBGABGKK@Jul?$AA@  10057164     LIBCMT:strftime.obj
 0002:00005168       ??_C@_03IDFGHECI@Jun?$AA@  10057168     LIBCMT:strftime.obj
 0002:0000516c       ??_C@_03CNMDKL@May?$AA@    1005716c     LIBCMT:strftime.obj
 0002:00005170       ??_C@_03LEOLGMJP@Apr?$AA@  10057170     LIBCMT:strftime.obj
 0002:00005174       ??_C@_03ODNJBKGA@Mar?$AA@  10057174     LIBCMT:strftime.obj
 0002:00005178       ??_C@_03HJBDCHOM@Feb?$AA@  10057178     LIBCMT:strftime.obj
 0002:0000517c       ??_C@_03JIHJHPIE@Jan?$AA@  1005717c     LIBCMT:strftime.obj
 0002:00005180       ??_C@_08INBOOONO@Saturday?$AA@ 10057180     LIBCMT:strftime.obj
 0002:0000518c       ??_C@_06JECMNKMI@Friday?$AA@ 1005718c     LIBCMT:strftime.obj
 0002:00005194       ??_C@_08HACCIKIA@Thursday?$AA@ 10057194     LIBCMT:strftime.obj
 0002:000051a0       ??_C@_09DLIGFAKA@Wednesday?$AA@ 100571a0     LIBCMT:strftime.obj
 0002:000051ac       ??_C@_07BAAGCFCM@Tuesday?$AA@ 100571ac     LIBCMT:strftime.obj
 0002:000051b4       ??_C@_06JLEDEDGH@Monday?$AA@ 100571b4     LIBCMT:strftime.obj
 0002:000051bc       ??_C@_06OOPIFAJ@Sunday?$AA@ 100571bc     LIBCMT:strftime.obj
 0002:000051c4       ??_C@_03FEFJNEK@Sat?$AA@   100571c4     LIBCMT:strftime.obj
 0002:000051c8       ??_C@_03IDIOELNC@Fri?$AA@  100571c8     LIBCMT:strftime.obj
 0002:000051cc       ??_C@_03IOFIKPDN@Thu?$AA@  100571cc     LIBCMT:strftime.obj
 0002:000051d0       ??_C@_03MHOMLAJA@Wed?$AA@  100571d0     LIBCMT:strftime.obj
 0002:000051d4       ??_C@_03NAGEINEP@Tue?$AA@  100571d4     LIBCMT:strftime.obj
 0002:000051d8       ??_C@_03PDAGKDH@Mon?$AA@   100571d8     LIBCMT:strftime.obj
 0002:000051dc       ??_C@_03KOEHGMDN@Sun?$AA@  100571dc     LIBCMT:strftime.obj
 0002:000051e0       ??_C@_0O@FMJNFNKE@united?9states?$AA@ 100571e0     LIBCMT:getqloc.obj
 0002:000051f0       ??_C@_0P@NDHFFKCA@united?9kingdom?$AA@ 100571f0     LIBCMT:getqloc.obj
 0002:00005200       ??_C@_0BC@HHDADLGF@trinidad?5?$CG?5tobago?$AA@ 10057200     LIBCMT:getqloc.obj
 0002:00005214       ??_C@_0M@IOAEBDAC@south?9korea?$AA@ 10057214     LIBCMT:getqloc.obj
 0002:00005220       ??_C@_0N@FIELFKIJ@south?9africa?$AA@ 10057220     LIBCMT:getqloc.obj
 0002:00005230       ??_C@_0M@OPNDHCMC@south?5korea?$AA@ 10057230     LIBCMT:getqloc.obj
 0002:0000523c       ??_C@_0N@MDEOEPFI@south?5africa?$AA@ 1005723c     LIBCMT:getqloc.obj
 0002:0000524c       ??_C@_06FKAPCJLB@slovak?$AA@ 1005724c     LIBCMT:getqloc.obj
 0002:00005254       ??_C@_0M@EFJANOAL@puerto?9rico?$AA@ 10057254     LIBCMT:getqloc.obj
 0002:00005260       ??_C@_08PGOJKDAI@pr?9china?$AA@ 10057260     LIBCMT:getqloc.obj
 0002:0000526c       ??_C@_08JHDOMCMI@pr?5china?$AA@ 1005726c     LIBCMT:getqloc.obj
 0002:00005278       ??_C@_02JHCHFBLL@nz?$AA@   10057278     LIBCMT:getqloc.obj
 0002:0000527c       ??_C@_0M@LINHDHKP@new?9zealand?$AA@ 1005727c     LIBCMT:getqloc.obj
 0002:00005288       ??_C@_09IIIPPBDB@hong?9kong?$AA@ 10057288     LIBCMT:getqloc.obj
 0002:00005294       ??_C@_07HJLCKBG@holland?$AA@ 10057294     LIBCMT:getqloc.obj
 0002:0000529c       ??_C@_0O@LEHGMHAG@great?5britain?$AA@ 1005729c     LIBCMT:getqloc.obj
 0002:000052ac       ??_C@_07FACOMELA@england?$AA@ 100572ac     LIBCMT:getqloc.obj
 0002:000052b4       ??_C@_05JIHCEICB@czech?$AA@ 100572b4     LIBCMT:getqloc.obj
 0002:000052bc       ??_C@_05BBJOBLGB@china?$AA@ 100572bc     LIBCMT:getqloc.obj
 0002:000052c4       ??_C@_07GPKPHICP@britain?$AA@ 100572c4     LIBCMT:getqloc.obj
 0002:000052cc       ??_C@_07MHIPBHMG@america?$AA@ 100572cc     LIBCMT:getqloc.obj
 0002:000052d4       ??_C@_03KIALPMKC@usa?$AA@  100572d4     LIBCMT:getqloc.obj
 0002:000052d8       ??_C@_02FGJGKGGD@us?$AA@   100572d8     LIBCMT:getqloc.obj
 0002:000052dc       ??_C@_02NEINDODK@uk?$AA@   100572dc     LIBCMT:getqloc.obj
 0002:000052e0       ??_C@_05JMPCFJFJ@swiss?$AA@ 100572e0     LIBCMT:getqloc.obj
 0002:000052e8       ??_C@_0BA@HLOCPIOD@swedish?9finland?$AA@ 100572e8     LIBCMT:getqloc.obj
 0002:000052f8       ??_C@_0BC@PKCNIABK@spanish?9venezuela?$AA@ 100572f8     LIBCMT:getqloc.obj
 0002:0000530c       ??_C@_0BA@GBHHMIJI@spanish?9uruguay?$AA@ 1005730c     LIBCMT:getqloc.obj
 0002:0000531c       ??_C@_0BE@BHDOHPMC@spanish?9puerto?5rico?$AA@ 1005731c     LIBCMT:getqloc.obj
 0002:00005330       ??_C@_0N@KMOIDGGN@spanish?9peru?$AA@ 10057330     LIBCMT:getqloc.obj
 0002:00005340       ??_C@_0BB@HMHLPGPH@spanish?9paraguay?$AA@ 10057340     LIBCMT:getqloc.obj
 0002:00005354       ??_C@_0P@MCPKNGFD@spanish?9panama?$AA@ 10057354     LIBCMT:getqloc.obj
 0002:00005364       ??_C@_0BC@IHOHGAIL@spanish?9nicaragua?$AA@ 10057364     LIBCMT:getqloc.obj
 0002:00005378       ??_C@_0P@KLMJDNFJ@spanish?9modern?$AA@ 10057378     LIBCMT:getqloc.obj
 0002:00005388       ??_C@_0BA@BPAPGBCM@spanish?9mexican?$AA@ 10057388     LIBCMT:getqloc.obj
 0002:00005398       ??_C@_0BB@PDECHHHE@spanish?9honduras?$AA@ 10057398     LIBCMT:getqloc.obj
 0002:000053ac       ??_C@_0BC@KLHKFGDB@spanish?9guatemala?$AA@ 100573ac     LIBCMT:getqloc.obj
 0002:000053c0       ??_C@_0BE@MFOOKJAI@spanish?9el?5salvador?$AA@ 100573c0     LIBCMT:getqloc.obj
 0002:000053d4       ??_C@_0BA@FCOKFPFC@spanish?9ecuador?$AA@ 100573d4     LIBCMT:getqloc.obj
 0002:000053e4       ??_C@_0BL@PLMGIMOO@spanish?9dominican?5republic?$AA@ 100573e4     LIBCMT:getqloc.obj
 0002:00005400       ??_C@_0BD@HLGDNMHB@spanish?9costa?5rica?$AA@ 10057400     LIBCMT:getqloc.obj
 0002:00005414       ??_C@_0BB@PKCBKCPE@spanish?9colombia?$AA@ 10057414     LIBCMT:getqloc.obj
 0002:00005428       ??_C@_0O@MCBIJGNE@spanish?9chile?$AA@ 10057428     LIBCMT:getqloc.obj
 0002:00005438       ??_C@_0BA@BEFEIGJJ@spanish?9bolivia?$AA@ 10057438     LIBCMT:getqloc.obj
 0002:00005448       ??_C@_0BC@EMECMPD@spanish?9argentina?$AA@ 10057448     LIBCMT:getqloc.obj
 0002:0000545c       ??_C@_0BF@EALFLENP@portuguese?9brazilian?$AA@ 1005745c     LIBCMT:getqloc.obj
 0002:00005474       ??_C@_0BC@HBLEBLNN@norwegian?9nynorsk?$AA@ 10057474     LIBCMT:getqloc.obj
 0002:00005488       ??_C@_0BB@HMACDDCK@norwegian?9bokmal?$AA@ 10057488     LIBCMT:getqloc.obj
 0002:0000549c       ??_C@_09BAFFPPHE@norwegian?$AA@ 1005749c     LIBCMT:getqloc.obj
 0002:000054a8       ??_C@_0O@EAJFJDFG@italian?9swiss?$AA@ 100574a8     LIBCMT:getqloc.obj
 0002:000054b8       ??_C@_0O@CNOMPGD@irish?9english?$AA@ 100574b8     LIBCMT:getqloc.obj
 0002:000054c8       ??_C@_0N@EDHBGCKG@german?9swiss?$AA@ 100574c8     LIBCMT:getqloc.obj
 0002:000054d8       ??_C@_0BC@JACMHNBP@german?9luxembourg?$AA@ 100574d8     LIBCMT:getqloc.obj
 0002:000054ec       ??_C@_0BE@HBGMGFEG@german?9lichtenstein?$AA@ 100574ec     LIBCMT:getqloc.obj
 0002:00005500       ??_C@_0BA@HKKBIBKL@german?9austrian?$AA@ 10057500     LIBCMT:getqloc.obj
 0002:00005510       ??_C@_0N@GCAEPEBK@french?9swiss?$AA@ 10057510     LIBCMT:getqloc.obj
 0002:00005520       ??_C@_0BC@DJFJJCK@french?9luxembourg?$AA@ 10057520     LIBCMT:getqloc.obj
 0002:00005534       ??_C@_0BA@NNCEDFIC@french?9canadian?$AA@ 10057534     LIBCMT:getqloc.obj
 0002:00005544       ??_C@_0P@CMPOCLM@french?9belgian?$AA@ 10057544     LIBCMT:getqloc.obj
 0002:00005554       ??_C@_0M@GHHDJOK@english?9usa?$AA@ 10057554     LIBCMT:getqloc.obj
 0002:00005560       ??_C@_0L@PLDJKEIL@english?9us?$AA@ 10057560     LIBCMT:getqloc.obj
 0002:0000556c       ??_C@_0L@HJCCDMNC@english?9uk?$AA@ 1005756c     LIBCMT:getqloc.obj
 0002:00005578       ??_C@_0BK@CKLIAGJB@english?9trinidad?5y?5tobago?$AA@ 10057578     LIBCMT:getqloc.obj
 0002:00005594       ??_C@_0BF@JMJMGNNF@english?9south?5africa?$AA@ 10057594     LIBCMT:getqloc.obj
 0002:000055ac       ??_C@_0L@DKIIFDFD@english?9nz?$AA@ 100575ac     LIBCMT:getqloc.obj
 0002:000055b8       ??_C@_0BA@ONHGJCLH@english?9jamaica?$AA@ 100575b8     LIBCMT:getqloc.obj
 0002:000055c8       ??_C@_0M@HJBGHOPO@english?9ire?$AA@ 100575c8     LIBCMT:getqloc.obj
 0002:000055d4       ??_C@_0BC@LFEKMIFB@english?9caribbean?$AA@ 100575d4     LIBCMT:getqloc.obj
 0002:000055e8       ??_C@_0M@OLDPFKHI@english?9can?$AA@ 100575e8     LIBCMT:getqloc.obj
 0002:000055f4       ??_C@_0P@OMDEHBMP@english?9belize?$AA@ 100575f4     LIBCMT:getqloc.obj
 0002:00005604       ??_C@_0M@KFHFPFED@english?9aus?$AA@ 10057604     LIBCMT:getqloc.obj
 0002:00005610       ??_C@_0BB@MNMBKDFE@english?9american?$AA@ 10057610     LIBCMT:getqloc.obj
 0002:00005624       ??_C@_0O@KIDLNNBA@dutch?9belgian?$AA@ 10057624     LIBCMT:getqloc.obj
 0002:00005634       ??_C@_0BE@JBKABBMH@chinese?9traditional?$AA@ 10057634     LIBCMT:getqloc.obj
 0002:00005648       ??_C@_0BC@MJJMPKCG@chinese?9singapore?$AA@ 10057648     LIBCMT:getqloc.obj
 0002:0000565c       ??_C@_0BD@FDKADDCP@chinese?9simplified?$AA@ 1005765c     LIBCMT:getqloc.obj
 0002:00005670       ??_C@_0BB@DBEFDDME@chinese?9hongkong?$AA@ 10057670     LIBCMT:getqloc.obj
 0002:00005684       ??_C@_07DHNMFMCI@chinese?$AA@ 10057684     LIBCMT:getqloc.obj
 0002:0000568c       ??_C@_03FNDDCHI@chi?$AA@   1005768c     LIBCMT:getqloc.obj
 0002:00005690       ??_C@_03BMMIADDJ@chh?$AA@  10057690     LIBCMT:getqloc.obj
 0002:00005694       ??_C@_08OAIPJDGI@canadian?$AA@ 10057694     LIBCMT:getqloc.obj
 0002:000056a0       ??_C@_07HBPMNPNJ@belgian?$AA@ 100576a0     LIBCMT:getqloc.obj
 0002:000056a8       ??_C@_0L@OEKOPBEL@australian?$AA@ 100576a8     LIBCMT:getqloc.obj
 0002:000056b4       ??_C@_0BB@MEIMBEDG@american?9english?$AA@ 100576b4     LIBCMT:getqloc.obj
 0002:000056c8       ??_C@_0BB@DFMDPDGB@american?5english?$AA@ 100576c8     LIBCMT:getqloc.obj
 0002:000056dc       ??_C@_08IJLOKOLL@american?$AA@ 100576dc     LIBCMT:getqloc.obj
 0002:000056e8       ___rg_language             100576e8     LIBCMT:getqloc.obj
 0002:000058f0       ___rg_country              100578f0     LIBCMT:getqloc.obj
 0002:000059a8       ___rglangidNotDefault      100579a8     LIBCMT:getqloc.obj
 0002:000059bc       ??_C@_03NFKLAGEF@OCP?$AA@  100579bc     LIBCMT:getqloc.obj
 0002:000059c0       ??_C@_03DFHEHBHG@ACP?$AA@  100579c0     LIBCMT:getqloc.obj
 0002:000059c4       ??_C@_0BC@NFIEMBLL@Norwegian?9Nynorsk?$AA@ 100579c4     LIBCMT:getqloc.obj
 0002:00005a14       ??_C@_0CG@PKBDLMEO@InitializeCriticalSectionAndSpin@ 10057a14     LIBCMT:initcrit.obj
 0002:00005a3c       ??_C@_0BK@CFCOFLF@?5Complete?5Object?5Locator?8?$AA@ 10057a3c     LIBCMT:undname.obj
 0002:00005a58       ??_C@_0BN@MECKDCOJ@?5Class?5Hierarchy?5Descriptor?8?$AA@ 10057a58     LIBCMT:undname.obj
 0002:00005a78       ??_C@_0BD@LGICGFMM@?5Base?5Class?5Array?8?$AA@ 10057a78     LIBCMT:undname.obj
 0002:00005a8c       ??_C@_0BM@LDKODKLH@?5Base?5Class?5Descriptor?5at?5?$CI?$AA@ 10057a8c     LIBCMT:undname.obj
 0002:00005aa8       ??_C@_0BC@DAFEJGAK@?5Type?5Descriptor?8?$AA@ 10057aa8     LIBCMT:undname.obj
 0002:00005abc       ??_C@_0BM@PMGGMLDN@?$GAlocal?5static?5thread?5guard?8?$AA@ 10057abc     LIBCMT:undname.obj
 0002:00005ad8       ??_C@_0CL@FGIJHLCE@?$GAmanaged?5vector?5copy?5constructor@ 10057ad8     LIBCMT:undname.obj
 0002:00005b04       ??_C@_0CJ@GJELGAMM@?$GAvector?5vbase?5copy?5constructor?5i@ 10057b04     LIBCMT:undname.obj
 0002:00005b30       ??_C@_0CD@CGAJBKEJ@?$GAvector?5copy?5constructor?5iterato@ 10057b30     LIBCMT:undname.obj
 0002:00005b54       ??_C@_0CB@PDBIFEP@?$GAdynamic?5atexit?5destructor?5for?5?8@ 10057b54     LIBCMT:undname.obj
 0002:00005b78       ??_C@_0BL@CLIPGLGB@?$GAdynamic?5initializer?5for?5?8?$AA@ 10057b78     LIBCMT:undname.obj
 0002:00005b94       ??_C@_0CM@FCBBDIGB@?$GAeh?5vector?5vbase?5copy?5constructo@ 10057b94     LIBCMT:undname.obj
 0002:00005bc0       ??_C@_0CG@HLDDJMAG@?$GAeh?5vector?5copy?5constructor?5iter@ 10057bc0     LIBCMT:undname.obj
 0002:00005be8       ??_C@_0CF@IMGKMJNO@?$GAmanaged?5vector?5destructor?5itera@ 10057be8     LIBCMT:undname.obj
 0002:00005c10       ??_C@_0CG@CFDHKGGD@?$GAmanaged?5vector?5constructor?5iter@ 10057c10     LIBCMT:undname.obj
 0002:00005c38       ??_C@_0BN@CKNJLHMB@?$GAplacement?5delete?$FL?$FN?5closure?8?$AA@ 10057c38     LIBCMT:undname.obj
 0002:00005c58       ??_C@_0BL@CNOONJFP@?$GAplacement?5delete?5closure?8?$AA@ 10057c58     LIBCMT:undname.obj
 0002:00005c74       ??_C@_0P@HJKNJFNN@?$GAomni?5callsig?8?$AA@ 10057c74     LIBCMT:undname.obj
 0002:00005c84       ??_C@_09LBNFPBCA@?5delete?$FL?$FN?$AA@ 10057c84     LIBCMT:undname.obj
 0002:00005c90       ??_C@_06FHBGPFGH@?5new?$FL?$FN?$AA@ 10057c90     LIBCMT:undname.obj
 0002:00005c98       ??_C@_0CE@IIHCMGGL@?$GAlocal?5vftable?5constructor?5closu@ 10057c98     LIBCMT:undname.obj
 0002:00005cbc       ??_C@_0BA@KKLDJDLB@?$GAlocal?5vftable?8?$AA@ 10057cbc     LIBCMT:undname.obj
 0002:00005ccc       ??_C@_05KHLCHHI@?$GARTTI?$AA@ 10057ccc     LIBCMT:undname.obj
 0002:00005cd4       ??_C@_03KLGMFNMG@?$GAEH?$AA@ 10057cd4     LIBCMT:undname.obj
 0002:00005cd8       ??_C@_0BA@KBCDOMBN@?$GAudt?5returning?8?$AA@ 10057cd8     LIBCMT:undname.obj
 0002:00005ce8       ??_C@_0BL@LLKPOHJI@?$GAcopy?5constructor?5closure?8?$AA@ 10057ce8     LIBCMT:undname.obj
 0002:00005d04       ??_C@_0CH@OOJPLCPH@?$GAeh?5vector?5vbase?5constructor?5ite@ 10057d04     LIBCMT:undname.obj
 0002:00005d2c       ??_C@_0CA@GCEOPDGL@?$GAeh?5vector?5destructor?5iterator?8?$AA@ 10057d2c     LIBCMT:undname.obj
 0002:00005d4c       ??_C@_0CB@JONCMFFK@?$GAeh?5vector?5constructor?5iterator?8@ 10057d4c     LIBCMT:undname.obj
 0002:00005d70       ??_C@_0BL@NILFHHPC@?$GAvirtual?5displacement?5map?8?$AA@ 10057d70     LIBCMT:undname.obj
 0002:00005d8c       ??_C@_0CE@IKBNEHA@?$GAvector?5vbase?5constructor?5iterat@ 10057d8c     LIBCMT:undname.obj
 0002:00005db0       ??_C@_0BN@LFPFMEDL@?$GAvector?5destructor?5iterator?8?$AA@ 10057db0     LIBCMT:undname.obj
 0002:00005dd0       ??_C@_0BO@PFGOCPJJ@?$GAvector?5constructor?5iterator?8?$AA@ 10057dd0     LIBCMT:undname.obj
 0002:00005df0       ??_C@_0BN@IMDCHIKM@?$GAscalar?5deleting?5destructor?8?$AA@ 10057df0     LIBCMT:undname.obj
 0002:00005e10       ??_C@_0BO@OBMKPJIG@?$GAdefault?5constructor?5closure?8?$AA@ 10057e10     LIBCMT:undname.obj
 0002:00005e30       ??_C@_0BN@DEGPLNFK@?$GAvector?5deleting?5destructor?8?$AA@ 10057e30     LIBCMT:undname.obj
 0002:00005e50       ??_C@_0BD@JDLKDPAB@?$GAvbase?5destructor?8?$AA@ 10057e50     LIBCMT:undname.obj
 0002:00005e64       ??_C@_08OBABFOLI@?$GAstring?8?$AA@ 10057e64     LIBCMT:undname.obj
 0002:00005e70       ??_C@_0BF@KDPPACIK@?$GAlocal?5static?5guard?8?$AA@ 10057e70     LIBCMT:undname.obj
 0002:00005e88       ??_C@_08LLFFHHDJ@?$GAtypeof?8?$AA@ 10057e88     LIBCMT:undname.obj
 0002:00005e94       ??_C@_07FEEIOKP@?$GAvcall?8?$AA@ 10057e94     LIBCMT:undname.obj
 0002:00005e9c       ??_C@_09BLBHBJP@?$GAvbtable?8?$AA@ 10057e9c     LIBCMT:undname.obj
 0002:00005ea8       ??_C@_09IFPLHPGF@?$GAvftable?8?$AA@ 10057ea8     LIBCMT:undname.obj
 0002:00005eb4       ??_C@_02MHEGNOJ@?$FO?$DN?$AA@ 10057eb4     LIBCMT:undname.obj
 0002:00005eb8       ??_C@_02DHLNPPGH@?$HM?$DN?$AA@ 10057eb8     LIBCMT:undname.obj
 0002:00005ebc       ??_C@_02FGJGFEAB@?$CG?$DN?$AA@ 10057ebc     LIBCMT:undname.obj
 0002:00005ec0       ??_C@_03CDNPDDLA@?$DM?$DM?$DN?$AA@ 10057ec0     LIBCMT:undname.obj
 0002:00005ec4       ??_C@_03IKFCCPFF@?$DO?$DO?$DN?$AA@ 10057ec4     LIBCMT:undname.obj
 0002:00005ec8       ??_C@_02FENAOKFI@?$CF?$DN?$AA@ 10057ec8     LIBCMT:undname.obj
 0002:00005ecc       ??_C@_02FJEHGPIO@?1?$DN?$AA@ 10057ecc     LIBCMT:undname.obj
 0002:00005ed0       ??_C@_02FKMDLLOA@?9?$DN?$AA@ 10057ed0     LIBCMT:undname.obj
 0002:00005ed4       ??_C@_02FOEOMHFC@?$CL?$DN?$AA@ 10057ed4     LIBCMT:undname.obj
 0002:00005ed8       ??_C@_02FPIMKNGF@?$CK?$DN?$AA@ 10057ed8     LIBCMT:undname.obj
 0002:00005edc       ??_C@_02NONPIBCD@?$HM?$HM?$AA@ 10057edc     LIBCMT:undname.obj
 0002:00005ee0       ??_C@_02PPKAJPJL@?$CG?$CG?$AA@ 10057ee0     LIBCMT:undname.obj
 0002:00005ee4       ??_C@_01DNKMNLPK@?$HM?$AA@ 10057ee4     LIBCMT:undname.obj
 0002:00005ee8       ??_C@_01JKBOJNNK@?$FO?$AA@ 10057ee8     LIBCMT:undname.obj
 0002:00005eec       ??_C@_01PJKLJHI@?$HO?$AA@  10057eec     LIBCMT:undname.obj
 0002:00005ef0       ??_C@_02HCKGKOFO@?$CI?$CJ?$AA@ 10057ef0     LIBCMT:undname.obj
 0002:00005ef4       ??_C@_01IHBHIGKO@?0?$AA@   10057ef4     LIBCMT:undname.obj
 0002:00005ef8       ??_C@_02EEKDKGMJ@?$DO?$DN?$AA@ 10057ef8     LIBCMT:undname.obj
 0002:00005efc       ??_C@_01PPODPGHN@?$DO?$AA@ 10057efc     LIBCMT:undname.obj
 0002:00005f00       ??_C@_02EHCHHCKH@?$DM?$DN?$AA@ 10057f00     LIBCMT:undname.obj
 0002:00005f04       ??_C@_01MNNFJEPP@?$DM?$AA@ 10057f04     LIBCMT:undname.obj
 0002:00005f08       ??_C@_01FGNFDNOH@?$CF?$AA@ 10057f08     LIBCMT:undname.obj
 0002:00005f0c       ??_C@_01KMDKNFGN@?1?$AA@   10057f0c     LIBCMT:undname.obj
 0002:00005f10       ??_C@_03MNHNFDLC@?9?$DO?$CK?$AA@ 10057f10     LIBCMT:undname.obj
 0002:00005f14       ??_C@_01HNPIGOCE@?$CG?$AA@ 10057f14     LIBCMT:undname.obj
 0002:00005f18       ??_C@_01MIFGBAGJ@?$CL?$AA@ 10057f18     LIBCMT:undname.obj
 0002:00005f1c       ??_C@_01JOAMLHOP@?9?$AA@   10057f1c     LIBCMT:undname.obj
 0002:00005f20       ??_C@_02BAABKJLB@?9?9?$AA@ 10057f20     LIBCMT:undname.obj
 0002:00005f24       ??_C@_02ECNGHCIF@?$CL?$CL?$AA@ 10057f24     LIBCMT:undname.obj
 0002:00005f28       ??_C@_02HBOOOICD@?9?$DO?$AA@ 10057f28     LIBCMT:undname.obj
 0002:00005f2c       ??_C@_08LHJFAFGD@operator?$AA@ 10057f2c     LIBCMT:undname.obj
 0002:00005f38       ??_C@_02GPECMEKF@?$FL?$FN?$AA@ 10057f38     LIBCMT:undname.obj
 0002:00005f3c       ??_C@_02FDNJECIE@?$CB?$DN?$AA@ 10057f3c     LIBCMT:undname.obj
 0002:00005f40       ??_C@_02EGOFBIJA@?$DN?$DN?$AA@ 10057f40     LIBCMT:undname.obj
 0002:00005f44       ??_C@_01DCLJPIOD@?$CB?$AA@ 10057f44     LIBCMT:undname.obj
 0002:00005f48       ??_C@_02FODMEDOG@?$DM?$DM?$AA@ 10057f48     LIBCMT:undname.obj
 0002:00005f4c       ??_C@_02GPIOPFAK@?$DO?$DO?$AA@ 10057f4c     LIBCMT:undname.obj
 0002:00005f50       ??_C@_07FPCDHGMM@?5delete?$AA@ 10057f50     LIBCMT:undname.obj
 0002:00005f58       ??_C@_04NIHEBCM@?5new?$AA@ 10057f58     LIBCMT:undname.obj
 0002:00005f60       ??_C@_0M@GFIIJFMG@__unaligned?$AA@ 10057f60     LIBCMT:undname.obj
 0002:00005f6c       ??_C@_0L@PILCLIHE@__restrict?$AA@ 10057f6c     LIBCMT:undname.obj
 0002:00005f78       ??_C@_07JOMMBBKO@__ptr64?$AA@ 10057f78     LIBCMT:undname.obj
 0002:00005f80       ??_C@_09HIJEGCPM@__clrcall?$AA@ 10057f80     LIBCMT:undname.obj
 0002:00005f8c       ??_C@_0L@JMKHOMEK@__fastcall?$AA@ 10057f8c     LIBCMT:undname.obj
 0002:00005f98       ??_C@_0L@NPHFGOKO@__thiscall?$AA@ 10057f98     LIBCMT:undname.obj
 0002:00005fa4       ??_C@_09IFJBGAPI@__stdcall?$AA@ 10057fa4     LIBCMT:undname.obj
 0002:00005fb0       ??_C@_08GHMPAG@__pascal?$AA@ 10057fb0     LIBCMT:undname.obj
 0002:00005fbc       ??_C@_07KOLFKCDI@__cdecl?$AA@ 10057fbc     LIBCMT:undname.obj
 0002:00005fc4       ??_C@_08EHJDFFNH@__based?$CI?$AA@ 10057fc4     LIBCMT:undname.obj
 0002:00006150       ??_C@_0BI@DFKBFLJE@GetProcessWindowStation?$AA@ 10058150     LIBCMT:crtmbox.obj
 0002:00006168       ??_C@_0BK@CIDNPOGP@GetUserObjectInformationA?$AA@ 10058168     LIBCMT:crtmbox.obj
 0002:00006184       ??_C@_0BD@HHGDFDBJ@GetLastActivePopup?$AA@ 10058184     LIBCMT:crtmbox.obj
 0002:00006198       ??_C@_0BA@HNOPNCHB@GetActiveWindow?$AA@ 10058198     LIBCMT:crtmbox.obj
 0002:000061a8       ??_C@_0M@CHKKJDAI@MessageBoxA?$AA@ 100581a8     LIBCMT:crtmbox.obj
 0002:000061b4       ??_C@_0L@NDEGIDAG@USER32?4DLL?$AA@ 100581b4     LIBCMT:crtmbox.obj
 0002:000061c0       ___lookuptable_s           100581c0     LIBCMT:outputs.obj
 0002:0000621c       ??_C@_06IMKFLFPG@1?$CDQNAN?$AA@ 1005821c     LIBCMT:x10fout.obj
 0002:00006224       ??_C@_05DNEBIAHO@1?$CDINF?$AA@ 10058224     LIBCMT:x10fout.obj
 0002:0000622c       ??_C@_05PHHOCPM@1?$CDIND?$AA@ 1005822c     LIBCMT:x10fout.obj
 0002:00006234       ??_C@_06PGGFOGJG@1?$CDSNAN?$AA@ 10058234     LIBCMT:x10fout.obj
 0002:0000623c       ??_C@_07GPDNMNG@CONOUT$?$AA@ 1005823c     LIBCMT:initcon.obj
 0002:00006244       ??_C@_0L@KDOEJCKC@_nextafter?$AA@ 10058244     LIBCMT:fpexcept.obj
 0002:00006250       ??_C@_05JGDBENOH@_logb?$AA@ 10058250     LIBCMT:fpexcept.obj
 0002:00006258       ??_C@_03ONILCKOB@_yn?$AA@  10058258     LIBCMT:fpexcept.obj
 0002:0000625c       ??_C@_03NAKIGLHK@_y1?$AA@  1005825c     LIBCMT:fpexcept.obj
 0002:00006260       ??_C@_03MJLDFKDL@_y0?$AA@  10058260     LIBCMT:fpexcept.obj
 0002:00006264       ??_C@_05GKKHEGJL@frexp?$AA@ 10058264     LIBCMT:fpexcept.obj
 0002:0000626c       ??_C@_04KEPJIHGP@fmod?$AA@ 1005826c     LIBCMT:fpexcept.obj
 0002:00006274       ??_C@_06MEIMCGCF@_hypot?$AA@ 10058274     LIBCMT:fpexcept.obj
 0002:0000627c       ??_C@_05KBKMEMPO@_cabs?$AA@ 1005827c     LIBCMT:fpexcept.obj
 0002:00006284       ??_C@_05CEJMAHNP@ldexp?$AA@ 10058284     LIBCMT:fpexcept.obj
 0002:0000628c       ??_C@_04EHEDPDJG@modf?$AA@ 1005828c     LIBCMT:fpexcept.obj
 0002:00006294       ??_C@_04ODHECPBC@fabs?$AA@ 10058294     LIBCMT:fpexcept.obj
 0002:0000629c       ??_C@_05PBJFFIGL@floor?$AA@ 1005829c     LIBCMT:fpexcept.obj
 0002:000062a4       ??_C@_04GFPJNGEK@ceil?$AA@ 100582a4     LIBCMT:fpexcept.obj
 0002:000062ac       ??_C@_03IIINPABG@tan?$AA@  100582ac     LIBCMT:fpexcept.obj
 0002:000062b0       ??_C@_03LALBNOCG@cos?$AA@  100582b0     LIBCMT:fpexcept.obj
 0002:000062b4       ??_C@_03BLEJJJBH@sin?$AA@  100582b4     LIBCMT:fpexcept.obj
 0002:000062b8       ??_C@_04EIAKFFMI@sqrt?$AA@ 100582b8     LIBCMT:fpexcept.obj
 0002:000062c0       ??_C@_05KNGEOGJB@atan2?$AA@ 100582c0     LIBCMT:fpexcept.obj
 0002:000062c8       ??_C@_04MLLJIGOK@atan?$AA@ 100582c8     LIBCMT:fpexcept.obj
 0002:000062d0       ??_C@_04PDIFKINK@acos?$AA@ 100582d0     LIBCMT:fpexcept.obj
 0002:000062d8       ??_C@_04FIHNOPOL@asin?$AA@ 100582d8     LIBCMT:fpexcept.obj
 0002:000062e0       ??_C@_04FJHINJAO@tanh?$AA@ 100582e0     LIBCMT:fpexcept.obj
 0002:000062e8       ??_C@_04HPJJNFIM@cosh?$AA@ 100582e8     LIBCMT:fpexcept.obj
 0002:000062f0       ??_C@_04COOMCNPB@sinh?$AA@ 100582f0     LIBCMT:fpexcept.obj
 0002:000062f8       ??_C@_05HGHHAHAP@log10?$AA@ 100582f8     LIBCMT:fpexcept.obj
 0002:00006300       ??_C@_03MGHMBJCF@log?$AA@  10058300     LIBCMT:fpexcept.obj
 0002:00006304       ??_C@_03JGHBODFD@pow?$AA@  10058304     LIBCMT:fpexcept.obj
 0002:00006308       ??_C@_03KHJOGHMM@exp?$AA@  10058308     LIBCMT:fpexcept.obj
 0002:0000630c       _GUID_ATLVer30             1005830c     atls:atlbase.obj
 0002:0000631c       _GUID_ATLVer70             1005831c     atls:atlbase.obj
 0002:0000632c       ??_7CWin32Heap@ATL@@6B@    1005832c     atls:atlstr.obj
 0002:00006340       ??_7CAtlStringMgr@ATL@@6B@ 10058340     atls:atlstr.obj
 0002:00006358       __load_config_used         10058358     LIBCMT:loadcfg.obj
 0002:000063a0       ??_R4bad_alloc@std@@6B@    100583a0     a2mgr.obj
 0002:000063b4       ??_R3bad_alloc@std@@8      100583b4     a2mgr.obj
 0002:000063c4       ??_R2bad_alloc@std@@8      100583c4     a2mgr.obj
 0002:000063d0       ??_R1A@?0A@EA@bad_alloc@std@@8 100583d0     a2mgr.obj
 0002:000063ec       ??_R1A@?0A@EA@exception@std@@8 100583ec     a2mgr.obj
 0002:00006408       ??_R3exception@std@@8      10058408     a2mgr.obj
 0002:00006418       ??_R2exception@std@@8      10058418     a2mgr.obj
 0002:00006420       ??_R4logic_error@std@@6B@  10058420     chat_history.obj
 0002:00006434       ??_R3logic_error@std@@8    10058434     chat_history.obj
 0002:00006444       ??_R2logic_error@std@@8    10058444     chat_history.obj
 0002:00006450       ??_R1A@?0A@EA@logic_error@std@@8 10058450     chat_history.obj
 0002:0000646c       ??_R4length_error@std@@6B@ 1005846c     chat_history.obj
 0002:00006480       ??_R3length_error@std@@8   10058480     chat_history.obj
 0002:00006490       ??_R2length_error@std@@8   10058490     chat_history.obj
 0002:000064a0       ??_R1A@?0A@EA@length_error@std@@8 100584a0     chat_history.obj
 0002:000064bc       ??_R4out_of_range@std@@6B@ 100584bc     class_extend.obj
 0002:000064d0       ??_R3out_of_range@std@@8   100584d0     class_extend.obj
 0002:000064e0       ??_R2out_of_range@std@@8   100584e0     class_extend.obj
 0002:000064f0       ??_R1A@?0A@EA@out_of_range@std@@8 100584f0     class_extend.obj
 0002:0000650c       ??_R4CEMapObject@@6B@      1005850c     class_mapobject.obj
 0002:00006520       ??_R3CEMapObject@@8        10058520     class_mapobject.obj
 0002:00006530       ??_R2CEMapObject@@8        10058530     class_mapobject.obj
 0002:00006538       ??_R1A@?0A@EA@CEMapObject@@8 10058538     class_mapobject.obj
 0002:00006554       ??_R4facet@locale@std@@6B@ 10058554     config.obj
 0002:00006568       ??_R3facet@locale@std@@8   10058568     config.obj
 0002:00006578       ??_R2facet@locale@std@@8   10058578     config.obj
 0002:00006580       ??_R1A@?0A@EA@facet@locale@std@@8 10058580     config.obj
 0002:0000659c       ??_R3codecvt_base@std@@8   1005859c     config.obj
 0002:000065ac       ??_R2codecvt_base@std@@8   100585ac     config.obj
 0002:000065b8       ??_R1A@?0A@EA@codecvt_base@std@@8 100585b8     config.obj
 0002:000065d4       ??_R3ctype_base@std@@8     100585d4     config.obj
 0002:000065e4       ??_R2ctype_base@std@@8     100585e4     config.obj
 0002:000065f0       ??_R1A@?0A@EA@ctype_base@std@@8 100585f0     config.obj
 0002:0000660c       ??_R4ios_base@std@@6B@     1005860c     config.obj
 0002:00006620       ??_R3ios_base@std@@8       10058620     config.obj
 0002:00006630       ??_R2ios_base@std@@8       10058630     config.obj
 0002:0000663c       ??_R1A@?0A@EA@ios_base@std@@8 1005863c     config.obj
 0002:00006658       ??_R13?0A@EA@?$_Iosb@H@std@@8 10058658     config.obj
 0002:00006674       ??_R3?$_Iosb@H@std@@8      10058674     config.obj
 0002:00006684       ??_R2?$_Iosb@H@std@@8      10058684     config.obj
 0002:0000668c       ??_R1A@?0A@EA@?$_Iosb@H@std@@8 1005868c     config.obj
 0002:000066a8       ??_R4?$basic_istream@DU?$char_traits@D@std@@@std@@6B@ 100586a8     config.obj
 0002:000066bc       ??_R3?$basic_istream@DU?$char_traits@D@std@@@std@@8 100586bc     config.obj
 0002:000066cc       ??_R2?$basic_istream@DU?$char_traits@D@std@@@std@@8 100586cc     config.obj
 0002:000066e0       ??_R1A@?0A@EA@?$basic_istream@DU?$char_traits@D@std@@@std@@8 100586e0     config.obj
 0002:000066fc       ??_R1A@A@3FA@?$basic_ios@DU?$char_traits@D@std@@@std@@8 100586fc     config.obj
 0002:00006718       ??_R3?$basic_ios@DU?$char_traits@D@std@@@std@@8 10058718     config.obj
 0002:00006728       ??_R2?$basic_ios@DU?$char_traits@D@std@@@std@@8 10058728     config.obj
 0002:00006738       ??_R1A@?0A@EA@?$basic_ios@DU?$char_traits@D@std@@@std@@8 10058738     config.obj
 0002:00006754       ??_R1A@A@3EA@ios_base@std@@8 10058754     config.obj
 0002:00006770       ??_R13A@3EA@?$_Iosb@H@std@@8 10058770     config.obj
 0002:0000678c       ??_R4?$basic_ios@DU?$char_traits@D@std@@@std@@6B@ 1005878c     config.obj
 0002:000067a0       ??_R4?$basic_streambuf@DU?$char_traits@D@std@@@std@@6B@ 100587a0     config.obj
 0002:000067b4       ??_R3?$basic_streambuf@DU?$char_traits@D@std@@@std@@8 100587b4     config.obj
 0002:000067c4       ??_R2?$basic_streambuf@DU?$char_traits@D@std@@@std@@8 100587c4     config.obj
 0002:000067cc       ??_R1A@?0A@EA@?$basic_streambuf@DU?$char_traits@D@std@@@std@@8 100587cc     config.obj
 0002:000067e8       ??_R4?$basic_filebuf@DU?$char_traits@D@std@@@std@@6B@ 100587e8     config.obj
 0002:000067fc       ??_R3?$basic_filebuf@DU?$char_traits@D@std@@@std@@8 100587fc     config.obj
 0002:0000680c       ??_R2?$basic_filebuf@DU?$char_traits@D@std@@@std@@8 1005880c     config.obj
 0002:00006818       ??_R1A@?0A@EA@?$basic_filebuf@DU?$char_traits@D@std@@@std@@8 10058818     config.obj
 0002:00006834       ??_R4runtime_error@std@@6B@ 10058834     config.obj
 0002:00006848       ??_R3runtime_error@std@@8  10058848     config.obj
 0002:00006858       ??_R2runtime_error@std@@8  10058858     config.obj
 0002:00006864       ??_R1A@?0A@EA@runtime_error@std@@8 10058864     config.obj
 0002:00006880       ??_R4failure@ios_base@std@@6B@ 10058880     config.obj
 0002:00006894       ??_R3failure@ios_base@std@@8 10058894     config.obj
 0002:000068a4       ??_R2failure@ios_base@std@@8 100588a4     config.obj
 0002:000068b4       ??_R1A@?0A@EA@failure@ios_base@std@@8 100588b4     config.obj
 0002:000068d0       ??_R4?$ctype@D@std@@6B@    100588d0     config.obj
 0002:000068e4       ??_R3?$ctype@D@std@@8      100588e4     config.obj
 0002:000068f4       ??_R2?$ctype@D@std@@8      100588f4     config.obj
 0002:00006904       ??_R1A@?0A@EA@?$ctype@D@std@@8 10058904     config.obj
 0002:00006920       ??_R4?$basic_ifstream@DU?$char_traits@D@std@@@std@@6B@ 10058920     config.obj
 0002:00006934       ??_R3?$basic_ifstream@DU?$char_traits@D@std@@@std@@8 10058934     config.obj
 0002:00006944       ??_R2?$basic_ifstream@DU?$char_traits@D@std@@@std@@8 10058944     config.obj
 0002:0000695c       ??_R1A@?0A@EA@?$basic_ifstream@DU?$char_traits@D@std@@@std@@8 1005895c     config.obj
 0002:00006978       ??_R4?$codecvt@DDH@std@@6B@ 10058978     config.obj
 0002:0000698c       ??_R3?$codecvt@DDH@std@@8  1005898c     config.obj
 0002:0000699c       ??_R2?$codecvt@DDH@std@@8  1005899c     config.obj
 0002:000069ac       ??_R1A@?0A@EA@?$codecvt@DDH@std@@8 100589ac     config.obj
 0002:000069c8       ??_R4?$basic_ostream@DU?$char_traits@D@std@@@std@@6B@ 100589c8     serialize.obj
 0002:000069dc       ??_R3?$basic_ostream@DU?$char_traits@D@std@@@std@@8 100589dc     serialize.obj
 0002:000069ec       ??_R2?$basic_ostream@DU?$char_traits@D@std@@@std@@8 100589ec     serialize.obj
 0002:00006a00       ??_R1A@?0A@EA@?$basic_ostream@DU?$char_traits@D@std@@@std@@8 10058a00     serialize.obj
 0002:00006a1c       ??_R4?$basic_ofstream@DU?$char_traits@D@std@@@std@@6B@ 10058a1c     serialize.obj
 0002:00006a30       ??_R3?$basic_ofstream@DU?$char_traits@D@std@@@std@@8 10058a30     serialize.obj
 0002:00006a40       ??_R2?$basic_ofstream@DU?$char_traits@D@std@@@std@@8 10058a40     serialize.obj
 0002:00006a58       ??_R1A@?0A@EA@?$basic_ofstream@DU?$char_traits@D@std@@@std@@8 10058a58     serialize.obj
 0002:00006a74       ??_R4LodePNGState@@6B@     10058a74     lodepng.obj
 0002:00006a88       ??_R3LodePNGState@@8       10058a88     lodepng.obj
 0002:00006a98       ??_R2LodePNGState@@8       10058a98     lodepng.obj
 0002:00006aa0       ??_R1A@?0A@EA@LodePNGState@@8 10058aa0     lodepng.obj
 0002:00006abc       ??_R4State@lodepng@@6B@    10058abc     lodepng.obj
 0002:00006ad0       ??_R3State@lodepng@@8      10058ad0     lodepng.obj
 0002:00006ae0       ??_R2State@lodepng@@8      10058ae0     lodepng.obj
 0002:00006aec       ??_R1A@?0A@EA@State@lodepng@@8 10058aec     lodepng.obj
 0002:00006b08       ??_R4_Locimp@locale@std@@6B@ 10058b08     libcpmt:locale0.obj
 0002:00006b1c       ??_R3_Locimp@locale@std@@8 10058b1c     libcpmt:locale0.obj
 0002:00006b2c       ??_R2_Locimp@locale@std@@8 10058b2c     libcpmt:locale0.obj
 0002:00006b38       ??_R1A@?0A@EA@_Locimp@locale@std@@8 10058b38     libcpmt:locale0.obj
 0002:00006b54       ??_R4exception@std@@6B@    10058b54     LIBCMT:stdexcpt.obj
 0002:00006b68       ??_R4bad_cast@std@@6B@     10058b68     LIBCMT:stdexcpt.obj
 0002:00006b7c       ??_R3bad_cast@std@@8       10058b7c     LIBCMT:stdexcpt.obj
 0002:00006b8c       ??_R2bad_cast@std@@8       10058b8c     LIBCMT:stdexcpt.obj
 0002:00006b98       ??_R1A@?0A@EA@bad_cast@std@@8 10058b98     LIBCMT:stdexcpt.obj
 0002:00006bb4       ??_R4type_info@@6B@        10058bb4     LIBCMT:typinfo.obj
 0002:00006bc8       ??_R3type_info@@8          10058bc8     LIBCMT:typinfo.obj
 0002:00006bd8       ??_R2type_info@@8          10058bd8     LIBCMT:typinfo.obj
 0002:00006be0       ??_R1A@?0A@EA@type_info@@8 10058be0     LIBCMT:typinfo.obj
 0002:00006bfc       ??_R4bad_exception@std@@6B@ 10058bfc     LIBCMT:frame.obj
 0002:00006c10       ??_R3bad_exception@std@@8  10058c10     LIBCMT:frame.obj
 0002:00006c20       ??_R2bad_exception@std@@8  10058c20     LIBCMT:frame.obj
 0002:00006c2c       ??_R1A@?0A@EA@bad_exception@std@@8 10058c2c     LIBCMT:frame.obj
 0002:00006c50       ___safe_se_handler_table   10058c50     <linker-defined>
 0002:00006f50       ___rtc_iaa                 10058f50     LIBCMT:initsect.obj
 0002:00006f54       ___rtc_izz                 10058f54     LIBCMT:initsect.obj
 0002:00006f58       ___rtc_taa                 10058f58     LIBCMT:initsect.obj
 0002:00006f5c       ___rtc_tzz                 10058f5c     LIBCMT:initsect.obj
 0002:00006f60       __TI2?AVbad_alloc@std@@    10058f60     a2mgr.obj
 0002:00006f70       __CTA2?AVbad_alloc@std@@   10058f70     a2mgr.obj
 0002:00006f7c       __CT??_R0?AVbad_alloc@std@@@8??0bad_alloc@std@@QAE@ABV01@@Z12 10058f7c     a2mgr.obj
 0002:00006f98       __CT??_R0?AVexception@std@@@8??0exception@std@@QAE@ABV01@@Z12 10058f98     a2mgr.obj
 0002:000071bc       __TI3?AVlength_error@std@@ 100591bc     chat_history.obj
 0002:000071cc       __CTA3?AVlength_error@std@@ 100591cc     chat_history.obj
 0002:000071dc       __CT??_R0?AVlength_error@std@@@8??0length_error@std@@QAE@ABV01@@Z40 100591dc     chat_history.obj
 0002:000071f8       __CT??_R0?AVlogic_error@std@@@8??0logic_error@std@@QAE@ABV01@@Z40 100591f8     chat_history.obj
 0002:00007680       __TI3?AVout_of_range@std@@ 10059680     class_extend.obj
 0002:000076bc       __CTA3?AVout_of_range@std@@ 100596bc     class_extend.obj
 0002:000076cc       __CT??_R0?AVout_of_range@std@@@8??0out_of_range@std@@QAE@ABV01@@Z40 100596cc     class_extend.obj
 0002:000078a4       __TI2?AVruntime_error@std@@ 100598a4     config.obj
 0002:00007908       __CTA2?AVruntime_error@std@@ 10059908     config.obj
 0002:00007914       __CT??_R0?AVruntime_error@std@@@8??0runtime_error@std@@QAE@ABV01@@Z40 10059914     config.obj
 0002:0000795c       __TI3?AVfailure@ios_base@std@@ 1005995c     config.obj
 0002:000079a8       __CTA3?AVfailure@ios_base@std@@ 100599a8     config.obj
 0002:000079b8       __CT??_R0?AVfailure@ios_base@std@@@8??0failure@ios_base@std@@QAE@ABV012@@Z40 100599b8     config.obj
 0002:00007a2c       __TI2?AVbad_cast@std@@     10059a2c     config.obj
 0002:00007a3c       __CTA2?AVbad_cast@std@@    10059a3c     config.obj
 0002:00007a48       __CT??_R0?AVbad_cast@std@@@8??0bad_cast@std@@QAE@ABV01@@Z12 10059a48     config.obj
 0002:000087c0       __TI1?AVCAtlException@ATL@@ 1005a7c0     network_protocol_ext.obj
 0002:000087d0       __CTA1?AVCAtlException@ATL@@ 1005a7d0     network_protocol_ext.obj
 0002:000087d8       __CT??_R0?AVCAtlException@ATL@@@84 1005a7d8     network_protocol_ext.obj
 0002:0000964c       __TI1?AVWobbly@happyhttp@@ 1005b64c     happyhttp.obj
 0002:0000965c       __CTA1?AVWobbly@happyhttp@@ 1005b65c     happyhttp.obj
 0002:00009664       __CT??_R0?AVWobbly@happyhttp@@@8256 1005b664     happyhttp.obj
 0002:0000a8d4       __TI2?AVbad_exception@std@@ 1005c8d4     LIBCMT:frame.obj
 0002:0000a8e4       __CTA2?AVbad_exception@std@@ 1005c8e4     LIBCMT:frame.obj
 0002:0000a8f0       __CT??_R0?AVbad_exception@std@@@8??0bad_exception@std@@QAE@ABV01@@Z12 1005c8f0     LIBCMT:frame.obj
 0002:0000acdc       __IMPORT_DESCRIPTOR_SDL    1005ccdc     SDL:SDL.dll
 0002:0000acf0       __IMPORT_DESCRIPTOR_SDL_image 1005ccf0     SDL_image:SDL_image.dll
 0002:0000ad04       __IMPORT_DESCRIPTOR_KERNEL32 1005cd04     kernel32:KERNEL32.dll
 0002:0000ad18       __IMPORT_DESCRIPTOR_USER32 1005cd18     user32:USER32.dll
 0002:0000ad2c       __IMPORT_DESCRIPTOR_ADVAPI32 1005cd2c     advapi32:ADVAPI32.dll
 0002:0000ad40       __IMPORT_DESCRIPTOR_PSAPI  1005cd40     psapi:PSAPI.DLL
 0002:0000ad54       __IMPORT_DESCRIPTOR_WS2_32 1005cd54     ws2_32:WS2_32.dll
 0002:0000ad68       __IMPORT_DESCRIPTOR_gdiplus 1005cd68     gdiplus:gdiplus.dll
 0002:0000ad7c       __NULL_IMPORT_DESCRIPTOR   1005cd7c     SDL:SDL.dll
 0003:00000004       ??_R0?AVbad_alloc@std@@@8  1005e004     a2mgr.obj
 0003:00000020       ??_R0?AVexception@std@@@8  1005e020     a2mgr.obj
 0003:00000044       ?pr_c_2_str@@3PADA         1005e044     chat.obj
 0003:0000004c       ??_R0?AVlogic_error@std@@@8 1005e04c     chat_history.obj
 0003:0000006c       ??_R0?AVlength_error@std@@@8 1005e06c     chat_history.obj
 0003:00000090       ??_R0?AVout_of_range@std@@@8 1005e090     class_extend.obj
 0003:000000b4       ??_R0?AUCEMapObject@@@8    1005e0b4     class_mapobject.obj
 0003:000000d8       ?g_scrollintv@@3KA         1005e0d8     config.obj
 0003:000000dc       ?r_width@@3KA              1005e0dc     config.obj
 0003:000000e0       ?r_height@@3KA             1005e0e0     config.obj
 0003:000000e4       ?z_screendir@@3_NA         1005e0e4     config.obj
 0003:000000e5       ?z_logsdir@@3_NA           1005e0e5     config.obj
 0003:000000e6       ?z_russian@@3_NA           1005e0e6     config.obj
 0003:000000e8       ?net_maxplayers@@3KA       1005e0e8     config.obj
 0003:000000ec       ?r_grid_color@@3KA         1005e0ec     config.obj
 0003:000000f0       ?current_directory@@3V?$basic_string@DU?$char_traits@D@std@@V?$allocator@D@2@@std@@A 1005e0f0     config.obj
 0003:0000010c       ??_R0?AVfacet@locale@std@@@8 1005e10c     config.obj
 0003:0000012c       ??_R0?AVcodecvt_base@std@@@8 1005e12c     config.obj
 0003:0000014c       ??_R0?AUctype_base@std@@@8 1005e14c     config.obj
 0003:0000016c       ??_R0?AVios_base@std@@@8   1005e16c     config.obj
 0003:00000188       ??_R0?AV?$_Iosb@H@std@@@8  1005e188     config.obj
 0003:000001a4       ??_R0?AV?$basic_istream@DU?$char_traits@D@std@@@std@@@8 1005e1a4     config.obj
 0003:000001e0       ??_R0?AV?$basic_ios@DU?$char_traits@D@std@@@std@@@8 1005e1e0     config.obj
 0003:00000218       ??_R0?AV?$basic_streambuf@DU?$char_traits@D@std@@@std@@@8 1005e218     config.obj
 0003:00000254       ??_R0?AV?$basic_filebuf@DU?$char_traits@D@std@@@std@@@8 1005e254     config.obj
 0003:00000290       ??_R0?AVruntime_error@std@@@8 1005e290     config.obj
 0003:000002b0       ??_R0?AVfailure@ios_base@std@@@8 1005e2b0     config.obj
 0003:000002d4       ??_R0?AV?$ctype@D@std@@@8  1005e2d4     config.obj
 0003:000002f0       ??_R0?AV?$basic_ifstream@DU?$char_traits@D@std@@@std@@@8 1005e2f0     config.obj
 0003:0000032c       ??_R0?AVbad_cast@std@@@8   1005e32c     config.obj
 0003:00000348       ??_R0?AV?$codecvt@DDH@std@@@8 1005e348     config.obj
 0003:00000378       ?Archives@@3VFileArchive@@A 1005e378     File.obj
 0003:000003ec       ?aHat@@3PADA               1005e3ec     network_hat_enter.obj
 0003:000003fc       ?cmdLine@@3V?$basic_string@DU?$char_traits@D@std@@V?$allocator@D@2@@std@@A 1005e3fc     network_hat_enter.obj
 0003:00000418       ?match@@3V?$basic_string@DU?$char_traits@D@std@@V?$allocator@D@2@@std@@A 1005e418     network_hat_enter.obj
 0003:00000438       ?recv_lastRemaining@@3HA   1005e438     network_protocol.obj
 0003:00000440       ??_R0?AVCAtlException@ATL@@@8 1005e440     network_protocol_ext.obj
 0003:00000460       ??_R0?AVWobbly@happyhttp@@@8 1005e460     network_protocol_ext.obj
 0003:00000484       ?logwhere@@3PADA           1005e484     pack_scrolling.obj
 0003:00000494       ?aPatchC@@3PADA            1005e494     resource_control.obj
 0003:000004a0       ?aDataC@@3PADA             1005e4a0     resource_control.obj
 0003:000004a8       ?aLocale_res@@3PADA        1005e4a8     resource_control.obj
 0003:000004b4       ?aWorld@@3PADA             1005e4b4     resource_files_replace.obj
 0003:000004b8       ?aWorldData@@3PADA         1005e4b8     resource_files_replace.obj
 0003:000004bc       ?aWorldDataDatabin@@3PADA  1005e4bc     resource_files_replace.obj
 0003:000004c0       ?aWorldDataAireg@@3PADA    1005e4c0     resource_files_replace.obj
 0003:000004c4       ?aWorldDataMapreg@@3PADA   1005e4c4     resource_files_replace.obj
 0003:000004c8       ?aWorldMissionScr@@3PADA   1005e4c8     resource_files_replace.obj
 0003:000004cc       ?aWorldDataItemnamebin@@3PADA 1005e4cc     resource_files_replace.obj
 0003:000004d0       ?aWorldDataItemnamepkt@@3PADA 1005e4d0     resource_files_replace.obj
 0003:000004d4       ?aPatch@@3PADA             1005e4d4     resource_files_replace.obj
 0003:000004d8       ?aPatchPatchtxt@@3PADA     1005e4d8     resource_files_replace.obj
 0003:000004e8       ??_R0?AV?$basic_ostream@DU?$char_traits@D@std@@@std@@@8 1005e4e8     serialize.obj
 0003:00000524       ??_R0?AV?$basic_ofstream@DU?$char_traits@D@std@@@std@@@8 1005e524     serialize.obj
 0003:00000564       ?_LOG_NAME@@3V?$basic_string@DU?$char_traits@D@std@@V?$allocator@D@2@@std@@A 1005e564     utils.obj
 0003:00000584       ?_memcpy@@3KA              1005e584     zxmgr.obj
 0003:00000590       ?DefCWindowVtbl@GUI@zxmgr@@3PAKA 1005e590     zxmgr_gui.obj
 0003:00000a30       ??_R0?AULodePNGState@@@8   1005ea30     lodepng.obj
 0003:00000a4c       ??_R0?AVState@lodepng@@@8  1005ea4c     lodepng.obj
 0003:00000aac       ??_R0?AV_Locimp@locale@std@@@8 1005eaac     libcpmt:locale0.obj
 0003:00000ad4       ?_Sync@ios_base@std@@0_NA  1005ead4     libcpmt:ios.obj
 0003:00000b28       ?_PJP_CPP_Copyright@@3PADA 1005eb28     libcpmt:iosptrs.obj
 0003:00000b8c       ??_R0?AVtype_info@@@8      1005eb8c     LIBCMT:typinfo.obj
 0003:00000bb4       ?__pMyUnhandledExceptionFilter@@3PAXA 1005ebb4     LIBCMT:throw.obj
 0003:00000bb8       ___security_cookie         1005ebb8     LIBCMT:gs_cookie.obj
 0003:00000bbc       ___security_cookie_complement 1005ebbc     LIBCMT:gs_cookie.obj
 0003:00000bc0       __fltused                  1005ebc0     LIBCMT:fpinit.obj
 0003:00000bc4       __ldused                   1005ebc4     LIBCMT:fpinit.obj
 0003:00000bd0       __lookuptrailbytes         1005ebd0     LIBCMT:read.obj
 0003:00000ce0       __pctype                   1005ece0     LIBCMT:ctype.obj
 0003:00000ce4       __pwctype                  1005ece4     LIBCMT:ctype.obj
 0003:00000cec       __aexit_rtn                1005ecec     LIBCMT:crt0dat.obj
 0003:00000cf8       ??_R0?AVbad_exception@std@@@8 1005ecf8     LIBCMT:frame.obj
 0003:00000d18       ___abort_behavior          1005ed18     LIBCMT:abort.obj
 0003:00000ea8       __timezone                 1005eea8     LIBCMT:timeset.obj
 0003:00000eac       __daylight                 1005eeac     LIBCMT:timeset.obj
 0003:00000eb0       __dstbias                  1005eeb0     LIBCMT:timeset.obj
 0003:00000f38       __tzname                   1005ef38     LIBCMT:timeset.obj
 0003:00000f40       ___flsindex                1005ef40     LIBCMT:tidtable.obj
 0003:00000f44       ___getvalueindex           1005ef44     LIBCMT:tidtable.obj
 0003:00000f50       ___nullstring              1005ef50     LIBCMT:output.obj
 0003:00000f54       ___wnullstring             1005ef54     LIBCMT:output.obj
 0003:00000f58       __cfltcvt_tab              1005ef58     LIBCMT:cmiscdat.obj
 0003:00000f80       __lpdays                   1005ef80     LIBCMT:days.obj
 0003:00000fb4       __days                     1005efb4     LIBCMT:days.obj
 0003:00000ff0       __amblksiz                 1005eff0     LIBCMT:heapinit.obj
 0003:00001118       __iob                      1005f118     LIBCMT:_file.obj
 0003:00001398       ___badioinfo               1005f398     LIBCMT:ioinit.obj
 0003:00001478       ___initialmbcinfo          1005f478     LIBCMT:mbctype.obj
 0003:00001698       __mbctype                  1005f698     LIBCMT:mbctype.obj
 0003:000017a0       __mbcasemap                1005f7a0     LIBCMT:mbctype.obj
 0003:000018a0       ___ptmbcinfo               1005f8a0     LIBCMT:mbctype.obj
 0003:00001998       ___globallocalestatus      1005f998     LIBCMT:glstatus.obj
 0003:000019a0       ___clocalestr              1005f9a0     LIBCMT:nlsdata2.obj
 0003:000019a8       ___initiallocinfo          1005f9a8     LIBCMT:nlsdata2.obj
 0003:00001a80       ___ptlocinfo               1005fa80     LIBCMT:nlsdata2.obj
 0003:00001a84       ___lc_clike                1005fa84     LIBCMT:nlsdata2.obj
 0003:00001a88       ___initiallocalestructinfo 1005fa88     LIBCMT:nlsdata2.obj
 0003:00001a90       __indefinite               1005fa90     LIBCMT:87disp.obj
 0003:00001a9a       __piby2                    1005fa9a     LIBCMT:87disp.obj
 0003:00001ac0       __XcptActTab               1005fac0     LIBCMT:winxfltr.obj
 0003:00001b38       __First_FPE_Indx           1005fb38     LIBCMT:winxfltr.obj
 0003:00001b3c       __Num_FPE                  1005fb3c     LIBCMT:winxfltr.obj
 0003:00001b40       __XcptActTabSize           1005fb40     LIBCMT:winxfltr.obj
 0003:00001b44       __XcptActTabCount          1005fb44     LIBCMT:winxfltr.obj
 0003:00001b48       ___lc_time_c               1005fb48     LIBCMT:strftime.obj
 0003:00001c00       ___lc_time_curr            1005fc00     LIBCMT:strftime.obj
 0003:00001c04       ___lconv_static_decimal    1005fc04     LIBCMT:lconv.obj
 0003:00001c08       ___lconv_c                 1005fc08     LIBCMT:lconv.obj
 0003:00001c38       ___lconv                   1005fc38     LIBCMT:lconv.obj
 0003:00001c3c       ___mb_cur_max              1005fc3c     LIBCMT:nlsdata1.obj
 0003:00001c40       ___decimal_point           1005fc40     LIBCMT:nlsdata1.obj
 0003:00001c44       ___decimal_point_length    1005fc44     LIBCMT:nlsdata1.obj
 0003:00001c50       __NLG_Destination          1005fc50     LIBCMT:exsup.obj
 0003:00001c94       __coninpfh                 1005fc94     LIBCMT:initcon.obj
 0003:00001c98       __confh                    1005fc98     LIBCMT:initcon.obj
 0003:00001d88       __matherr_flag             1005fd88     LIBCMT:matherr.obj
 0003:00001db0       __pow10pos                 1005fdb0     LIBCMT:constpow.obj
 0003:00001f10       __pow10neg                 1005ff10     LIBCMT:constpow.obj
 0003:00002070       __d_inf                    10060070     LIBCMT:util.obj
 0003:00002078       __d_ind                    10060078     LIBCMT:util.obj
 0003:00002080       __d_max                    10060080     LIBCMT:util.obj
 0003:00002088       __d_min                    10060088     LIBCMT:util.obj
 0003:00002090       __d_mzero                  10060090     LIBCMT:util.obj
 0003:00002098       ?g_pfnGetThreadACP@ATL@@3P6GIXZA 10060098     atls:atltrace.obj
 0003:000020a0       ?dll_path@@3PADA           100600a0     a2mgr.obj
 0003:000021a8       ?exe_path@@3PADA           100601a8     a2mgr.obj
 0003:000022ac       ?u_pid@@3KA                100602ac     a2mgr.obj
 0003:000022b0       ?u_pid_string@@3PADA       100602b0     a2mgr.obj
 0003:000022b4       ?u_pid_string_delete@@3PADA 100602b4     a2mgr.obj
 0003:000022b8       ?id@?$codecvt@DDH@std@@2V0locale@2@A 100602b8     a2mgr.obj
 0003:000022c0       ?c_Visible@@3_NA           100602c0     add_info.obj
 0003:000022c4       ?cImageBG@@3PAVImage@@A    100602c4     add_info.obj
 0003:000022c8       ?cImageLeft@@3PAVImage@@A  100602c8     add_info.obj
 0003:000022cc       ?cImageMid@@3PAVImage@@A   100602cc     add_info.obj
 0003:000022d0       ?cImageRight@@3PAVImage@@A 100602d0     add_info.obj
 0003:000022d8       ?start_time@@3_JA          100602d8     add_info.obj
 0003:00003fb8       ?__chat_history_index@@3KA 10061fb8     chat_history.obj
 0003:00003fbc       ?__chat_history@@3V?$vector@V?$vector@V?$basic_string@DU?$char_traits@D@std@@V?$allocator@D@2@@std@@V?$allocator@V?$basic_string@DU?$char_traits@D@std@@V?$allocator@D@2@@std@@@2@@std@@V?$allocator@V?$vector@V?$basic_string@DU?$char_traits@D@std@@V?$allocator@D@2@@std@@V?$allocator@V?$basic_string@DU?$char_traits@D@std@@V?$allocator@D@2@@std@@@2@@std@@@2@@std@@A 10061fbc     chat_history.obj
 0003:00003fcc       ?AssocMutex@@3PAXA         10061fcc     class_extend.obj
 0003:00003fd0       ?AssocList@@3V?$map@PAXPAXU?$less@PAX@std@@V?$allocator@U?$pair@QAXPAX@std@@@2@@std@@A 10061fd0     class_extend.obj
 0003:00003fdc       ?sha1_world_res@@3PAEA     10061fdc     config.obj
 0003:00003ff0       ?sha1_a2mgr_dll@@3PAEA     10061ff0     config.obj
 0003:00004004       ?sha1_patch_res@@3PAEA     10062004     config.obj
 0003:00004018       ?sha1_allods2_exe@@3PAEA   10062018     config.obj
 0003:0000402c       ?sha1_uuid@@3PAEA          1006202c     config.obj
 0003:00004040       ?sha1_graphics_res@@3PAEA  10062040     config.obj
 0003:00004054       ?v_screentype@@3KA         10062054     config.obj
 0003:00004058       ?r_fps@@3_NA               10062058     config.obj
 0003:00004059       ?r_time@@3_NA              10062059     config.obj
 0003:0000405a       ?r_stopwatch@@3_NA         1006205a     config.obj
 0003:0000405b       ?r_grid@@3_NA              1006205b     config.obj
 0003:0000405c       ?g_altchat@@3_NA           1006205c     config.obj
 0003:0000405d       ?z_lang_override@@3_NA     1006205d     config.obj
 0003:0000405e       ?show_stopwatch@@3_NA      1006205e     config.obj
 0003:00004060       ?z_resolution@@3KA         10062060     config.obj
 0003:00004064       ?show_stopwatch_frozen@@3KA 10062064     config.obj
 0003:00004068       ?net_key@@3KA              10062068     config.obj
 0003:0000406c       ?z_handle@@3KA             1006206c     config.obj
 0003:00004070       ?crc32_allods2_exe@@3KA    10062070     config.obj
 0003:00004074       ?crc32_a2mgr_dll@@3KA      10062074     config.obj
 0003:00004078       ?crc32_patch_res@@3KA      10062078     config.obj
 0003:0000407c       ?crc32_world_res@@3KA      1006207c     config.obj
 0003:00004080       ?crc32_graphics_res@@3KA   10062080     config.obj
 0003:00004084       ?z_softcore@@3HA           10062084     config.obj
 0003:00004088       ?_Stinit@?1??_Init@?$basic_filebuf@DU?$char_traits@D@std@@@std@@IAEXPAU_iobuf@@W4_Initfl@23@@Z@4HA 10062088     config.obj
 0003:0000408c       ?_Psave@?$_Facetptr@V?$ctype@D@std@@@std@@2PBVfacet@locale@2@B 1006208c     config.obj
 0003:00004090       ?_Psave@?$_Facetptr@V?$codecvt@DDH@std@@@std@@2PBVfacet@locale@2@B 10062090     config.obj
 0003:00004094       ?d_strings@@3V?$map@KV?$basic_string@DU?$char_traits@D@std@@V?$allocator@D@2@@std@@U?$less@K@2@V?$allocator@U?$pair@$$CBKV?$basic_string@DU?$char_traits@D@std@@V?$allocator@D@2@@std@@@std@@@2@@std@@A 10062094     debug.obj
 0003:000040a0       ?Names@@3V?$map@PBDV?$basic_string@DU?$char_traits@D@std@@V?$allocator@D@2@@std@@U?$less@PBD@2@V?$allocator@U?$pair@QBDV?$basic_string@DU?$char_traits@D@std@@V?$allocator@D@2@@std@@@std@@@2@@std@@A 100620a0     debug.obj
 0003:00004108       ?z_gamemode@@3KA           10062108     gui_replace.obj
 0003:0000410c       ?ipng_out_primary@@3PAXA   1006210c     itempng.obj
 0003:00004110       ?ipng_out_secondary@@3PAXA 10062110     itempng.obj
 0003:00004114       ?IImages@@3V?$vector@UIImageUse@@V?$allocator@UIImageUse@@@std@@@std@@A 10062114     itempng.obj
 0003:00004138       ?Tiles@@3PAY0O@UMapTile@@A 10062138     landscape_renderer.obj
 0003:00006eb8       ?aMainTextCredit@@3PADA    10064eb8     language.obj
 0003:00006ebc       ?aMainTextGlobal@@3PADA    10064ebc     language.obj
 0003:00006ec0       ?aMainTextHelp_t@@3PADA    10064ec0     language.obj
 0003:00006ec4       ?aMainTextMain_t@@3PADA    10064ec4     language.obj
 0003:00006ec8       ?aMainTextHeropi@@3PADA    10064ec8     language.obj
 0003:00006ecc       ?aMainTextStats_@@3PADA    10064ecc     language.obj
 0003:00006ed0       ?aMainTextSpells@@3PADA    10064ed0     language.obj
 0003:00006ed4       ?aMainTextSpell_@@3PADA    10064ed4     language.obj
 0003:00006ed8       ?aMainTextDialog@@3PADA    10064ed8     language.obj
 0003:00006edc       ?aMainTextUnitna@@3PADA    10064edc     language.obj
 0003:00006ee0       ?aMainTextBuildi@@3PADA    10064ee0     language.obj
 0003:00006ee4       ?aMainTextItemna@@3PADA    10064ee4     language.obj
 0003:00006ee8       ?aMainTextNpcnam@@3PADA    10064ee8     language.obj
 0003:00006eec       ?aMainTextCutsce@@3PADA    10064eec     language.obj
 0003:00006ef0       ?aMainTextCutpat@@3PADA    10064ef0     language.obj
 0003:00006ef4       ?aMainTextTunes_@@3PADA    10064ef4     language.obj
 0003:00006ef8       ?aPatchPatch_txt@@3PADA    10064ef8     language.obj
 0003:00006efc       ?aMainTextTown_t@@3PADA    10064efc     language.obj
 0003:00006f00       ?aMainTextMissio@@3PADA    10064f00     language.obj
 0003:00006f04       ?aMainTextQuest_@@3PADA    10064f04     language.obj
 0003:00006f08       ?aMainTextDocsD_@@3PADA    10064f08     language.obj
 0003:00006f0c       ?aMainGraphicsCh@@3PADA    10064f0c     language.obj
 0003:00006f10       ?aMainGraphicsLo@@3PADA    10064f10     language.obj
 0003:00006f14       ?aMainGraphicsFa@@3PADA    10064f14     language.obj
 0003:00006f18       ?aMainGraphicsGl@@3PADA    10064f18     language.obj
 0003:00006f1c       ?aMainGraphics_0@@3PADA    10064f1c     language.obj
 0003:00006f20       ?aMainGraphics_1@@3PADA    10064f20     language.obj
 0003:00006f24       ?aMainGraphicsMa@@3PADA    10064f24     language.obj
 0003:00006f28       ?aMainGraphics_2@@3PADA    10064f28     language.obj
 0003:00006f2c       ?aMainGraphics_3@@3PADA    10064f2c     language.obj
 0003:00006f30       ?aMainGraphics_4@@3PADA    10064f30     language.obj
 0003:00006f34       ?aMainGraphics_5@@3PADA    10064f34     language.obj
 0003:00006f38       ?mapFileName@@3PADA        10064f38     map_location.obj
 0003:00007038       ?aLogin@@3PBDB             10065038     network_hat_enter.obj
 0003:0000703c       ?aPassword@@3PBDB          1006503c     network_hat_enter.obj
 0003:00007040       ?newNetBuffer@@3PADA       10065040     network_protocol.obj
 0003:00013840       ?_neI_SessionKey@@3KA      10071840     network_protocol.obj
 0003:00013844       ?_neI_SessionID@@3KA       10071844     network_protocol.obj
 0003:00013848       ?recv_lastCustom@@3_NA     10071848     network_protocol.obj
 0003:00013849       ?recv_lastIncomplete@@3_NA 10071849     network_protocol.obj
 0003:00013850       ?hProgLock@@3PAXA          10071850     network_protocol_ext.obj
 0003:00013854       ?LastSI@@3PAUScreenshotInfo@@A 10071854     network_protocol_ext.obj
 0003:0001388c       ?oldfilenames@@3V?$vector@V?$basic_string@DU?$char_traits@D@std@@V?$allocator@D@2@@std@@V?$allocator@V?$basic_string@DU?$char_traits@D@std@@V?$allocator@D@2@@std@@@2@@std@@A 1007188c     network_protocol_ext.obj
 0003:000138a0       ?gprogress@@3UNETPROTO_fileProgress@@A 100718a0     network_protocol_ext.obj
 0003:00013930       ?m_bInitFailed@CAtlBaseModule@ATL@@2_NA 10071930     network_protocol_ext.obj
 0003:00013938       ?scanrange_initialized@@3_NA 10071938     scanrange.obj
 0003:0001393c       ?scanrange_map@@3PADA      1007193c     scanrange.obj
 0003:00013940       ?Scanrange@@3VCScanrangeCalc@@A 10071940     scanrange.obj
 0003:00016e04       ?delta@@3KA                10074e04     scrolling.obj
 0003:00016e08       ?lastTime@@3KA             10074e08     scrolling.obj
 0003:00016e10       ?_LOG_FILE@@3V?$basic_ofstream@DU?$char_traits@D@std@@@std@@A 10074e10     utils.obj
 0003:00016e98       ?rhei@@3HA                 10074e98     video_init.obj
 0003:00016e9c       ?rwid@@3HA                 10074e9c     video_init.obj
 0003:00016f2c       ?_Clocptr@_Locimp@locale@std@@0PAV123@A 10074f2c     libcpmt:locale0.obj
 0003:00016f30       ?_Id_cnt@id@locale@std@@0HA 10074f30     libcpmt:locale0.obj
 0003:00016f34       ?id@?$ctype@D@std@@2V0locale@2@A 10074f34     libcpmt:locale0.obj
 0003:00016f38       ?id@?$codecvt@GDH@std@@2V0locale@2@A 10074f38     libcpmt:locale0.obj
 0003:00016f3c       ?id@?$ctype@_W@std@@2V0locale@2@A 10074f3c     libcpmt:locale0.obj
 0003:00016f40       ?id@?$codecvt@_WDH@std@@2V0locale@2@A 10074f40     libcpmt:locale0.obj
 0003:00016f48       ?id@?$ctype@G@std@@2V0locale@2@A 10074f48     libcpmt:locale0.obj
 0003:00016f50       ?_Fpz@std@@3_JA            10074f50     libcpmt:ios.obj
 0003:00016f58       ?_Index@ios_base@std@@0HA  10074f58     libcpmt:ios.obj
 0003:00016f90       ?_Ptr_cin@std@@3PAV?$basic_istream@DU?$char_traits@D@std@@@1@A 10074f90     libcpmt:iosptrs.obj
 0003:00016f94       ?_Ptr_cout@std@@3PAV?$basic_ostream@DU?$char_traits@D@std@@@1@A 10074f94     libcpmt:iosptrs.obj
 0003:00016f98       ?_Ptr_cerr@std@@3PAV?$basic_ostream@DU?$char_traits@D@std@@@1@A 10074f98     libcpmt:iosptrs.obj
 0003:00016f9c       ?_Ptr_clog@std@@3PAV?$basic_ostream@DU?$char_traits@D@std@@@1@A 10074f9c     libcpmt:iosptrs.obj
 0003:00016fa0       ?_Ptr_wcin@std@@3PAV?$basic_istream@_WU?$char_traits@_W@std@@@1@A 10074fa0     libcpmt:iosptrs.obj
 0003:00016fa4       ?_Ptr_wcout@std@@3PAV?$basic_ostream@_WU?$char_traits@_W@std@@@1@A 10074fa4     libcpmt:iosptrs.obj
 0003:00016fa8       ?_Ptr_wcerr@std@@3PAV?$basic_ostream@_WU?$char_traits@_W@std@@@1@A 10074fa8     libcpmt:iosptrs.obj
 0003:00016fac       ?_Ptr_wclog@std@@3PAV?$basic_ostream@_WU?$char_traits@_W@std@@@1@A 10074fac     libcpmt:iosptrs.obj
 0003:00016fdc       ___pInvalidArgHandler      10074fdc     LIBCMT:invarg.obj
 0003:00016ff0       ___fastflag                10074ff0     LIBCMT:fpinit.obj
 0003:00016ff4       __adjust_fdiv              10074ff4     LIBCMT:fpinit.obj
 0003:00016ffc       __aenvptr                  10074ffc     LIBCMT:dllcrt0.obj
 0003:00017000       __wenvptr                  10075000     LIBCMT:dllcrt0.obj
 0003:00017004       ___error_mode              10075004     LIBCMT:dllcrt0.obj
 0003:00017008       ___app_type                10075008     LIBCMT:dllcrt0.obj
 0003:00017010       __maxwait                  10075010     LIBCMT:crtheap.obj
 0003:00017014       ___locale_changed          10075014     LIBCMT:setlocal.obj
 0003:00017018       __umaskval                 10075018     LIBCMT:crt0dat.obj
 0003:0001701c       __osplatform               1007501c     LIBCMT:crt0dat.obj
 0003:00017020       __osver                    10075020     LIBCMT:crt0dat.obj
 0003:00017024       __winver                   10075024     LIBCMT:crt0dat.obj
 0003:00017028       __winmajor                 10075028     LIBCMT:crt0dat.obj
 0003:0001702c       __winminor                 1007502c     LIBCMT:crt0dat.obj
 0003:00017030       ___argc                    10075030     LIBCMT:crt0dat.obj
 0003:00017034       ___argv                    10075034     LIBCMT:crt0dat.obj
 0003:00017038       ___wargv                   10075038     LIBCMT:crt0dat.obj
 0003:0001703c       __environ                  1007503c     LIBCMT:crt0dat.obj
 0003:00017040       ___initenv                 10075040     LIBCMT:crt0dat.obj
 0003:00017044       __wenviron                 10075044     LIBCMT:crt0dat.obj
 0003:00017048       ___winitenv                10075048     LIBCMT:crt0dat.obj
 0003:0001704c       __pgmptr                   1007504c     LIBCMT:crt0dat.obj
 0003:00017050       __wpgmptr                  10075050     LIBCMT:crt0dat.obj
 0003:00017054       __exitflag                 10075054     LIBCMT:crt0dat.obj
 0003:00017058       __C_Termination_Done       10075058     LIBCMT:crt0dat.obj
 0003:0001705c       __C_Exit_Done              1007505c     LIBCMT:crt0dat.obj
 0003:00017120       _gpFlsAlloc                10075120     LIBCMT:tidtable.obj
 0003:00017124       _gpFlsGetValue             10075124     LIBCMT:tidtable.obj
 0003:00017128       _gpFlsSetValue             10075128     LIBCMT:tidtable.obj
 0003:0001712c       _gpFlsFree                 1007512c     LIBCMT:tidtable.obj
 0003:00017130       ?_pnhHeap@@3P6AHI@ZA       10075130     LIBCMT:handler.obj
 0003:0001713c       ?__pInconsistency@@3P6AXXZA 1007513c     LIBCMT:hooks.obj
 0003:00017464       __crtheap                  10075464     LIBCMT:heapinit.obj
 0003:000175b8       ___sbh_pHeaderDefer        100755b8     LIBCMT:sbheap.obj
 0003:000175bc       __cflush                   100755bc     LIBCMT:_file.obj
 0003:000178d4       __newmode                  100758d4     LIBCMT:_newmode.obj
 0003:000178dc       ___mbulinfo                100758dc     LIBCMT:mbctype.obj
 0003:000178e8       ___mbcodepage              100758e8     LIBCMT:mbctype.obj
 0003:000178ec       ___ismbcodepage            100758ec     LIBCMT:mbctype.obj
 0003:000178f0       ___mblcid                  100758f0     LIBCMT:mbctype.obj
 0003:000178f4       ___lc_handle               100758f4     LIBCMT:nlsdata2.obj
 0003:0001790c       ___lc_codepage             1007590c     LIBCMT:nlsdata2.obj
 0003:00017910       ___lc_collate_cp           10075910     LIBCMT:nlsdata2.obj
 0003:00017a30       ___pPurecall               10075a30     LIBCMT:inithelp.obj
 0003:00017a34       ___lconv_static_null       10075a34     LIBCMT:lconv.obj
 0003:00017a68       ?pArgList@UnDecorator@@0PAVReplicator@@A 10075a68     LIBCMT:undname.obj
 0003:00017a6c       ?pZNameList@UnDecorator@@0PAVReplicator@@A 10075a6c     LIBCMT:undname.obj
 0003:00017a70       ?pTemplateArgList@UnDecorator@@0PAVReplicator@@A 10075a70     LIBCMT:undname.obj
 0003:00017a74       ?gName@UnDecorator@@0PBDB  10075a74     LIBCMT:undname.obj
 0003:00017a78       ?name@UnDecorator@@0PBDB   10075a78     LIBCMT:undname.obj
 0003:00017a7c       ?outputString@UnDecorator@@0PADA 10075a7c     LIBCMT:undname.obj
 0003:00017a80       ?maxStringLength@UnDecorator@@0HA 10075a80     LIBCMT:undname.obj
 0003:00017a84       ?disableFlags@UnDecorator@@0KA 10075a84     LIBCMT:undname.obj
 0003:00017a88       ?m_pGetParameter@UnDecorator@@0P6APADJ@ZA 10075a88     LIBCMT:undname.obj
 0003:00017a8c       ?fExplicitTemplateParams@UnDecorator@@0_NA 10075a8c     LIBCMT:undname.obj
 0003:00017a8d       ?fGetTemplateArgumentList@UnDecorator@@0_NA 10075a8d     LIBCMT:undname.obj
 0003:00017a94       __outputformat             10075a94     LIBCMT:outputformat.obj
 0003:00017aac       __commode                  10075aac     LIBCMT:ncommode.obj
 0003:00017ab8       __stdbuf                   10075ab8     LIBCMT:_sftbuf.obj
 0003:00017ac0       __fmode                    10075ac0     LIBCMT:txtmode.obj
 0003:00017ad0       ?_AtlBaseModule@ATL@@3VCAtlBaseModule@1@A 10075ad0     atls:atlbase.obj
 0003:00017b0c       ?_AtlWinModule@ATL@@3VCAtlWinModule@1@A 10075b0c     atls:atlbase.obj
 0003:00017b38       ?g_strheap@ATL@@3VCWin32Heap@1@A 10075b38     atls:atlstr.obj
 0003:00017b44       ?g_strmgr@ATL@@3VCAtlStringMgr@1@A 10075b44     atls:atlstr.obj
 0003:00017b60       __nhandle                  10075b60     <common>
 0003:00017b80       ___pioinfo                 10075b80     <common>
 0003:00017c80       ___piob                    10075c80     <common>
 0003:00017ca0       __bufin                    10075ca0     <common>
 0003:00018ca0       __nstream                  10076ca0     <common>
 0003:00018ca4       ___sbh_cntHeaderList       10076ca4     <common>
 0003:00018ca8       ___sbh_pHeaderList         10076ca8     <common>
 0003:00018cac       ___sbh_threshold           10076cac     <common>
 0003:00018cb0       ___sbh_pHeaderScan         10076cb0     <common>
 0003:00018cb4       ___sbh_sizeHeaderList      10076cb4     <common>
 0003:00018cb8       ___sbh_indGroupDefer       10076cb8     <common>
 0003:00018cbc       ___active_heap             10076cbc     <common>
 0003:00018cc0       ___use_sse2_mathfcns       10076cc0     <common>
 0003:00018cc4       ___sse2_available          10076cc4     <common>
 0003:00018cc8       __debugger_hook_dummy      10076cc8     <common>
 0003:00018ccc       ___env_initialized         10076ccc     <common>
 0003:00018cd0       ___onexitend               10076cd0     <common>
 0003:00018cd4       ___onexitbegin             10076cd4     <common>
 0003:00018cd8       ___mbctype_initialized     10076cd8     <common>
 0003:00018cdc       ___dyn_tls_init_callback   10076cdc     <common>
 0003:00018ce0       __acmdln                   10076ce0     <common>

 entry point at        0001:00039118

 Static symbols

 0001:000000d0       _localtime                 100010d0 f   a2mgr.obj
 0001:000000e0       _time                      100010e0 f   a2mgr.obj
 0001:0000139d       __catch$?_Copy@?$basic_string@DU?$char_traits@D@std@@V?$allocator@D@2@@std@@IAEXII@Z$0 1000239d f i a2mgr.obj
 0001:00001430       __catch$?_Copy@?$basic_string@DU?$char_traits@D@std@@V?$allocator@D@2@@std@@IAEXII@Z$1 10002430 f i a2mgr.obj
 0001:00001ab0       _difftime                  10002ab0 f   add_info.obj
 0001:00001ad0       _gmtime                    10002ad0 f   add_info.obj
 0001:00001ae0       _localtime                 10002ae0 f   add_info.obj
 0001:00001af0       _time                      10002af0 f   add_info.obj
 0001:00003199       __catch$??$_Uninit_copy@PAV?$basic_string@DU?$char_traits@D@std@@V?$allocator@D@2@@std@@PAV12@V?$allocator@V?$basic_string@DU?$char_traits@D@std@@V?$allocator@D@2@@std@@@2@@std@@YAPAV?$basic_string@DU?$char_traits@D@std@@V?$allocator@D@2@@0@PAV10@00AAV?$allocator@V?$basic_string@DU?$char_traits@D@std@@V?$allocator@D@2@@std@@@0@U_Nonscalar_ptr_iterator_tag@0@U_Range_checked_iterator_tag@0@@Z$0 10004199 f i chat_history.obj
 0001:00003199       __catch$??$_Uninit_copy@PBV?$basic_string@DU?$char_traits@D@std@@V?$allocator@D@2@@std@@PAV12@V?$allocator@V?$basic_string@DU?$char_traits@D@std@@V?$allocator@D@2@@std@@@2@@std@@YAPAV?$basic_string@DU?$char_traits@D@std@@V?$allocator@D@2@@0@PBV10@0PAV10@AAV?$allocator@V?$basic_string@DU?$char_traits@D@std@@V?$allocator@D@2@@std@@@0@U_Nonscalar_ptr_iterator_tag@0@U_Range_checked_iterator_tag@0@@Z$0 10004199 f i chat_history.obj
 0001:000032eb       __catch$??$_Uninit_fill_n@PAV?$basic_string@DU?$char_traits@D@std@@V?$allocator@D@2@@std@@IV12@V?$allocator@V?$basic_string@DU?$char_traits@D@std@@V?$allocator@D@2@@std@@@2@@std@@YAXPAV?$basic_string@DU?$char_traits@D@std@@V?$allocator@D@2@@0@IABV10@AAV?$allocator@V?$basic_string@DU?$char_traits@D@std@@V?$allocator@D@2@@std@@@0@U_Nonscalar_ptr_iterator_tag@0@U_Range_checked_iterator_tag@0@@Z$0 100042eb f i chat_history.obj
 0001:00003414       __catch$??$_Uninit_move@PAV?$basic_string@DU?$char_traits@D@std@@V?$allocator@D@2@@std@@PAV12@V?$allocator@V?$basic_string@DU?$char_traits@D@std@@V?$allocator@D@2@@std@@@2@@std@@YAPAV?$basic_string@DU?$char_traits@D@std@@V?$allocator@D@2@@0@PAV10@00AAV?$allocator@V?$basic_string@DU?$char_traits@D@std@@V?$allocator@D@2@@std@@@0@U_Swap_move_tag@0@U_Range_checked_iterator_tag@0@@Z$0 10004414 f i chat_history.obj
 0001:000037c9       __catch$??0?$vector@V?$basic_string@DU?$char_traits@D@std@@V?$allocator@D@2@@std@@V?$allocator@V?$basic_string@DU?$char_traits@D@std@@V?$allocator@D@2@@std@@@2@@std@@QAE@ABV01@@Z$0 100047c9 f i chat_history.obj
 0001:000039e5       __catch$?_Insert_n@?$vector@V?$basic_string@DU?$char_traits@D@std@@V?$allocator@D@2@@std@@V?$allocator@V?$basic_string@DU?$char_traits@D@std@@V?$allocator@D@2@@std@@@2@@std@@IAEXV?$_Vector_iterator@V?$basic_string@DU?$char_traits@D@std@@V?$allocator@D@2@@std@@V?$allocator@V?$basic_string@DU?$char_traits@D@std@@V?$allocator@D@2@@std@@@2@@2@IABV?$basic_string@DU?$char_traits@D@std@@V?$allocator@D@2@@2@@Z$0 100049e5 f i chat_history.obj
 0001:00003a9f       __catch$?_Insert_n@?$vector@V?$basic_string@DU?$char_traits@D@std@@V?$allocator@D@2@@std@@V?$allocator@V?$basic_string@DU?$char_traits@D@std@@V?$allocator@D@2@@std@@@2@@std@@IAEXV?$_Vector_iterator@V?$basic_string@DU?$char_traits@D@std@@V?$allocator@D@2@@std@@V?$allocator@V?$basic_string@DU?$char_traits@D@std@@V?$allocator@D@2@@std@@@2@@2@IABV?$basic_string@DU?$char_traits@D@std@@V?$allocator@D@2@@2@@Z$2 10004a9f f i chat_history.obj
 0001:00003f76       __catch$??$_Uninit_move@PAV?$vector@V?$basic_string@DU?$char_traits@D@std@@V?$allocator@D@2@@std@@V?$allocator@V?$basic_string@DU?$char_traits@D@std@@V?$allocator@D@2@@std@@@2@@std@@PAV12@V?$allocator@V?$vector@V?$basic_string@DU?$char_traits@D@std@@V?$allocator@D@2@@std@@V?$allocator@V?$basic_string@DU?$char_traits@D@std@@V?$allocator@D@2@@std@@@2@@std@@@2@@std@@YAPAV?$vector@V?$basic_string@DU?$char_traits@D@std@@V?$allocator@D@2@@std@@V?$allocator@V?$basic_string@DU?$char_traits@D@std@@V?$allocator@D@2@@std@@@2@@0@PAV10@00AAV?$allocator@V?$vector@V?$basic_string@DU?$char_traits@D@std@@V?$allocator@D@2@@std@@V?$allocator@V?$basic_string@DU?$char_traits@D@std@@V?$allocator@D@2@@std@@@2@@std@@@0@U_Swap_move_tag@0@U_Range_checked_iterator_tag@0@@Z$0 10004f76 f i chat_history.obj
 0001:0000409b       __catch$??$_Uninit_fill_n@PAV?$vector@V?$basic_string@DU?$char_traits@D@std@@V?$allocator@D@2@@std@@V?$allocator@V?$basic_string@DU?$char_traits@D@std@@V?$allocator@D@2@@std@@@2@@std@@IV12@V?$allocator@V?$vector@V?$basic_string@DU?$char_traits@D@std@@V?$allocator@D@2@@std@@V?$allocator@V?$basic_string@DU?$char_traits@D@std@@V?$allocator@D@2@@std@@@2@@std@@@2@@std@@YAXPAV?$vector@V?$basic_string@DU?$char_traits@D@std@@V?$allocator@D@2@@std@@V?$allocator@V?$basic_string@DU?$char_traits@D@std@@V?$allocator@D@2@@std@@@2@@0@IABV10@AAV?$allocator@V?$vector@V?$basic_string@DU?$char_traits@D@std@@V?$allocator@D@2@@std@@V?$allocator@V?$basic_string@DU?$char_traits@D@std@@V?$allocator@D@2@@std@@@2@@std@@@0@U_Nonscalar_ptr_iterator_tag@0@U_Range_checked_iterator_tag@0@@Z$0 1000509b f i chat_history.obj
 0001:00004383       __catch$?_Insert_n@?$vector@V?$vector@V?$basic_string@DU?$char_traits@D@std@@V?$allocator@D@2@@std@@V?$allocator@V?$basic_string@DU?$char_traits@D@std@@V?$allocator@D@2@@std@@@2@@std@@V?$allocator@V?$vector@V?$basic_string@DU?$char_traits@D@std@@V?$allocator@D@2@@std@@V?$allocator@V?$basic_string@DU?$char_traits@D@std@@V?$allocator@D@2@@std@@@2@@std@@@2@@std@@IAEXV?$_Vector_iterator@V?$vector@V?$basic_string@DU?$char_traits@D@std@@V?$allocator@D@2@@std@@V?$allocator@V?$basic_string@DU?$char_traits@D@std@@V?$allocator@D@2@@std@@@2@@std@@V?$allocator@V?$vector@V?$basic_string@DU?$char_traits@D@std@@V?$allocator@D@2@@std@@V?$allocator@V?$basic_string@DU?$char_traits@D@std@@V?$allocator@D@2@@std@@@2@@std@@@2@@2@IABV?$vector@V?$basic_string@DU?$char_traits@D@std@@V?$allocator@D@2@@std@@V?$allocator@V?$basic_string@DU?$char_traits@D@std@@V?$allocator@D@2@@std@@@2@@2@@Z$0 10005383 f i chat_history.obj
 0001:0000440c       __catch$?_Insert_n@?$vector@V?$vector@V?$basic_string@DU?$char_traits@D@std@@V?$allocator@D@2@@std@@V?$allocator@V?$basic_string@DU?$char_traits@D@std@@V?$allocator@D@2@@std@@@2@@std@@V?$allocator@V?$vector@V?$basic_string@DU?$char_traits@D@std@@V?$allocator@D@2@@std@@V?$allocator@V?$basic_string@DU?$char_traits@D@std@@V?$allocator@D@2@@std@@@2@@std@@@2@@std@@IAEXV?$_Vector_iterator@V?$vector@V?$basic_string@DU?$char_traits@D@std@@V?$allocator@D@2@@std@@V?$allocator@V?$basic_string@DU?$char_traits@D@std@@V?$allocator@D@2@@std@@@2@@std@@V?$allocator@V?$vector@V?$basic_string@DU?$char_traits@D@std@@V?$allocator@D@2@@std@@V?$allocator@V?$basic_string@DU?$char_traits@D@std@@V?$allocator@D@2@@std@@@2@@std@@@2@@2@IABV?$vector@V?$basic_string@DU?$char_traits@D@std@@V?$allocator@D@2@@std@@V?$allocator@V?$basic_string@DU?$char_traits@D@std@@V?$allocator@D@2@@std@@@2@@2@@Z$2 1000540c f i chat_history.obj
 0001:00007c6c       __catch$?_Ipfx@?$basic_istream@DU?$char_traits@D@std@@@std@@QAE_N_N@Z$0 10008c6c f i config.obj
 0001:00008142       __catch$??$getline@DU?$char_traits@D@std@@V?$allocator@D@2@@std@@YAAAV?$basic_istream@DU?$char_traits@D@std@@@0@AAV10@AAV?$basic_string@DU?$char_traits@D@std@@V?$allocator@D@2@@0@D@Z$0 10009142 f i config.obj
 0001:0000a95d       __catch$?_Buynode@?$_Tree@V?$_Tmap_traits@KV?$basic_string@DU?$char_traits@D@std@@V?$allocator@D@2@@std@@U?$less@K@2@V?$allocator@U?$pair@$$CBKV?$basic_string@DU?$char_traits@D@std@@V?$allocator@D@2@@std@@@std@@@2@$0A@@std@@@std@@IAEPAU_Node@?$_Tree_nod@V?$_Tmap_traits@KV?$basic_string@DU?$char_traits@D@std@@V?$allocator@D@2@@std@@U?$less@K@2@V?$allocator@U?$pair@$$CBKV?$basic_string@DU?$char_traits@D@std@@V?$allocator@D@2@@std@@@std@@@2@$0A@@std@@@2@PAU342@00ABU?$pair@$$CBKV?$basic_string@DU?$char_traits@D@std@@V?$allocator@D@2@@std@@@2@D@Z$0 1000b95d f i debug.obj
 0001:0000a95d       __catch$?_Buynode@?$_Tree@V?$_Tmap_traits@PBDV?$basic_string@DU?$char_traits@D@std@@V?$allocator@D@2@@std@@U?$less@PBD@2@V?$allocator@U?$pair@QBDV?$basic_string@DU?$char_traits@D@std@@V?$allocator@D@2@@std@@@std@@@2@$0A@@std@@@std@@IAEPAU_Node@?$_Tree_nod@V?$_Tmap_traits@PBDV?$basic_string@DU?$char_traits@D@std@@V?$allocator@D@2@@std@@U?$less@PBD@2@V?$allocator@U?$pair@QBDV?$basic_string@DU?$char_traits@D@std@@V?$allocator@D@2@@std@@@std@@@2@$0A@@std@@@2@PAU342@00ABU?$pair@QBDV?$basic_string@DU?$char_traits@D@std@@V?$allocator@D@2@@std@@@2@D@Z$0 1000b95d f i debug.obj
 0001:0000d255       __catch$?_Read_s@?$basic_istream@DU?$char_traits@D@std@@@std@@QAEAAV12@PADIH@Z$0 1000e255 f i File.obj
 0001:0000d3b5       __catch$??0?$vector@URecord@FileArchive@@V?$allocator@URecord@FileArchive@@@std@@@std@@QAE@ABV01@@Z$0 1000e3b5 f i File.obj
 0001:0000d5a9       __catch$??$_Uninit_copy@PBURecord@FileArchive@@PAU12@V?$allocator@URecord@FileArchive@@@std@@@std@@YAPAURecord@FileArchive@@PBU12@0PAU12@AAV?$allocator@URecord@FileArchive@@@0@U_Nonscalar_ptr_iterator_tag@0@U_Range_checked_iterator_tag@0@@Z$0 1000e5a9 f i File.obj
 0001:0000d5a9       __catch$??$_Uninit_copy@PAURecord@FileArchive@@PAU12@V?$allocator@URecord@FileArchive@@@std@@@std@@YAPAURecord@FileArchive@@PAU12@00AAV?$allocator@URecord@FileArchive@@@0@U_Nonscalar_ptr_iterator_tag@0@U_Range_checked_iterator_tag@0@@Z$0 1000e5a9 f i File.obj
 0001:0000d64b       __catch$??$_Uninit_fill_n@PAURecord@FileArchive@@IU12@V?$allocator@URecord@FileArchive@@@std@@@std@@YAXPAURecord@FileArchive@@IABU12@AAV?$allocator@URecord@FileArchive@@@0@U_Nonscalar_ptr_iterator_tag@0@U_Range_checked_iterator_tag@0@@Z$0 1000e64b f i File.obj
 0001:0000dbec       __catch$?_Insert_n@?$vector@URecord@FileArchive@@V?$allocator@URecord@FileArchive@@@std@@@std@@IAEXV?$_Vector_iterator@URecord@FileArchive@@V?$allocator@URecord@FileArchive@@@std@@@2@IABURecord@FileArchive@@@Z$0 1000ebec f i File.obj
 0001:0000dc97       __catch$?_Insert_n@?$vector@URecord@FileArchive@@V?$allocator@URecord@FileArchive@@@std@@@std@@IAEXV?$_Vector_iterator@URecord@FileArchive@@V?$allocator@URecord@FileArchive@@@std@@@2@IABURecord@FileArchive@@@Z$2 1000ec97 f i File.obj
 0001:00010059       __catch$??$_Uninit_copy@PAUIImageUse@@PAU1@V?$allocator@UIImageUse@@@std@@@std@@YAPAUIImageUse@@PAU1@00AAV?$allocator@UIImageUse@@@0@U_Nonscalar_ptr_iterator_tag@0@U_Range_checked_iterator_tag@0@@Z$0 10011059 f i itempng.obj
 0001:000100f9       __catch$??$_Uninit_fill_n@PAUIImageUse@@IU1@V?$allocator@UIImageUse@@@std@@@std@@YAXPAUIImageUse@@IABU1@AAV?$allocator@UIImageUse@@@0@U_Nonscalar_ptr_iterator_tag@0@U_Range_checked_iterator_tag@0@@Z$0 100110f9 f i itempng.obj
 0001:000104c4       __catch$?_Insert_n@?$vector@UIImageUse@@V?$allocator@UIImageUse@@@std@@@std@@IAEXV?$_Vector_iterator@UIImageUse@@V?$allocator@UIImageUse@@@std@@@2@IABUIImageUse@@@Z$0 100114c4 f i itempng.obj
 0001:0001056f       __catch$?_Insert_n@?$vector@UIImageUse@@V?$allocator@UIImageUse@@@std@@@std@@IAEXV?$_Vector_iterator@UIImageUse@@V?$allocator@UIImageUse@@@std@@@2@IABUIImageUse@@@Z$2 1001156f f i itempng.obj
 0001:00012c1a       __catch$?NETPROTO_hhGetBlockingReply@@YA?AV?$basic_string@DU?$char_traits@D@std@@V?$allocator@D@2@@std@@V12@00@Z$0 10013c1a f   network_protocol_ext.obj
 0001:00013447       __catch$?Cl_ScreenshotThread@@YAHPBUScreenshotInfo@@@Z$0 10014447 f   network_protocol_ext.obj
 0001:0001481e       __catch$?NETPROTO_updater@@YAHPAUUpdaterInfo@@@Z$0 1001581e f   network_protocol_ext.obj
 0001:000169e4       __catch$??$_Uninit_copy@PAV?$CStringT@DV?$StrTraitATL@DV?$ChTraitsCRT@D@ATL@@@ATL@@@ATL@@PAV12@V?$allocator@V?$CStringT@DV?$StrTraitATL@DV?$ChTraitsCRT@D@ATL@@@ATL@@@ATL@@@std@@@std@@YAPAV?$CStringT@DV?$StrTraitATL@DV?$ChTraitsCRT@D@ATL@@@ATL@@@ATL@@PAV12@00AAV?$allocator@V?$CStringT@DV?$StrTraitATL@DV?$ChTraitsCRT@D@ATL@@@ATL@@@ATL@@@0@U_Nonscalar_ptr_iterator_tag@0@U_Range_checked_iterator_tag@0@@Z$0 100179e4 f i network_protocol_ext.obj
 0001:00016dc6       __catch$??$_Uninit_fill_n@PAV?$CStringT@DV?$StrTraitATL@DV?$ChTraitsCRT@D@ATL@@@ATL@@@ATL@@IV12@V?$allocator@V?$CStringT@DV?$StrTraitATL@DV?$ChTraitsCRT@D@ATL@@@ATL@@@ATL@@@std@@@std@@YAXPAV?$CStringT@DV?$StrTraitATL@DV?$ChTraitsCRT@D@ATL@@@ATL@@@ATL@@IABV12@AAV?$allocator@V?$CStringT@DV?$StrTraitATL@DV?$ChTraitsCRT@D@ATL@@@ATL@@@ATL@@@0@U_Nonscalar_ptr_iterator_tag@0@U_Range_checked_iterator_tag@0@@Z$0 10017dc6 f i network_protocol_ext.obj
 0001:00016f79       __catch$??$_Uninit_copy@PAUVersionFileEntry@@PAU1@V?$allocator@UVersionFileEntry@@@std@@@std@@YAPAUVersionFileEntry@@PAU1@00AAV?$allocator@UVersionFileEntry@@@0@U_Nonscalar_ptr_iterator_tag@0@U_Range_checked_iterator_tag@0@@Z$0 10017f79 f i network_protocol_ext.obj
 0001:0001729b       __catch$??$_Uninit_fill_n@PAUVersionFileEntry@@IU1@V?$allocator@UVersionFileEntry@@@std@@@std@@YAXPAUVersionFileEntry@@IABU1@AAV?$allocator@UVersionFileEntry@@@0@U_Nonscalar_ptr_iterator_tag@0@U_Range_checked_iterator_tag@0@@Z$0 1001829b f i network_protocol_ext.obj
 0001:00017c51       __catch$?_Insert_n@?$vector@V?$CStringT@DV?$StrTraitATL@DV?$ChTraitsCRT@D@ATL@@@ATL@@@ATL@@V?$allocator@V?$CStringT@DV?$StrTraitATL@DV?$ChTraitsCRT@D@ATL@@@ATL@@@ATL@@@std@@@std@@IAEXV?$_Vector_iterator@V?$CStringT@DV?$StrTraitATL@DV?$ChTraitsCRT@D@ATL@@@ATL@@@ATL@@V?$allocator@V?$CStringT@DV?$StrTraitATL@DV?$ChTraitsCRT@D@ATL@@@ATL@@@ATL@@@std@@@2@IABV?$CStringT@DV?$StrTraitATL@DV?$ChTraitsCRT@D@ATL@@@ATL@@@ATL@@@Z$0 10018c51 f i network_protocol_ext.obj
 0001:00017cdc       __catch$?_Insert_n@?$vector@V?$CStringT@DV?$StrTraitATL@DV?$ChTraitsCRT@D@ATL@@@ATL@@@ATL@@V?$allocator@V?$CStringT@DV?$StrTraitATL@DV?$ChTraitsCRT@D@ATL@@@ATL@@@ATL@@@std@@@std@@IAEXV?$_Vector_iterator@V?$CStringT@DV?$StrTraitATL@DV?$ChTraitsCRT@D@ATL@@@ATL@@@ATL@@V?$allocator@V?$CStringT@DV?$StrTraitATL@DV?$ChTraitsCRT@D@ATL@@@ATL@@@ATL@@@std@@@2@IABV?$CStringT@DV?$StrTraitATL@DV?$ChTraitsCRT@D@ATL@@@ATL@@@ATL@@@Z$2 10018cdc f i network_protocol_ext.obj
 0001:00017fc6       __catch$?_Insert_n@?$vector@UVersionFileEntry@@V?$allocator@UVersionFileEntry@@@std@@@std@@IAEXV?$_Vector_iterator@UVersionFileEntry@@V?$allocator@UVersionFileEntry@@@std@@@2@IABUVersionFileEntry@@@Z$0 10018fc6 f i network_protocol_ext.obj
 0001:00018051       __catch$?_Insert_n@?$vector@UVersionFileEntry@@V?$allocator@UVersionFileEntry@@@std@@@std@@IAEXV?$_Vector_iterator@UVersionFileEntry@@V?$allocator@UVersionFileEntry@@@std@@@2@IABUVersionFileEntry@@@Z$2 10019051 f i network_protocol_ext.obj
 0001:00018f40       _localtime                 10019f40 f   screenshot.obj
 0001:00018f50       _time                      10019f50 f   screenshot.obj
 0001:0001a5b3       __catch$?_Osfx@?$basic_ostream@DU?$char_traits@D@std@@@std@@QAEXXZ$0 1001b5b3 f i serialize.obj
 0001:0001a6ac       __catch$?write@?$basic_ostream@DU?$char_traits@D@std@@@std@@QAEAAV12@PBDH@Z$0 1001b6ac f i serialize.obj
 0001:0001c5b8       __catch$??$?6U?$char_traits@D@std@@@std@@YAAAV?$basic_ostream@DU?$char_traits@D@std@@@0@AAV10@PBD@Z$0 1001d5b8 f i utils.obj
 0001:0001f5a9       __catch$?_Buynode@?$_Tree@V?$_Tmap_traits@V?$basic_string@DU?$char_traits@D@std@@V?$allocator@D@2@@std@@V12@U?$less@V?$basic_string@DU?$char_traits@D@std@@V?$allocator@D@2@@std@@@2@V?$allocator@U?$pair@$$CBV?$basic_string@DU?$char_traits@D@std@@V?$allocator@D@2@@std@@V12@@std@@@2@$0A@@std@@@std@@IAEPAU_Node@?$_Tree_nod@V?$_Tmap_traits@V?$basic_string@DU?$char_traits@D@std@@V?$allocator@D@2@@std@@V12@U?$less@V?$basic_string@DU?$char_traits@D@std@@V?$allocator@D@2@@std@@@2@V?$allocator@U?$pair@$$CBV?$basic_string@DU?$char_traits@D@std@@V?$allocator@D@2@@std@@V12@@std@@@2@$0A@@std@@@2@PAU342@00ABU?$pair@$$CBV?$basic_string@DU?$char_traits@D@std@@V?$allocator@D@2@@std@@V12@@2@D@Z$0 100205a9 f i happyhttp.obj
 0001:00020170       ?lodepng_malloc@@YAPAXI@Z  10021170 f   lodepng.obj
 0001:00020180       ?lodepng_realloc@@YAPAXPAXI@Z 10021180 f   lodepng.obj
 0001:00020190       ?lodepng_free@@YAXPAX@Z    10021190 f   lodepng.obj
 0001:000201a0       ?uivector_cleanup@@YAXPAX@Z 100211a0 f   lodepng.obj
 0001:000201c0       ?uivector_reserve@@YAIPAUuivector@@I@Z 100211c0 f   lodepng.obj
 0001:00020200       ?uivector_resize@@YAIPAUuivector@@I@Z 10021200 f   lodepng.obj
 0001:00020250       ?uivector_resizev@@YAIPAUuivector@@II@Z 10021250 f   lodepng.obj
 0001:000202b0       ?uivector_init@@YAXPAUuivector@@@Z 100212b0 f   lodepng.obj
 0001:000202c0       ?uivector_push_back@@YAIPAUuivector@@I@Z 100212c0 f   lodepng.obj
 0001:00020320       ?uivector_copy@@YAIPAUuivector@@PBU1@@Z 10021320 f   lodepng.obj
 0001:00020380       ?ucvector_reserve@@YAIPAUucvector@@I@Z 10021380 f   lodepng.obj
 0001:000203c0       ?ucvector_resize@@YAIPAUucvector@@I@Z 100213c0 f   lodepng.obj
 0001:00020400       ?ucvector_cleanup@@YAXPAX@Z 10021400 f   lodepng.obj
 0001:00020420       ?ucvector_init@@YAXPAUucvector@@@Z 10021420 f   lodepng.obj
 0001:00020430       ?ucvector_resizev@@YAIPAUucvector@@IE@Z 10021430 f   lodepng.obj
 0001:00020490       ?ucvector_init_buffer@@YAXPAUucvector@@PAEI@Z 10021490 f   lodepng.obj
 0001:000204a0       ?ucvector_push_back@@YAIPAUucvector@@E@Z 100214a0 f   lodepng.obj
 0001:000204f0       ?string_resize@@YAIPAPADI@Z 100214f0 f   lodepng.obj
 0001:00020520       ?string_init@@YAXPAPAD@Z   10021520 f   lodepng.obj
 0001:00020540       ?string_cleanup@@YAXPAPAD@Z 10021540 f   lodepng.obj
 0001:00020560       ?string_set@@YAXPAPADPBD@Z 10021560 f   lodepng.obj
 0001:000205d0       ?lodepng_set32bitInt@@YAXPAEI@Z 100215d0 f   lodepng.obj
 0001:000205f0       ?lodepng_add32bitInt@@YAXPAUucvector@@I@Z 100215f0 f   lodepng.obj
 0001:00020730       ?addBitsToStream@@YAXPAIPAUucvector@@II@Z 10021730 f   lodepng.obj
 0001:000207c0       ?addBitsToStreamReversed@@YAXPAIPAUucvector@@II@Z 100217c0 f   lodepng.obj
 0001:00020860       ?readBitFromStream@@YAEPAIPBE@Z 10021860 f   lodepng.obj
 0001:00020880       ?readBitsFromStream@@YAIPAIPBEI@Z 10021880 f   lodepng.obj
 0001:000208c0       ?HuffmanTree_init@@YAXPAUHuffmanTree@@@Z 100218c0 f   lodepng.obj
 0001:000208d0       ?HuffmanTree_cleanup@@YAXPAUHuffmanTree@@@Z 100218d0 f   lodepng.obj
 0001:000208f0       ?HuffmanTree_make2DTree@@YAIPAUHuffmanTree@@@Z 100218f0 f   lodepng.obj
 0001:00020a30       ?HuffmanTree_makeFromLengths2@@YAIPAUHuffmanTree@@@Z 10021a30 f   lodepng.obj
 0001:00020b70       ?HuffmanTree_makeFromLengths@@YAIPAUHuffmanTree@@PBIII@Z 10021b70 f   lodepng.obj
 0001:00020bc0       ?coin_init@@YAXPAUCoin@@@Z 10021bc0 f   lodepng.obj
 0001:00020bd0       ?coin_cleanup@@YAXPAX@Z    10021bd0 f   lodepng.obj
 0001:00020bf0       ?coin_copy@@YAXPAUCoin@@PBU1@@Z 10021bf0 f   lodepng.obj
 0001:00020c10       ?add_coins@@YAXPAUCoin@@PBU1@@Z 10021c10 f   lodepng.obj
 0001:00020ca0       ?init_coins@@YAXPAUCoin@@I@Z 10021ca0 f   lodepng.obj
 0001:00020cd0       ?cleanup_coins@@YAXPAUCoin@@I@Z 10021cd0 f   lodepng.obj
 0001:00020d00       ?coin_compare@@YAHPBX0@Z   10021d00 f   lodepng.obj
 0001:00020d50       ?append_symbol_coins@@YAIPAUCoin@@PBIII@Z 10021d50 f   lodepng.obj
 0001:00021160       ?HuffmanTree_makeFromFrequencies@@YAIPAUHuffmanTree@@PBIIII@Z 10022160 f   lodepng.obj
 0001:000211f0       ?HuffmanTree_getCode@@YAIPBUHuffmanTree@@I@Z 100221f0 f   lodepng.obj
 0001:00021200       ?HuffmanTree_getLength@@YAIPBUHuffmanTree@@I@Z 10022200 f   lodepng.obj
 0001:00021210       ?generateFixedLitLenTree@@YAIPAUHuffmanTree@@@Z 10022210 f   lodepng.obj
 0001:00021380       ?generateFixedDistanceTree@@YAIPAUHuffmanTree@@@Z 10022380 f   lodepng.obj
 0001:00021470       ?huffmanDecodeSymbol@@YAIPBEPAIPBUHuffmanTree@@I@Z 10022470 f   lodepng.obj
 0001:000214c0       ?getTreeInflateFixed@@YAXPAUHuffmanTree@@0@Z 100224c0 f   lodepng.obj
 0001:000214d0       ?getTreeInflateDynamic@@YAIPAUHuffmanTree@@0PBEPAII@Z 100224d0 f   lodepng.obj
 0001:00021b80       ?inflateHuffmanBlock@@YAIPAUucvector@@PBEPAI2II@Z 10022b80 f   lodepng.obj
 0001:00021e10       ?inflateNoCompression@@YAIPAUucvector@@PBEPAI2I@Z 10022e10 f   lodepng.obj
 0001:00021ef0       ?lodepng_inflatev@@YAIPAUucvector@@PBEIPBULodePNGDecompressSettings@@@Z 10022ef0 f   lodepng.obj
 0001:00022020       ?inflate@@YAIPAPAEPAIPBEIPBULodePNGDecompressSettings@@@Z 10023020 f   lodepng.obj
 0001:00022070       ?addHuffmanSymbol@@YAXPAIPAUucvector@@II@Z 10023070 f   lodepng.obj
 0001:00022080       ?searchCodeIndex@@YAIPBIII@Z 10023080 f   lodepng.obj
 0001:000220c0       ?addLengthDistance@@YAXPAUuivector@@II@Z 100230c0 f   lodepng.obj
 0001:00022180       ?hash_init@@YAIPAUHash@@I@Z 10023180 f   lodepng.obj
 0001:000222a0       ?hash_cleanup@@YAXPAUHash@@@Z 100232a0 f   lodepng.obj
 0001:000222e0       ?getHash@@YAIPBEII@Z       100232e0 f   lodepng.obj
 0001:00022340       ?countZeros@@YAIPBEII@Z    10023340 f   lodepng.obj
 0001:00022370       ?updateHashChain@@YAXPAUHash@@IIG@Z 10023370 f   lodepng.obj
 0001:000223d0       ?encodeLZ77@@YAIPAUuivector@@PAUHash@@PBEIIIIII@Z 100233d0 f   lodepng.obj
 0001:00022810       ?deflateNoCompression@@YAIPAUucvector@@PBEI@Z 10023810 f   lodepng.obj
 0001:00022a30       ?writeLZ77data@@YAXPAIPAUucvector@@PBUuivector@@PBUHuffmanTree@@3@Z 10023a30 f   lodepng.obj
 0001:00022b00       ?deflateDynamic@@YAIPAUucvector@@PAIPAUHash@@PBEIIPBULodePNGCompressSettings@@I@Z 10023b00 f   lodepng.obj
 0001:00023620       ?deflateFixed@@YAIPAUucvector@@PAIPAUHash@@PBEIIPBULodePNGCompressSettings@@I@Z 10024620 f   lodepng.obj
 0001:00023810       ?lodepng_deflatev@@YAIPAUucvector@@PBEIPBULodePNGCompressSettings@@@Z 10024810 f   lodepng.obj
 0001:000239e0       ?deflate@@YAIPAPAEPAIPBEIPBULodePNGCompressSettings@@@Z 100249e0 f   lodepng.obj
 0001:00023a40       ?update_adler32@@YAIIPBEI@Z 10024a40 f   lodepng.obj
 0001:00023ab0       ?adler32@@YAIPBEI@Z        10024ab0 f   lodepng.obj
 0001:00023b90       ?zlib_decompress@@YAIPAPAEPAIPBEIPBULodePNGDecompressSettings@@@Z 10024b90 f   lodepng.obj
 0001:00023da0       ?zlib_compress@@YAIPAPAEPAIPBEIPBULodePNGCompressSettings@@@Z 10024da0 f   lodepng.obj
 0001:00023e70       ?readBitFromReversedStream@@YAEPAIPBE@Z 10024e70 f   lodepng.obj
 0001:00023e90       ?readBitsFromReversedStream@@YAIPAIPBEI@Z 10024e90 f   lodepng.obj
 0001:00023ee0       ?setBitOfReversedStream0@@YAXPAIPAEE@Z 10024ee0 f   lodepng.obj
 0001:00023f10       ?setBitOfReversedStream@@YAXPAIPAEE@Z 10024f10 f   lodepng.obj
 0001:000242b0       ?checkColorValidity@@YAIW4LodePNGColorType@@I@Z 100252b0 f   lodepng.obj
 0001:00024320       ?getNumColorChannels@@YAIW4LodePNGColorType@@@Z 10025320 f   lodepng.obj
 0001:00024370       ?lodepng_get_bpp_lct@@YAIW4LodePNGColorType@@I@Z 10025370 f   lodepng.obj
 0001:00024400       ?lodepng_color_mode_equal@@YAHPBULodePNGColorMode@@0@Z 10025400 f   lodepng.obj
 0001:00024680       ?lodepng_get_raw_size_idat@@YAIIIPBULodePNGColorMode@@@Z 10025680 f   lodepng.obj
 0001:000246a0       ?LodePNGUnknownChunks_init@@YAXPAULodePNGInfo@@@Z 100256a0 f   lodepng.obj
 0001:000246d0       ?LodePNGUnknownChunks_cleanup@@YAXPAULodePNGInfo@@@Z 100256d0 f   lodepng.obj
 0001:00024700       ?LodePNGUnknownChunks_copy@@YAIPAULodePNGInfo@@PBU1@@Z 10025700 f   lodepng.obj
 0001:000247a0       ?LodePNGText_init@@YAXPAULodePNGInfo@@@Z 100257a0 f   lodepng.obj
 0001:000247b0       ?LodePNGText_cleanup@@YAXPAULodePNGInfo@@@Z 100257b0 f   lodepng.obj
 0001:00024910       ?LodePNGIText_init@@YAXPAULodePNGInfo@@@Z 10025910 f   lodepng.obj
 0001:00024930       ?LodePNGIText_cleanup@@YAXPAULodePNGInfo@@@Z 10025930 f   lodepng.obj
 0001:00024bf0       ?addColorBits@@YAXPAEIII@Z 10025bf0 f   lodepng.obj
 0001:00024c50       ?color_tree_init@@YAXPAUColorTree@@@Z 10025c50 f   lodepng.obj
 0001:00024c90       ?color_tree_cleanup@@YAXPAUColorTree@@@Z 10025c90 f   lodepng.obj
 0001:00024cc0       ?color_tree_get@@YAHPAUColorTree@@EEEE@Z 10025cc0 f   lodepng.obj
 0001:00024d30       ?color_tree_has@@YAHPAUColorTree@@EEEE@Z 10025d30 f   lodepng.obj
 0001:00024d50       ?color_tree_add@@YAXPAUColorTree@@EEEEI@Z 10025d50 f   lodepng.obj
 0001:00024e00       ?rgba8ToPixel@@YAIPAEIPBULodePNGColorMode@@PAUColorTree@@EEEE@Z 10025e00 f   lodepng.obj
 0001:00024f60       ?rgba16ToPixel@@YAXPAEIPBULodePNGColorMode@@GGGG@Z 10025f60 f   lodepng.obj
 0001:00024ff0       ?getPixelColorRGBA8@@YAXPAE000PBEIPBULodePNGColorMode@@@Z 10025ff0 f   lodepng.obj
 0001:000252b0       ?getPixelColorsRGBA8@@YAXPAEIIPBEPBULodePNGColorMode@@@Z 100262b0 f   lodepng.obj
 0001:000256a0       ?getPixelColorRGBA16@@YAXPAG000PBEIPBULodePNGColorMode@@@Z 100266a0 f   lodepng.obj
 0001:00025b10       ?getValueRequiredBits@@YAIE@Z 10026b10 f   lodepng.obj
 0001:000260e0       ?paethPredictor@@YAEFFF@Z  100270e0 f   lodepng.obj
 0001:00026150       ?Adam7_getpassvalues@@YAXQAI0000III@Z 10027150 f   lodepng.obj
 0001:00026280       ?unfilterScanline@@YAIPAEPBE1IEI@Z 10027280 f   lodepng.obj
 0001:00026550       ?unfilter@@YAIPAEPBEIII@Z  10027550 f   lodepng.obj
 0001:000265d0       ?Adam7_deinterlace@@YAXPAEPBEIII@Z 100275d0 f   lodepng.obj
 0001:00026820       ?removePaddingBits@@YAXPAEPBEIII@Z 10027820 f   lodepng.obj
 0001:000268b0       ?postProcessScanlines@@YAIPAE0IIPBULodePNGInfo@@@Z 100278b0 f   lodepng.obj
 0001:00026a50       ?readChunk_PLTE@@YAIPAULodePNGColorMode@@PBEI@Z 10027a50 f   lodepng.obj
 0001:00026af0       ?readChunk_tRNS@@YAIPAULodePNGColorMode@@PBEI@Z 10027af0 f   lodepng.obj
 0001:00026bb0       ?readChunk_bKGD@@YAIPAULodePNGInfo@@PBEI@Z 10027bb0 f   lodepng.obj
 0001:00026c70       ?readChunk_tEXt@@YAIPAULodePNGInfo@@PBEI@Z 10027c70 f   lodepng.obj
 0001:00026d50       ?readChunk_zTXt@@YAIPAULodePNGInfo@@PBULodePNGDecompressSettings@@PBEI@Z 10027d50 f   lodepng.obj
 0001:00026e70       ?readChunk_iTXt@@YAIPAULodePNGInfo@@PBULodePNGDecompressSettings@@PBEI@Z 10027e70 f   lodepng.obj
 0001:000270f0       ?readChunk_tIME@@YAIPAULodePNGInfo@@PBEI@Z 100280f0 f   lodepng.obj
 0001:00027140       ?readChunk_pHYs@@YAIPAULodePNGInfo@@PBEI@Z 10028140 f   lodepng.obj
 0001:000271e0       ?addChunk@@YAIPAUucvector@@PBDPBEI@Z 100281e0 f   lodepng.obj
 0001:00027200       ?writeSignature@@YAXPAUucvector@@@Z 10028200 f   lodepng.obj
 0001:000273f0       ?addChunk_IHDR@@YAIPAUucvector@@IIW4LodePNGColorType@@II@Z 100283f0 f   lodepng.obj
 0001:000275a0       ?addChunk_PLTE@@YAIPAUucvector@@PBULodePNGColorMode@@@Z 100285a0 f   lodepng.obj
 0001:00027680       ?addChunk_tRNS@@YAIPAUucvector@@PBULodePNGColorMode@@@Z 10028680 f   lodepng.obj
 0001:00027810       ?addChunk_IDAT@@YAIPAUucvector@@PBEIPAULodePNGCompressSettings@@@Z 10028810 f   lodepng.obj
 0001:000278b0       ?addChunk_IEND@@YAIPAUucvector@@@Z 100288b0 f   lodepng.obj
 0001:000278e0       ?addChunk_tEXt@@YAIPAUucvector@@PBD1@Z 100288e0 f   lodepng.obj
 0001:00027a60       ?addChunk_zTXt@@YAIPAUucvector@@PBD1PAULodePNGCompressSettings@@@Z 10028a60 f   lodepng.obj
 0001:00027ca0       ?addChunk_iTXt@@YAIPAUucvector@@IPBD111PAULodePNGCompressSettings@@@Z 10028ca0 f   lodepng.obj
 0001:00028130       ?addChunk_bKGD@@YAIPAUucvector@@PBULodePNGInfo@@@Z 10029130 f   lodepng.obj
 0001:00028290       ?addChunk_tIME@@YAIPAUucvector@@PBULodePNGTime@@@Z 10029290 f   lodepng.obj
 0001:00028320       ?addChunk_pHYs@@YAIPAUucvector@@PBULodePNGInfo@@@Z 10029320 f   lodepng.obj
 0001:000283f0       ?filterScanline@@YAXPAEPBE1IIE@Z 100293f0 f   lodepng.obj
 0001:000286d0       ?flog2@@YAMM@Z             100296d0 f   lodepng.obj
 0001:000287a0       ?filter@@YAIPAEPBEIIPBULodePNGColorMode@@PBULodePNGEncoderSettings@@@Z 100297a0 f   lodepng.obj
 0001:00028ec0       ?addPaddingBits@@YAXPAEPBEIII@Z 10029ec0 f   lodepng.obj
 0001:00028f90       ?Adam7_interlace@@YAXPAEPBEIII@Z 10029f90 f   lodepng.obj
 0001:000291f0       ?preProcessScanlines@@YAIPAPAEPAIPBEIIPBULodePNGInfo@@PBULodePNGEncoderSettings@@@Z 1002a1f0 f   lodepng.obj
 0001:000294c0       ?getPaletteTranslucency@@YAIPBEI@Z 1002a4c0 f   lodepng.obj
 0001:00029540       ?addUnknownChunks@@YAIPAUucvector@@PAEI@Z 1002a540 f   lodepng.obj
 0001:00029a30       ?LodePNGText_copy@@YAIPAULodePNGInfo@@PBU1@@Z 1002aa30 f   lodepng.obj
 0001:00029a80       ?LodePNGIText_copy@@YAIPAULodePNGInfo@@PBU1@@Z 1002aa80 f   lodepng.obj
 0001:0002a050       ?decodeGeneric@@YAXPAPAEPAI1PAULodePNGState@@PBEI@Z 1002b050 f   lodepng.obj
 0001:0002e660       ?sha1_process@@YAXPAUsha1_context@@QBE@Z 1002f660 f   sha1.obj
 0001:00031be9       __catch$??$_Uninit_copy@PAUIPFEntry@IPFilter@@PAU12@V?$allocator@UIPFEntry@IPFilter@@@std@@@std@@YAPAUIPFEntry@IPFilter@@PAU12@00AAV?$allocator@UIPFEntry@IPFilter@@@0@U_Nonscalar_ptr_iterator_tag@0@U_Range_checked_iterator_tag@0@@Z$0 10032be9 f i socket.obj
 0001:00031d85       __catch$??$_Uninit_fill_n@PAUIPFEntry@IPFilter@@IU12@V?$allocator@UIPFEntry@IPFilter@@@std@@@std@@YAXPAUIPFEntry@IPFilter@@IABU12@AAV?$allocator@UIPFEntry@IPFilter@@@0@U_Nonscalar_ptr_iterator_tag@0@U_Range_checked_iterator_tag@0@@Z$0 10032d85 f i socket.obj
 0001:000321bb       __catch$??$?5DU?$char_traits@D@std@@V?$allocator@D@1@@std@@YAAAV?$basic_istream@DU?$char_traits@D@std@@@0@AAV10@AAV?$basic_string@DU?$char_traits@D@std@@V?$allocator@D@2@@0@@Z$0 100331bb f i socket.obj
 0001:00032305       __catch$??$_Uninit_copy@PAVBinaryStream@@PAV1@V?$allocator@VBinaryStream@@@std@@@std@@YAPAVBinaryStream@@PAV1@00AAV?$allocator@VBinaryStream@@@0@U_Nonscalar_ptr_iterator_tag@0@U_Range_checked_iterator_tag@0@@Z$0 10033305 f i socket.obj
 0001:000325af       __catch$?_Insert_n@?$vector@UIPFEntry@IPFilter@@V?$allocator@UIPFEntry@IPFilter@@@std@@@std@@IAEXV?$_Vector_iterator@UIPFEntry@IPFilter@@V?$allocator@UIPFEntry@IPFilter@@@std@@@2@IABUIPFEntry@IPFilter@@@Z$0 100335af f i socket.obj
 0001:00032658       __catch$?_Insert_n@?$vector@UIPFEntry@IPFilter@@V?$allocator@UIPFEntry@IPFilter@@@std@@@std@@IAEXV?$_Vector_iterator@UIPFEntry@IPFilter@@V?$allocator@UIPFEntry@IPFilter@@@std@@@2@IABUIPFEntry@IPFilter@@@Z$2 10033658 f i socket.obj
 0001:000327ba       __catch$??$_Uninit_fill_n@PAVBinaryStream@@IV1@V?$allocator@VBinaryStream@@@std@@@std@@YAXPAVBinaryStream@@IABV1@AAV?$allocator@VBinaryStream@@@0@U_Nonscalar_ptr_iterator_tag@0@U_Range_checked_iterator_tag@0@@Z$0 100337ba f i socket.obj
 0001:00032ddd       __catch$?_Insert_n@?$vector@VBinaryStream@@V?$allocator@VBinaryStream@@@std@@@std@@IAEXV?$_Vector_iterator@VBinaryStream@@V?$allocator@VBinaryStream@@@std@@@2@IABVBinaryStream@@@Z$0 10033ddd f i socket.obj
 0001:00032ea2       __catch$?_Insert_n@?$vector@VBinaryStream@@V?$allocator@VBinaryStream@@@std@@@std@@IAEXV?$_Vector_iterator@VBinaryStream@@V?$allocator@VBinaryStream@@@std@@@2@IABVBinaryStream@@@Z$2 10033ea2 f i socket.obj
 0001:00033b31       _tidy_global               10034b31 f   libcpmt:locale0.obj
 0001:00034b56       ?CatchGuardHandler@@YA?AW4_EXCEPTION_DISPOSITION@@PAUEHExceptionRecord@@PAUCatchGuardRN@@PAX2@Z 10035b56 f   LIBCMT:trnsctrl.obj
 0001:00034c5b       ?TranslatorGuardHandler@@YA?AW4_EXCEPTION_DISPOSITION@@PAUEHExceptionRecord@@PAUTranslatorGuardRN@@PAX2@Z 10035c5b f   LIBCMT:trnsctrl.obj
 0001:000355b5       __onexit_nolock            100365b5 f   LIBCMT:onexit.obj
 0001:00035c1c       _flsall                    10036c1c f   LIBCMT:fflush.obj
 0001:00037eb5       _vscan_fn                  10038eb5 f   LIBCMT:sscanf.obj
 0001:00038300       ?strtoxl@@YAKPAUlocaleinfo_struct@@PBDPAPBDHH@Z 10039300 f   LIBCMT:strtol.obj
 0001:000389f0       _swap                      100399f0 f   LIBCMT:qsort.obj
 0001:00038a20       _shortsort                 10039a20 f   LIBCMT:qsort.obj
 0001:00039022       ___DllMainCRTStartup       1003a022 f   LIBCMT:dllcrt0.obj
 0001:00039263       ?__crtLCMapStringA_stat@@YAHPAUlocaleinfo_struct@@KKPBDHPADHHH@Z 1003a263 f   LIBCMT:a_map.obj
 0001:00039dc7       __copytlocinfo_nolock      1003adc7 f   LIBCMT:setlocal.obj
 0001:00039deb       __updatetlocinfoEx_nolock  1003adeb f   LIBCMT:setlocal.obj
 0001:00039e9f       _sync_legacy_variables_lk  1003ae9f f   LIBCMT:setlocal.obj
 0001:0003a0c7       __setlocale_get_all        1003b0c7 f   LIBCMT:setlocal.obj
 0001:0003a40c       __setlocale_set_cat        1003b40c f   LIBCMT:setlocal.obj
 0001:0003a702       __setlocale_nolock         1003b702 f   LIBCMT:setlocal.obj
 0001:0003ae8c       __initterm                 1003be8c f   LIBCMT:crt0dat.obj
 0001:0003afc9       _doexit                    1003bfc9 f   LIBCMT:crt0dat.obj
 0001:0003b54d       ?ExFilterRethrow@@YAHPAU_EXCEPTION_POINTERS@@@Z 1003c54d f   LIBCMT:frame.obj
 0001:0003b61e       ?IsInExceptionSpec@@YAEPAUEHExceptionRecord@@PBU_s_ESTypeList@@@Z 1003c61e f   LIBCMT:frame.obj
 0001:0003b697       ?CallUnexpected@@YAXPBU_s_ESTypeList@@@Z 1003c697 f   LIBCMT:frame.obj
 0001:0003b6c8       __catch$?CallUnexpected@@YAXPBU_s_ESTypeList@@@Z$0 1003c6c8 f   LIBCMT:frame.obj
 0001:0003b6e0       ?CallCatchBlock@@YAPAXPAUEHExceptionRecord@@PAUEHRegistrationNode@@PAU_CONTEXT@@PBU_s_FuncInfo@@PAXHK@Z 1003c6e0 f   LIBCMT:frame.obj
 0001:0003ba8c       ?CatchIt@@YAXPAUEHExceptionRecord@@PAUEHRegistrationNode@@PAU_CONTEXT@@PAXPBU_s_FuncInfo@@PBU_s_HandlerType@@PBU_s_CatchableType@@PBU_s_TryBlockMapEntry@@H1E@Z 1003ca8c f   LIBCMT:frame.obj
 0001:0003baf8       ?FindHandlerForForeignException@@YAXPAUEHExceptionRecord@@PAUEHRegistrationNode@@PAU_CONTEXT@@PAXPBU_s_FuncInfo@@HH1@Z 1003caf8 f   LIBCMT:frame.obj
 0001:0003bbea       ?FindHandler@@YAXPAUEHExceptionRecord@@PAUEHRegistrationNode@@PAU_CONTEXT@@PAXPBU_s_FuncInfo@@EH1@Z 1003cbea f   LIBCMT:frame.obj
 0001:0003c685       __tzset_nolock             1003d685 f   LIBCMT:tzset.obj
 0001:0003c9c4       _cvtdate                   1003d9c4 f   LIBCMT:tzset.obj
 0001:0003cbb9       __isindst_nolock           1003dbb9 f   LIBCMT:tzset.obj
 0001:0003da90       _write_char                1003ea90 f   LIBCMT:output.obj
 0001:0003dac3       _write_multi_char          1003eac3 f   LIBCMT:output.obj
 0001:0003dae7       _write_string              1003eae7 f   LIBCMT:output.obj
 0001:0003e4c9       _fastzero_I                1003f4c9 f   LIBCMT:p4_memset.obj
 0001:0003e721       __shift                    1003f721 f   LIBCMT:cvt.obj
 0001:0003e75a       __cftoe2_l                 1003f75a f   LIBCMT:cvt.obj
 0001:0003ed24       __cftof2_l                 1003fd24 f   LIBCMT:cvt.obj
 0001:00041607       __tsopen_nolock            10042607 f   LIBCMT:open.obj
 0001:00041d2f       __tsopen_nolock            10042d2f f   LIBCMT:wopen.obj
 0001:00042458       _fastcopy_I                10043458 f   LIBCMT:p4_memcpy.obj
 0001:00042654       __unwind_handler4          10043654 f   LIBCMT:exsup4.obj
 0001:000429d7       ?CPtoLCID@@YAHH@Z          100439d7 f   LIBCMT:mbctype.obj
 0001:00042a06       ?setSBCS@@YAXPAUthreadmbcinfostruct@@@Z 10043a06 f   LIBCMT:mbctype.obj
 0001:00042a5b       ?setSBUpLow@@YAXPAUthreadmbcinfostruct@@@Z 10043a5b f   LIBCMT:mbctype.obj
 0001:00042c89       ?getSystemCP@@YAHH@Z       10043c89 f   LIBCMT:mbctype.obj
 0001:0004342e       ___check_float_string      1004442e f   LIBCMT:input.obj
 0001:00043482       __inc                      10044482 f   LIBCMT:input.obj
 0001:00043498       __whiteout                 10044498 f   LIBCMT:input.obj
 0001:000446a7       _parse_cmdline             100456a7 f   LIBCMT:stdargv.obj
 0001:00044e8c       ?__crtGetStringTypeA_stat@@YAHPAUlocaleinfo_struct@@KPBDHPAGHHH@Z 10045e8c f   LIBCMT:a_str.obj
 0001:000451e8       __get_lc_time              100461e8 f   LIBCMT:inittime.obj
 0001:00045ec9       _TranslateName             10046ec9 f   LIBCMT:getqloc.obj
 0001:00045f29       _ProcessCodePage           10046f29 f   LIBCMT:getqloc.obj
 0001:00045fa0       _TestDefaultCountry        10046fa0 f   LIBCMT:getqloc.obj
 0001:00045fbe       _LcidFromHexString         10046fbe f   LIBCMT:getqloc.obj
 0001:00045ff0       _GetPrimaryLen             10046ff0 f   LIBCMT:getqloc.obj
 0001:0004600b       _CountryEnumProc@4         1004700b f   LIBCMT:getqloc.obj
 0001:000460a1       _TestDefaultLanguage       100470a1 f   LIBCMT:getqloc.obj
 0001:00046113       _LangCountryEnumProc@4     10047113 f   LIBCMT:getqloc.obj
 0001:000462e3       _LanguageEnumProc@4        100472e3 f   LIBCMT:getqloc.obj
 0001:000463a2       _GetLcidFromLangCountry    100473a2 f   LIBCMT:getqloc.obj
 0001:00046407       _GetLcidFromLanguage       10047407 f   LIBCMT:getqloc.obj
 0001:0004806b       _siglookup                 1004906b f   LIBCMT:winsig.obj
 0001:00048270       ___crtInitCritSecNoSpinCount@8 10049270 f   LIBCMT:initcrit.obj
 0001:000483f4       __unwind_handler           100493f4 f   LIBCMT:exsup.obj
 0001:00048795       _has_osfxsr_set            10049795 f   LIBCMT:cpu_disp.obj
 0001:00049990       ?x_ismbbtype_l@@YAHPAUlocaleinfo_struct@@IHH@Z 1004a990 f   LIBCMT:ismbbyte.obj
 0001:000499f4       ?__crtGetLocaleInfoW_stat@@YAHPAUlocaleinfo_struct@@KKPA_WHH@Z 1004a9f4 f   LIBCMT:w_loc.obj
 0001:00049b6a       ?__crtGetLocaleInfoA_stat@@YAHPAUlocaleinfo_struct@@KKPADHH@Z 1004ab6a f   LIBCMT:a_loc.obj
 0001:00049e2e       _xtoa_s@20                 1004ae2e f   LIBCMT:xtoas.obj
 0001:0004bcae       __hw_cw                    1004ccae f   LIBCMT:ieee87.obj
 0001:0004bd3c       ___hw_cw_sse2              1004cd3c f   LIBCMT:ieee87.obj
 0001:0004c12b       ?__crtGetStringTypeW_stat@@YAHPAUlocaleinfo_struct@@KPB_WHPAGHH@Z 1004d12b f   LIBCMT:w_str.obj
 0001:0004caae       ?__crtCompareStringA_stat@@YAHPAUlocaleinfo_struct@@KKPBDH1HH@Z 1004daae f   LIBCMT:a_cmp.obj
 0001:0004cf6f       _findenv                   1004df6f f   LIBCMT:setenv.obj
 0001:0004cfbc       _copy_environ              1004dfbc f   LIBCMT:setenv.obj
 0001:0004d505       ?__crtLCMapStringW_stat@@YAHPAUlocaleinfo_struct@@KKPB_WHPA_WHH@Z 1004e505 f   LIBCMT:w_map.obj
 0001:0004de60       __ehhandler$?_Copy@?$basic_string@DU?$char_traits@D@std@@V?$allocator@D@2@@std@@IAEXII@Z 1004ee60 f   a2mgr.obj
 0001:0004de80       __unwindfunclet$?BASE_setCurrentDirectory1@@YGHPAD@Z$0 1004ee80 f   a2mgr.obj
 0001:0004de88       __ehhandler$?BASE_setCurrentDirectory1@@YGHPAD@Z 1004ee88 f   a2mgr.obj
 0001:0004deb0       __unwindfunclet$?DumpSHA@@YA?AV?$basic_string@DU?$char_traits@D@std@@V?$allocator@D@2@@std@@QAE@Z$0 1004eeb0 f   a2mgr.obj
 0001:0004dec9       __unwindfunclet$?DumpSHA@@YA?AV?$basic_string@DU?$char_traits@D@std@@V?$allocator@D@2@@std@@QAE@Z$2 1004eec9 f   a2mgr.obj
 0001:0004ded1       __ehhandler$?DumpSHA@@YA?AV?$basic_string@DU?$char_traits@D@std@@V?$allocator@D@2@@std@@QAE@Z 1004eed1 f   a2mgr.obj
 0001:0004deec       __unwindfunclet$?DllMain_Init@@YG_NPAUHINSTANCE__@@KPAX@Z$0 1004eeec f   a2mgr.obj
 0001:0004def7       __unwindfunclet$?DllMain_Init@@YG_NPAUHINSTANCE__@@KPAX@Z$1 1004eef7 f   a2mgr.obj
 0001:0004df02       __unwindfunclet$?DllMain_Init@@YG_NPAUHINSTANCE__@@KPAX@Z$3 1004ef02 f   a2mgr.obj
 0001:0004df0d       __unwindfunclet$?DllMain_Init@@YG_NPAUHINSTANCE__@@KPAX@Z$4 1004ef0d f   a2mgr.obj
 0001:0004df18       __unwindfunclet$?DllMain_Init@@YG_NPAUHINSTANCE__@@KPAX@Z$5 1004ef18 f   a2mgr.obj
 0001:0004df23       __unwindfunclet$?DllMain_Init@@YG_NPAUHINSTANCE__@@KPAX@Z$7 1004ef23 f   a2mgr.obj
 0001:0004df2e       __unwindfunclet$?DllMain_Init@@YG_NPAUHINSTANCE__@@KPAX@Z$8 1004ef2e f   a2mgr.obj
 0001:0004df39       __unwindfunclet$?DllMain_Init@@YG_NPAUHINSTANCE__@@KPAX@Z$9 1004ef39 f   a2mgr.obj
 0001:0004df44       __unwindfunclet$?DllMain_Init@@YG_NPAUHINSTANCE__@@KPAX@Z$10 1004ef44 f   a2mgr.obj
 0001:0004df4f       __unwindfunclet$?DllMain_Init@@YG_NPAUHINSTANCE__@@KPAX@Z$11 1004ef4f f   a2mgr.obj
 0001:0004df5a       __unwindfunclet$?DllMain_Init@@YG_NPAUHINSTANCE__@@KPAX@Z$13 1004ef5a f   a2mgr.obj
 0001:0004df65       __unwindfunclet$?DllMain_Init@@YG_NPAUHINSTANCE__@@KPAX@Z$15 1004ef65 f   a2mgr.obj
 0001:0004df70       __ehhandler$?DllMain_Init@@YG_NPAUHINSTANCE__@@KPAX@Z 1004ef70 f   a2mgr.obj
 0001:0004dfa0       __unwindfunclet$?ConsoleImpl@@YAXXZ$0 1004efa0 f   add_info.obj
 0001:0004dfab       __unwindfunclet$?ConsoleImpl@@YAXXZ$2 1004efab f   add_info.obj
 0001:0004dfb6       __unwindfunclet$?ConsoleImpl@@YAXXZ$4 1004efb6 f   add_info.obj
 0001:0004dfc1       __unwindfunclet$?ConsoleImpl@@YAXXZ$6 1004efc1 f   add_info.obj
 0001:0004dfcc       __ehhandler$?ConsoleImpl@@YAXXZ 1004efcc f   add_info.obj
 0001:0004dfe7       __unwindfunclet$?FpsImpl@@YGXKPAUtagRECT@@@Z$1 1004efe7 f   add_info.obj
 0001:0004dfef       __unwindfunclet$?FpsImpl@@YGXKPAUtagRECT@@@Z$3 1004efef f   add_info.obj
 0001:0004dff7       __unwindfunclet$?FpsImpl@@YGXKPAUtagRECT@@@Z$5 1004eff7 f   add_info.obj
 0001:0004dfff       __ehhandler$?FpsImpl@@YGXKPAUtagRECT@@@Z 1004efff f   add_info.obj
 0001:0004e030       __unwindfunclet$??0logic_error@std@@QAE@ABV01@@Z$0 1004f030 f   chat_history.obj
 0001:0004e030       __unwindfunclet$??0runtime_error@std@@QAE@ABV01@@Z$0 1004f030 f   chat_history.obj
 0001:0004e038       __ehhandler$??0runtime_error@std@@QAE@ABV01@@Z 1004f038 f   chat_history.obj
 0001:0004e038       __ehhandler$??0logic_error@std@@QAE@ABV01@@Z 1004f038 f   chat_history.obj
 0001:0004e060       __unwindfunclet$??$_Uninit_copy@PBV?$basic_string@DU?$char_traits@D@std@@V?$allocator@D@2@@std@@PAV12@V?$allocator@V?$basic_string@DU?$char_traits@D@std@@V?$allocator@D@2@@std@@@2@@std@@YAPAV?$basic_string@DU?$char_traits@D@std@@V?$allocator@D@2@@0@PBV10@0PAV10@AAV?$allocator@V?$basic_string@DU?$char_traits@D@std@@V?$allocator@D@2@@std@@@0@U_Nonscalar_ptr_iterator_tag@0@U_Range_checked_iterator_tag@0@@Z$2 1004f060 f   chat_history.obj
 0001:0004e060       __unwindfunclet$??$_Uninit_copy@PAV?$basic_string@DU?$char_traits@D@std@@V?$allocator@D@2@@std@@PAV12@V?$allocator@V?$basic_string@DU?$char_traits@D@std@@V?$allocator@D@2@@std@@@2@@std@@YAPAV?$basic_string@DU?$char_traits@D@std@@V?$allocator@D@2@@0@PAV10@00AAV?$allocator@V?$basic_string@DU?$char_traits@D@std@@V?$allocator@D@2@@std@@@0@U_Nonscalar_ptr_iterator_tag@0@U_Range_checked_iterator_tag@0@@Z$2 1004f060 f   chat_history.obj
 0001:0004e071       __ehhandler$??$_Uninit_copy@PAV?$basic_string@DU?$char_traits@D@std@@V?$allocator@D@2@@std@@PAV12@V?$allocator@V?$basic_string@DU?$char_traits@D@std@@V?$allocator@D@2@@std@@@2@@std@@YAPAV?$basic_string@DU?$char_traits@D@std@@V?$allocator@D@2@@0@PAV10@00AAV?$allocator@V?$basic_string@DU?$char_traits@D@std@@V?$allocator@D@2@@std@@@0@U_Nonscalar_ptr_iterator_tag@0@U_Range_checked_iterator_tag@0@@Z 1004f071 f   chat_history.obj
 0001:0004e071       __ehhandler$??$_Uninit_copy@PBV?$basic_string@DU?$char_traits@D@std@@V?$allocator@D@2@@std@@PAV12@V?$allocator@V?$basic_string@DU?$char_traits@D@std@@V?$allocator@D@2@@std@@@2@@std@@YAPAV?$basic_string@DU?$char_traits@D@std@@V?$allocator@D@2@@0@PBV10@0PAV10@AAV?$allocator@V?$basic_string@DU?$char_traits@D@std@@V?$allocator@D@2@@std@@@0@U_Nonscalar_ptr_iterator_tag@0@U_Range_checked_iterator_tag@0@@Z 1004f071 f   chat_history.obj
 0001:0004e090       __unwindfunclet$??$_Uninit_fill_n@PAV?$basic_string@DU?$char_traits@D@std@@V?$allocator@D@2@@std@@IV12@V?$allocator@V?$basic_string@DU?$char_traits@D@std@@V?$allocator@D@2@@std@@@2@@std@@YAXPAV?$basic_string@DU?$char_traits@D@std@@V?$allocator@D@2@@0@IABV10@AAV?$allocator@V?$basic_string@DU?$char_traits@D@std@@V?$allocator@D@2@@std@@@0@U_Nonscalar_ptr_iterator_tag@0@U_Range_checked_iterator_tag@0@@Z$2 1004f090 f   chat_history.obj
 0001:0004e0a1       __ehhandler$??$_Uninit_fill_n@PAV?$basic_string@DU?$char_traits@D@std@@V?$allocator@D@2@@std@@IV12@V?$allocator@V?$basic_string@DU?$char_traits@D@std@@V?$allocator@D@2@@std@@@2@@std@@YAXPAV?$basic_string@DU?$char_traits@D@std@@V?$allocator@D@2@@0@IABV10@AAV?$allocator@V?$basic_string@DU?$char_traits@D@std@@V?$allocator@D@2@@std@@@0@U_Nonscalar_ptr_iterator_tag@0@U_Range_checked_iterator_tag@0@@Z 1004f0a1 f   chat_history.obj
 0001:0004e0c0       __unwindfunclet$??$_Uninit_move@PAV?$basic_string@DU?$char_traits@D@std@@V?$allocator@D@2@@std@@PAV12@V?$allocator@V?$basic_string@DU?$char_traits@D@std@@V?$allocator@D@2@@std@@@2@@std@@YAPAV?$basic_string@DU?$char_traits@D@std@@V?$allocator@D@2@@0@PAV10@00AAV?$allocator@V?$basic_string@DU?$char_traits@D@std@@V?$allocator@D@2@@std@@@0@U_Swap_move_tag@0@U_Range_checked_iterator_tag@0@@Z$2 1004f0c0 f   chat_history.obj
 0001:0004e0c8       __unwindfunclet$??$_Uninit_move@PAV?$basic_string@DU?$char_traits@D@std@@V?$allocator@D@2@@std@@PAV12@V?$allocator@V?$basic_string@DU?$char_traits@D@std@@V?$allocator@D@2@@std@@@2@@std@@YAPAV?$basic_string@DU?$char_traits@D@std@@V?$allocator@D@2@@0@PAV10@00AAV?$allocator@V?$basic_string@DU?$char_traits@D@std@@V?$allocator@D@2@@std@@@0@U_Swap_move_tag@0@U_Range_checked_iterator_tag@0@@Z$3 1004f0c8 f   chat_history.obj
 0001:0004e0d9       __ehhandler$??$_Uninit_move@PAV?$basic_string@DU?$char_traits@D@std@@V?$allocator@D@2@@std@@PAV12@V?$allocator@V?$basic_string@DU?$char_traits@D@std@@V?$allocator@D@2@@std@@@2@@std@@YAPAV?$basic_string@DU?$char_traits@D@std@@V?$allocator@D@2@@0@PAV10@00AAV?$allocator@V?$basic_string@DU?$char_traits@D@std@@V?$allocator@D@2@@std@@@0@U_Swap_move_tag@0@U_Range_checked_iterator_tag@0@@Z 1004f0d9 f   chat_history.obj
 0001:0004e100       __ehhandler$??0?$vector@V?$basic_string@DU?$char_traits@D@std@@V?$allocator@D@2@@std@@V?$allocator@V?$basic_string@DU?$char_traits@D@std@@V?$allocator@D@2@@std@@@2@@std@@QAE@ABV01@@Z 1004f100 f   chat_history.obj
 0001:0004e120       __unwindfunclet$?_Insert_n@?$vector@V?$basic_string@DU?$char_traits@D@std@@V?$allocator@D@2@@std@@V?$allocator@V?$basic_string@DU?$char_traits@D@std@@V?$allocator@D@2@@std@@@2@@std@@IAEXV?$_Vector_iterator@V?$basic_string@DU?$char_traits@D@std@@V?$allocator@D@2@@std@@V?$allocator@V?$basic_string@DU?$char_traits@D@std@@V?$allocator@D@2@@std@@@2@@2@IABV?$basic_string@DU?$char_traits@D@std@@V?$allocator@D@2@@2@@Z$4 1004f120 f   chat_history.obj
 0001:0004e128       __ehhandler$?_Insert_n@?$vector@V?$basic_string@DU?$char_traits@D@std@@V?$allocator@D@2@@std@@V?$allocator@V?$basic_string@DU?$char_traits@D@std@@V?$allocator@D@2@@std@@@2@@std@@IAEXV?$_Vector_iterator@V?$basic_string@DU?$char_traits@D@std@@V?$allocator@D@2@@std@@V?$allocator@V?$basic_string@DU?$char_traits@D@std@@V?$allocator@D@2@@std@@@2@@2@IABV?$basic_string@DU?$char_traits@D@std@@V?$allocator@D@2@@2@@Z 1004f128 f   chat_history.obj
 0001:0004e150       __unwindfunclet$?getStringLastT@@YG?AV?$basic_string@DU?$char_traits@D@std@@V?$allocator@D@2@@std@@XZ$0 1004f150 f   chat_history.obj
 0001:0004e158       __unwindfunclet$?getStringLastT@@YG?AV?$basic_string@DU?$char_traits@D@std@@V?$allocator@D@2@@std@@XZ$1 1004f158 f   chat_history.obj
 0001:0004e171       __ehhandler$?getStringLastT@@YG?AV?$basic_string@DU?$char_traits@D@std@@V?$allocator@D@2@@std@@XZ 1004f171 f   chat_history.obj
 0001:0004e18c       __unwindfunclet$?getStringLast@@YGXPAPAD@Z$0 1004f18c f   chat_history.obj
 0001:0004e194       __ehhandler$?getStringLast@@YGXPAPAD@Z 1004f194 f   chat_history.obj
 0001:0004e1bc       __unwindfunclet$?addString@@YAXPAD@Z$0 1004f1bc f   chat_history.obj
 0001:0004e1c4       __unwindfunclet$?addString@@YAXPAD@Z$1 1004f1c4 f   chat_history.obj
 0001:0004e1cc       __ehhandler$?addString@@YAXPAD@Z 1004f1cc f   chat_history.obj
 0001:0004e1f0       __unwindfunclet$??$_Uninit_move@PAV?$vector@V?$basic_string@DU?$char_traits@D@std@@V?$allocator@D@2@@std@@V?$allocator@V?$basic_string@DU?$char_traits@D@std@@V?$allocator@D@2@@std@@@2@@std@@PAV12@V?$allocator@V?$vector@V?$basic_string@DU?$char_traits@D@std@@V?$allocator@D@2@@std@@V?$allocator@V?$basic_string@DU?$char_traits@D@std@@V?$allocator@D@2@@std@@@2@@std@@@2@@std@@YAPAV?$vector@V?$basic_string@DU?$char_traits@D@std@@V?$allocator@D@2@@std@@V?$allocator@V?$basic_string@DU?$char_traits@D@std@@V?$allocator@D@2@@std@@@2@@0@PAV10@00AAV?$allocator@V?$vector@V?$basic_string@DU?$char_traits@D@std@@V?$allocator@D@2@@std@@V?$allocator@V?$basic_string@DU?$char_traits@D@std@@V?$allocator@D@2@@std@@@2@@std@@@0@U_Swap_move_tag@0@U_Range_checked_iterator_tag@0@@Z$2 1004f1f0 f   chat_history.obj
 0001:0004e1f8       __unwindfunclet$??$_Uninit_move@PAV?$vector@V?$basic_string@DU?$char_traits@D@std@@V?$allocator@D@2@@std@@V?$allocator@V?$basic_string@DU?$char_traits@D@std@@V?$allocator@D@2@@std@@@2@@std@@PAV12@V?$allocator@V?$vector@V?$basic_string@DU?$char_traits@D@std@@V?$allocator@D@2@@std@@V?$allocator@V?$basic_string@DU?$char_traits@D@std@@V?$allocator@D@2@@std@@@2@@std@@@2@@std@@YAPAV?$vector@V?$basic_string@DU?$char_traits@D@std@@V?$allocator@D@2@@std@@V?$allocator@V?$basic_string@DU?$char_traits@D@std@@V?$allocator@D@2@@std@@@2@@0@PAV10@00AAV?$allocator@V?$vector@V?$basic_string@DU?$char_traits@D@std@@V?$allocator@D@2@@std@@V?$allocator@V?$basic_string@DU?$char_traits@D@std@@V?$allocator@D@2@@std@@@2@@std@@@0@U_Swap_move_tag@0@U_Range_checked_iterator_tag@0@@Z$3 1004f1f8 f   chat_history.obj
 0001:0004e209       __ehhandler$??$_Uninit_move@PAV?$vector@V?$basic_string@DU?$char_traits@D@std@@V?$allocator@D@2@@std@@V?$allocator@V?$basic_string@DU?$char_traits@D@std@@V?$allocator@D@2@@std@@@2@@std@@PAV12@V?$allocator@V?$vector@V?$basic_string@DU?$char_traits@D@std@@V?$allocator@D@2@@std@@V?$allocator@V?$basic_string@DU?$char_traits@D@std@@V?$allocator@D@2@@std@@@2@@std@@@2@@std@@YAPAV?$vector@V?$basic_string@DU?$char_traits@D@std@@V?$allocator@D@2@@std@@V?$allocator@V?$basic_string@DU?$char_traits@D@std@@V?$allocator@D@2@@std@@@2@@0@PAV10@00AAV?$allocator@V?$vector@V?$basic_string@DU?$char_traits@D@std@@V?$allocator@D@2@@std@@V?$allocator@V?$basic_string@DU?$char_traits@D@std@@V?$allocator@D@2@@std@@@2@@std@@@0@U_Swap_move_tag@0@U_Range_checked_iterator_tag@0@@Z 1004f209 f   chat_history.obj
 0001:0004e230       __unwindfunclet$??$_Uninit_fill_n@PAV?$vector@V?$basic_string@DU?$char_traits@D@std@@V?$allocator@D@2@@std@@V?$allocator@V?$basic_string@DU?$char_traits@D@std@@V?$allocator@D@2@@std@@@2@@std@@IV12@V?$allocator@V?$vector@V?$basic_string@DU?$char_traits@D@std@@V?$allocator@D@2@@std@@V?$allocator@V?$basic_string@DU?$char_traits@D@std@@V?$allocator@D@2@@std@@@2@@std@@@2@@std@@YAXPAV?$vector@V?$basic_string@DU?$char_traits@D@std@@V?$allocator@D@2@@std@@V?$allocator@V?$basic_string@DU?$char_traits@D@std@@V?$allocator@D@2@@std@@@2@@0@IABV10@AAV?$allocator@V?$vector@V?$basic_string@DU?$char_traits@D@std@@V?$allocator@D@2@@std@@V?$allocator@V?$basic_string@DU?$char_traits@D@std@@V?$allocator@D@2@@std@@@2@@std@@@0@U_Nonscalar_ptr_iterator_tag@0@U_Range_checked_iterator_tag@0@@Z$2 1004f230 f   chat_history.obj
 0001:0004e241       __ehhandler$??$_Uninit_fill_n@PAV?$vector@V?$basic_string@DU?$char_traits@D@std@@V?$allocator@D@2@@std@@V?$allocator@V?$basic_string@DU?$char_traits@D@std@@V?$allocator@D@2@@std@@@2@@std@@IV12@V?$allocator@V?$vector@V?$basic_string@DU?$char_traits@D@std@@V?$allocator@D@2@@std@@V?$allocator@V?$basic_string@DU?$char_traits@D@std@@V?$allocator@D@2@@std@@@2@@std@@@2@@std@@YAXPAV?$vector@V?$basic_string@DU?$char_traits@D@std@@V?$allocator@D@2@@std@@V?$allocator@V?$basic_string@DU?$char_traits@D@std@@V?$allocator@D@2@@std@@@2@@0@IABV10@AAV?$allocator@V?$vector@V?$basic_string@DU?$char_traits@D@std@@V?$allocator@D@2@@std@@V?$allocator@V?$basic_string@DU?$char_traits@D@std@@V?$allocator@D@2@@std@@@2@@std@@@0@U_Nonscalar_ptr_iterator_tag@0@U_Range_checked_iterator_tag@0@@Z 1004f241 f   chat_history.obj
 0001:0004e260       __unwindfunclet$?_Insert_n@?$vector@V?$vector@V?$basic_string@DU?$char_traits@D@std@@V?$allocator@D@2@@std@@V?$allocator@V?$basic_string@DU?$char_traits@D@std@@V?$allocator@D@2@@std@@@2@@std@@V?$allocator@V?$vector@V?$basic_string@DU?$char_traits@D@std@@V?$allocator@D@2@@std@@V?$allocator@V?$basic_string@DU?$char_traits@D@std@@V?$allocator@D@2@@std@@@2@@std@@@2@@std@@IAEXV?$_Vector_iterator@V?$vector@V?$basic_string@DU?$char_traits@D@std@@V?$allocator@D@2@@std@@V?$allocator@V?$basic_string@DU?$char_traits@D@std@@V?$allocator@D@2@@std@@@2@@std@@V?$allocator@V?$vector@V?$basic_string@DU?$char_traits@D@std@@V?$allocator@D@2@@std@@V?$allocator@V?$basic_string@DU?$char_traits@D@std@@V?$allocator@D@2@@std@@@2@@std@@@2@@2@IABV?$vector@V?$basic_string@DU?$char_traits@D@std@@V?$allocator@D@2@@std@@V?$allocator@V?$basic_string@DU?$char_traits@D@std@@V?$allocator@D@2@@std@@@2@@2@@Z$4 1004f260 f   chat_history.obj
 0001:0004e268       __ehhandler$?_Insert_n@?$vector@V?$vector@V?$basic_string@DU?$char_traits@D@std@@V?$allocator@D@2@@std@@V?$allocator@V?$basic_string@DU?$char_traits@D@std@@V?$allocator@D@2@@std@@@2@@std@@V?$allocator@V?$vector@V?$basic_string@DU?$char_traits@D@std@@V?$allocator@D@2@@std@@V?$allocator@V?$basic_string@DU?$char_traits@D@std@@V?$allocator@D@2@@std@@@2@@std@@@2@@std@@IAEXV?$_Vector_iterator@V?$vector@V?$basic_string@DU?$char_traits@D@std@@V?$allocator@D@2@@std@@V?$allocator@V?$basic_string@DU?$char_traits@D@std@@V?$allocator@D@2@@std@@@2@@std@@V?$allocator@V?$vector@V?$basic_string@DU?$char_traits@D@std@@V?$allocator@D@2@@std@@V?$allocator@V?$basic_string@DU?$char_traits@D@std@@V?$allocator@D@2@@std@@@2@@std@@@2@@2@IABV?$vector@V?$basic_string@DU?$char_traits@D@std@@V?$allocator@D@2@@std@@V?$allocator@V?$basic_string@DU?$char_traits@D@std@@V?$allocator@D@2@@std@@@2@@2@@Z 1004f268 f   chat_history.obj
 0001:0004e290       __unwindfunclet$?_Insert@?$_Tree@V?$_Tmap_traits@PAXPAXU?$less@PAX@std@@V?$allocator@U?$pair@QAXPAX@std@@@2@$0A@@std@@@std@@IAE?AViterator@12@_NPAU_Node@?$_Tree_nod@V?$_Tmap_traits@PAXPAXU?$less@PAX@std@@V?$allocator@U?$pair@QAXPAX@std@@@2@$0A@@std@@@2@ABU?$pair@QAXPAX@2@@Z$0 1004f290 f   class_extend.obj
 0001:0004e290       __unwindfunclet$?_Insert@?$_Tree@V?$_Tmap_traits@V?$basic_string@DU?$char_traits@D@std@@V?$allocator@D@2@@std@@V12@U?$less@V?$basic_string@DU?$char_traits@D@std@@V?$allocator@D@2@@std@@@2@V?$allocator@U?$pair@$$CBV?$basic_string@DU?$char_traits@D@std@@V?$allocator@D@2@@std@@V12@@std@@@2@$0A@@std@@@std@@IAE?AViterator@12@_NPAU_Node@?$_Tree_nod@V?$_Tmap_traits@V?$basic_string@DU?$char_traits@D@std@@V?$allocator@D@2@@std@@V12@U?$less@V?$basic_string@DU?$char_traits@D@std@@V?$allocator@D@2@@std@@@2@V?$allocator@U?$pair@$$CBV?$basic_string@DU?$char_traits@D@std@@V?$allocator@D@2@@std@@V12@@std@@@2@$0A@@std@@@2@ABU?$pair@$$CBV?$basic_string@DU?$char_traits@D@std@@V?$allocator@D@2@@std@@V12@@2@@Z$0 1004f290 f   class_extend.obj
 0001:0004e298       __ehhandler$?_Insert@?$_Tree@V?$_Tmap_traits@PAXPAXU?$less@PAX@std@@V?$allocator@U?$pair@QAXPAX@std@@@2@$0A@@std@@@std@@IAE?AViterator@12@_NPAU_Node@?$_Tree_nod@V?$_Tmap_traits@PAXPAXU?$less@PAX@std@@V?$allocator@U?$pair@QAXPAX@std@@@2@$0A@@std@@@2@ABU?$pair@QAXPAX@2@@Z 1004f298 f   class_extend.obj
 0001:0004e298       __ehhandler$?_Insert@?$_Tree@V?$_Tmap_traits@V?$basic_string@DU?$char_traits@D@std@@V?$allocator@D@2@@std@@V12@U?$less@V?$basic_string@DU?$char_traits@D@std@@V?$allocator@D@2@@std@@@2@V?$allocator@U?$pair@$$CBV?$basic_string@DU?$char_traits@D@std@@V?$allocator@D@2@@std@@V12@@std@@@2@$0A@@std@@@std@@IAE?AViterator@12@_NPAU_Node@?$_Tree_nod@V?$_Tmap_traits@V?$basic_string@DU?$char_traits@D@std@@V?$allocator@D@2@@std@@V12@U?$less@V?$basic_string@DU?$char_traits@D@std@@V?$allocator@D@2@@std@@@2@V?$allocator@U?$pair@$$CBV?$basic_string@DU?$char_traits@D@std@@V?$allocator@D@2@@std@@V12@@std@@@2@$0A@@std@@@2@ABU?$pair@$$CBV?$basic_string@DU?$char_traits@D@std@@V?$allocator@D@2@@std@@V12@@2@@Z 1004f298 f   class_extend.obj
 0001:0004e2c0       __unwindfunclet$?erase@?$_Tree@V?$_Tmap_traits@PAXPAXU?$less@PAX@std@@V?$allocator@U?$pair@QAXPAX@std@@@2@$0A@@std@@@std@@QAE?AViterator@12@V312@@Z$0 1004f2c0 f   class_extend.obj
 0001:0004e2c0       __unwindfunclet$?erase@?$_Tree@V?$_Tmap_traits@V?$basic_string@DU?$char_traits@D@std@@V?$allocator@D@2@@std@@V12@U?$less@V?$basic_string@DU?$char_traits@D@std@@V?$allocator@D@2@@std@@@2@V?$allocator@U?$pair@$$CBV?$basic_string@DU?$char_traits@D@std@@V?$allocator@D@2@@std@@V12@@std@@@2@$0A@@std@@@std@@QAE?AViterator@12@V312@@Z$0 1004f2c0 f   class_extend.obj
 0001:0004e2c8       __ehhandler$?erase@?$_Tree@V?$_Tmap_traits@PAXPAXU?$less@PAX@std@@V?$allocator@U?$pair@QAXPAX@std@@@2@$0A@@std@@@std@@QAE?AViterator@12@V312@@Z 1004f2c8 f   class_extend.obj
 0001:0004e2c8       __ehhandler$?erase@?$_Tree@V?$_Tmap_traits@V?$basic_string@DU?$char_traits@D@std@@V?$allocator@D@2@@std@@V12@U?$less@V?$basic_string@DU?$char_traits@D@std@@V?$allocator@D@2@@std@@@2@V?$allocator@U?$pair@$$CBV?$basic_string@DU?$char_traits@D@std@@V?$allocator@D@2@@std@@V12@@std@@@2@$0A@@std@@@std@@QAE?AViterator@12@V312@@Z 1004f2c8 f   class_extend.obj
 0001:0004e2f0       __unwindfunclet$??0CEMapObject@@QAE@XZ$0 1004f2f0 f   class_mapobject.obj
 0001:0004e2fb       __unwindfunclet$??0CEMapObject@@QAE@XZ$1 1004f2fb f   class_mapobject.obj
 0001:0004e306       __ehhandler$??0CEMapObject@@QAE@XZ 1004f306 f   class_mapobject.obj
 0001:0004e321       __unwindfunclet$??1CEMapObject@@UAE@XZ$0 1004f321 f   class_mapobject.obj
 0001:0004e32c       __unwindfunclet$??1CEMapObject@@UAE@XZ$1 1004f32c f   class_mapobject.obj
 0001:0004e337       __ehhandler$??1CEMapObject@@UAE@XZ 1004f337 f   class_mapobject.obj
 0001:0004e352       __unwindfunclet$?CEMapObject_Create@@YGPAUCEMapObject@@XZ$0 1004f352 f   class_mapobject.obj
 0001:0004e35d       __ehhandler$?CEMapObject_Create@@YGPAUCEMapObject@@XZ 1004f35d f   class_mapobject.obj
 0001:0004e380       __unwindfunclet$??0?$basic_streambuf@DU?$char_traits@D@std@@@std@@IAE@XZ$0 1004f380 f   config.obj
 0001:0004e38b       __ehhandler$??0?$basic_streambuf@DU?$char_traits@D@std@@@std@@IAE@XZ 1004f38b f   config.obj
 0001:0004e3b0       __unwindfunclet$??1_Locinfo@std@@QAE@XZ$0 1004f3b0 f   config.obj
 0001:0004e3b8       __unwindfunclet$??1_Locinfo@std@@QAE@XZ$1 1004f3b8 f   config.obj
 0001:0004e3c3       __unwindfunclet$??1_Locinfo@std@@QAE@XZ$2 1004f3c3 f   config.obj
 0001:0004e3ce       __unwindfunclet$??1_Locinfo@std@@QAE@XZ$3 1004f3ce f   config.obj
 0001:0004e3d9       __unwindfunclet$??1_Locinfo@std@@QAE@XZ$4 1004f3d9 f   config.obj
 0001:0004e3e4       __ehhandler$??1_Locinfo@std@@QAE@XZ 1004f3e4 f   config.obj
 0001:0004e400       __unwindfunclet$?uflow@?$basic_filebuf@DU?$char_traits@D@std@@@std@@MAEHXZ$0 1004f400 f   config.obj
 0001:0004e408       __ehhandler$?uflow@?$basic_filebuf@DU?$char_traits@D@std@@@std@@MAEHXZ 1004f408 f   config.obj
 0001:0004e430       __unwindfunclet$?_Endwrite@?$basic_filebuf@DU?$char_traits@D@std@@@std@@IAE_NXZ$0 1004f430 f   config.obj
 0001:0004e438       __ehhandler$?_Endwrite@?$basic_filebuf@DU?$char_traits@D@std@@@std@@IAE_NXZ 1004f438 f   config.obj
 0001:0004e460       __unwindfunclet$??0logic_error@std@@QAE@ABV?$basic_string@DU?$char_traits@D@std@@V?$allocator@D@2@@1@@Z$0 1004f460 f   config.obj
 0001:0004e460       __unwindfunclet$??0runtime_error@std@@QAE@ABV?$basic_string@DU?$char_traits@D@std@@V?$allocator@D@2@@1@@Z$0 1004f460 f   config.obj
 0001:0004e468       __ehhandler$??0runtime_error@std@@QAE@ABV?$basic_string@DU?$char_traits@D@std@@V?$allocator@D@2@@1@@Z 1004f468 f   config.obj
 0001:0004e468       __ehhandler$??0logic_error@std@@QAE@ABV?$basic_string@DU?$char_traits@D@std@@V?$allocator@D@2@@1@@Z 1004f468 f   config.obj
 0001:0004e490       __unwindfunclet$?overflow@?$basic_filebuf@DU?$char_traits@D@std@@@std@@MAEHH@Z$0 1004f490 f   config.obj
 0001:0004e498       __ehhandler$?overflow@?$basic_filebuf@DU?$char_traits@D@std@@@std@@MAEHH@Z 1004f498 f   config.obj
 0001:0004e4c0       __unwindfunclet$??0_Locinfo@std@@QAE@PBD@Z$0 1004f4c0 f   config.obj
 0001:0004e4c8       __unwindfunclet$??0_Locinfo@std@@QAE@PBD@Z$1 1004f4c8 f   config.obj
 0001:0004e4d3       __unwindfunclet$??0_Locinfo@std@@QAE@PBD@Z$2 1004f4d3 f   config.obj
 0001:0004e4de       __unwindfunclet$??0_Locinfo@std@@QAE@PBD@Z$3 1004f4de f   config.obj
 0001:0004e4e9       __unwindfunclet$??0_Locinfo@std@@QAE@PBD@Z$4 1004f4e9 f   config.obj
 0001:0004e4f4       __unwindfunclet$??0_Locinfo@std@@QAE@PBD@Z$5 1004f4f4 f   config.obj
 0001:0004e4fc       __ehhandler$??0_Locinfo@std@@QAE@PBD@Z 1004f4fc f   config.obj
 0001:0004e520       __unwindfunclet$??0?$ctype@D@std@@QAE@PBF_NI@Z$0 1004f520 f   config.obj
 0001:0004e52b       __ehhandler$??0?$ctype@D@std@@QAE@PBF_NI@Z 1004f52b f   config.obj
 0001:0004e560       __unwindfunclet$?clear@ios_base@std@@QAEXH_N@Z$0 1004f560 f   config.obj
 0001:0004e568       __unwindfunclet$?clear@ios_base@std@@QAEXH_N@Z$1 1004f568 f   config.obj
 0001:0004e570       __unwindfunclet$?clear@ios_base@std@@QAEXH_N@Z$2 1004f570 f   config.obj
 0001:0004e578       __ehhandler$?clear@ios_base@std@@QAEXH_N@Z 1004f578 f   config.obj
 0001:0004e5a0       __unwindfunclet$??1?$basic_filebuf@DU?$char_traits@D@std@@@std@@UAE@XZ$0 1004f5a0 f   config.obj
 0001:0004e5a8       __ehhandler$??1?$basic_filebuf@DU?$char_traits@D@std@@@std@@UAE@XZ 1004f5a8 f   config.obj
 0001:0004e5d0       __unwindfunclet$??1?$basic_ifstream@DU?$char_traits@D@std@@@std@@UAE@XZ$0 1004f5d0 f   config.obj
 0001:0004e5db       __ehhandler$??1?$basic_ifstream@DU?$char_traits@D@std@@@std@@UAE@XZ 1004f5db f   config.obj
 0001:0004e600       __unwindfunclet$??0?$codecvt@DDH@std@@QAE@I@Z$0 1004f600 f   config.obj
 0001:0004e60b       __ehhandler$??0?$codecvt@DDH@std@@QAE@I@Z 1004f60b f   config.obj
 0001:0004e640       __unwindfunclet$?widen@?$basic_ios@DU?$char_traits@D@std@@@std@@QBEDD@Z$0 1004f640 f   config.obj
 0001:0004e648       __ehhandler$?widen@?$basic_ios@DU?$char_traits@D@std@@@std@@QBEDD@Z 1004f648 f   config.obj
 0001:0004e670       __unwindfunclet$?_Getcat@?$codecvt@DDH@std@@SAIPAPBVfacet@locale@2@@Z$0 1004f670 f   config.obj
 0001:0004e670       __unwindfunclet$?_Getcat@?$ctype@D@std@@SAIPAPBVfacet@locale@2@@Z$0 1004f670 f   config.obj
 0001:0004e67b       __ehhandler$?_Getcat@?$codecvt@DDH@std@@SAIPAPBVfacet@locale@2@@Z 1004f67b f   config.obj
 0001:0004e67b       __ehhandler$?_Getcat@?$ctype@D@std@@SAIPAPBVfacet@locale@2@@Z 1004f67b f   config.obj
 0001:0004e6a0       __unwindfunclet$?_Ipfx@?$basic_istream@DU?$char_traits@D@std@@@std@@QAE_N_N@Z$2 1004f6a0 f   config.obj
 0001:0004e6a8       __ehhandler$?_Ipfx@?$basic_istream@DU?$char_traits@D@std@@@std@@QAE_N_N@Z 1004f6a8 f   config.obj
 0001:0004e6d0       __unwindfunclet$??$use_facet@V?$ctype@D@std@@@std@@YAABV?$ctype@D@0@ABVlocale@0@@Z$0 1004f6d0 f   config.obj
 0001:0004e6d0       __unwindfunclet$??$use_facet@V?$codecvt@DDH@std@@@std@@YAABV?$codecvt@DDH@0@ABVlocale@0@@Z$0 1004f6d0 f   config.obj
 0001:0004e6d8       __ehhandler$??$use_facet@V?$codecvt@DDH@std@@@std@@YAABV?$codecvt@DDH@0@ABVlocale@0@@Z 1004f6d8 f   config.obj
 0001:0004e6d8       __ehhandler$??$use_facet@V?$ctype@D@std@@@std@@YAABV?$ctype@D@0@ABVlocale@0@@Z 1004f6d8 f   config.obj
 0001:0004e700       __unwindfunclet$??1sentry@?$basic_ostream@DU?$char_traits@D@std@@@std@@QAE@XZ$0 1004f700 f   config.obj
 0001:0004e700       __unwindfunclet$??0sentry@?$basic_istream@DU?$char_traits@D@std@@@std@@QAE@AAV12@_N@Z$0 1004f700 f   config.obj
 0001:0004e708       __ehhandler$??0sentry@?$basic_istream@DU?$char_traits@D@std@@@std@@QAE@AAV12@_N@Z 1004f708 f   config.obj
 0001:0004e708       __ehhandler$??1sentry@?$basic_ostream@DU?$char_traits@D@std@@@std@@QAE@XZ 1004f708 f   config.obj
 0001:0004e730       __unwindfunclet$?open@?$basic_filebuf@DU?$char_traits@D@std@@@std@@QAEPAV12@PBDHH@Z$0 1004f730 f   config.obj
 0001:0004e738       __ehhandler$?open@?$basic_filebuf@DU?$char_traits@D@std@@@std@@QAEPAV12@PBDHH@Z 1004f738 f   config.obj
 0001:0004e760       __unwindfunclet$??$getline@DU?$char_traits@D@std@@V?$allocator@D@2@@std@@YAAAV?$basic_istream@DU?$char_traits@D@std@@@0@AAV10@AAV?$basic_string@DU?$char_traits@D@std@@V?$allocator@D@2@@0@D@Z$2 1004f760 f   config.obj
 0001:0004e768       __ehhandler$??$getline@DU?$char_traits@D@std@@V?$allocator@D@2@@std@@YAAAV?$basic_istream@DU?$char_traits@D@std@@@0@AAV10@AAV?$basic_string@DU?$char_traits@D@std@@V?$allocator@D@2@@0@D@Z 1004f768 f   config.obj
 0001:0004e790       __unwindfunclet$??0?$basic_ifstream@DU?$char_traits@D@std@@@std@@QAE@XZ$0 1004f790 f   config.obj
 0001:0004e7ac       __unwindfunclet$??0?$basic_ifstream@DU?$char_traits@D@std@@@std@@QAE@XZ$1 1004f7ac f   config.obj
 0001:0004e7b7       __ehhandler$??0?$basic_ifstream@DU?$char_traits@D@std@@@std@@QAE@XZ 1004f7b7 f   config.obj
 0001:0004e7e0       __unwindfunclet$?ParseConfig2x@@YAXAAV?$basic_ifstream@DU?$char_traits@D@std@@@std@@@Z$0 1004f7e0 f   config.obj
 0001:0004e7e8       __unwindfunclet$?ParseConfig2x@@YAXAAV?$basic_ifstream@DU?$char_traits@D@std@@@std@@@Z$1 1004f7e8 f   config.obj
 0001:0004e7f0       __unwindfunclet$?ParseConfig2x@@YAXAAV?$basic_ifstream@DU?$char_traits@D@std@@@std@@@Z$3 1004f7f0 f   config.obj
 0001:0004e7f8       __unwindfunclet$?ParseConfig2x@@YAXAAV?$basic_ifstream@DU?$char_traits@D@std@@@std@@@Z$4 1004f7f8 f   config.obj
 0001:0004e800       __unwindfunclet$?ParseConfig2x@@YAXAAV?$basic_ifstream@DU?$char_traits@D@std@@@std@@@Z$5 1004f800 f   config.obj
 0001:0004e808       __unwindfunclet$?ParseConfig2x@@YAXAAV?$basic_ifstream@DU?$char_traits@D@std@@@std@@@Z$6 1004f808 f   config.obj
 0001:0004e810       __unwindfunclet$?ParseConfig2x@@YAXAAV?$basic_ifstream@DU?$char_traits@D@std@@@std@@@Z$7 1004f810 f   config.obj
 0001:0004e818       __ehhandler$?ParseConfig2x@@YAXAAV?$basic_ifstream@DU?$char_traits@D@std@@@std@@@Z 1004f818 f   config.obj
 0001:0004e846       __unwindfunclet$?ParseConfig1x@@YAXAAV?$basic_ifstream@DU?$char_traits@D@std@@@std@@@Z$0 1004f846 f   config.obj
 0001:0004e84e       __unwindfunclet$?ParseConfig1x@@YAXAAV?$basic_ifstream@DU?$char_traits@D@std@@@std@@@Z$1 1004f84e f   config.obj
 0001:0004e856       __unwindfunclet$?ParseConfig1x@@YAXAAV?$basic_ifstream@DU?$char_traits@D@std@@@std@@@Z$2 1004f856 f   config.obj
 0001:0004e85e       __unwindfunclet$?ParseConfig1x@@YAXAAV?$basic_ifstream@DU?$char_traits@D@std@@@std@@@Z$3 1004f85e f   config.obj
 0001:0004e866       __unwindfunclet$?ParseConfig1x@@YAXAAV?$basic_ifstream@DU?$char_traits@D@std@@@std@@@Z$4 1004f866 f   config.obj
 0001:0004e86e       __unwindfunclet$?ParseConfig1x@@YAXAAV?$basic_ifstream@DU?$char_traits@D@std@@@std@@@Z$5 1004f86e f   config.obj
 0001:0004e876       __ehhandler$?ParseConfig1x@@YAXAAV?$basic_ifstream@DU?$char_traits@D@std@@@std@@@Z 1004f876 f   config.obj
 0001:0004e8a4       __unwindfunclet$?ParseConfig@@YAXXZ$0 1004f8a4 f   config.obj
 0001:0004e8af       __ehhandler$?ParseConfig@@YAXXZ 1004f8af f   config.obj
 0001:0004e8d0       __unwindfunclet$?_disp256@@YGXPBDK@Z$0 1004f8d0 f   debug.obj
 0001:0004e8d8       __ehhandler$?_disp256@@YGXPBDK@Z 1004f8d8 f   debug.obj
 0001:0004e900       __unwindfunclet$?D_AddAddr@@YGXKPAD@Z$0 1004f900 f   debug.obj
 0001:0004e908       __ehhandler$?D_AddAddr@@YGXKPAD@Z 1004f908 f   debug.obj
 0001:0004e930       __unwindfunclet$?erase@?$_Tree@V?$_Tmap_traits@PBDV?$basic_string@DU?$char_traits@D@std@@V?$allocator@D@2@@std@@U?$less@PBD@2@V?$allocator@U?$pair@QBDV?$basic_string@DU?$char_traits@D@std@@V?$allocator@D@2@@std@@@std@@@2@$0A@@std@@@std@@QAE?AViterator@12@V312@@Z$0 1004f930 f   debug.obj
 0001:0004e930       __unwindfunclet$?erase@?$_Tree@V?$_Tmap_traits@KV?$basic_string@DU?$char_traits@D@std@@V?$allocator@D@2@@std@@U?$less@K@2@V?$allocator@U?$pair@$$CBKV?$basic_string@DU?$char_traits@D@std@@V?$allocator@D@2@@std@@@std@@@2@$0A@@std@@@std@@QAE?AViterator@12@V312@@Z$0 1004f930 f   debug.obj
 0001:0004e938       __ehhandler$?erase@?$_Tree@V?$_Tmap_traits@PBDV?$basic_string@DU?$char_traits@D@std@@V?$allocator@D@2@@std@@U?$less@PBD@2@V?$allocator@U?$pair@QBDV?$basic_string@DU?$char_traits@D@std@@V?$allocator@D@2@@std@@@std@@@2@$0A@@std@@@std@@QAE?AViterator@12@V312@@Z 1004f938 f   debug.obj
 0001:0004e938       __ehhandler$?erase@?$_Tree@V?$_Tmap_traits@KV?$basic_string@DU?$char_traits@D@std@@V?$allocator@D@2@@std@@U?$less@K@2@V?$allocator@U?$pair@$$CBKV?$basic_string@DU?$char_traits@D@std@@V?$allocator@D@2@@std@@@std@@@2@$0A@@std@@@std@@QAE?AViterator@12@V312@@Z 1004f938 f   debug.obj
 0001:0004e960       __unwindfunclet$?_Buynode@?$_Tree@V?$_Tmap_traits@KV?$basic_string@DU?$char_traits@D@std@@V?$allocator@D@2@@std@@U?$less@K@2@V?$allocator@U?$pair@$$CBKV?$basic_string@DU?$char_traits@D@std@@V?$allocator@D@2@@std@@@std@@@2@$0A@@std@@@std@@IAEPAU_Node@?$_Tree_nod@V?$_Tmap_traits@KV?$basic_string@DU?$char_traits@D@std@@V?$allocator@D@2@@std@@U?$less@K@2@V?$allocator@U?$pair@$$CBKV?$basic_string@DU?$char_traits@D@std@@V?$allocator@D@2@@std@@@std@@@2@$0A@@std@@@2@PAU342@00ABU?$pair@$$CBKV?$basic_string@DU?$char_traits@D@std@@V?$allocator@D@2@@std@@@2@D@Z$2 1004f960 f   debug.obj
 0001:0004e960       __unwindfunclet$?_Buynode@?$_Tree@V?$_Tmap_traits@PBDV?$basic_string@DU?$char_traits@D@std@@V?$allocator@D@2@@std@@U?$less@PBD@2@V?$allocator@U?$pair@QBDV?$basic_string@DU?$char_traits@D@std@@V?$allocator@D@2@@std@@@std@@@2@$0A@@std@@@std@@IAEPAU_Node@?$_Tree_nod@V?$_Tmap_traits@PBDV?$basic_string@DU?$char_traits@D@std@@V?$allocator@D@2@@std@@U?$less@PBD@2@V?$allocator@U?$pair@QBDV?$basic_string@DU?$char_traits@D@std@@V?$allocator@D@2@@std@@@std@@@2@$0A@@std@@@2@PAU342@00ABU?$pair@QBDV?$basic_string@DU?$char_traits@D@std@@V?$allocator@D@2@@std@@@2@D@Z$2 1004f960 f   debug.obj
 0001:0004e971       __ehhandler$?_Buynode@?$_Tree@V?$_Tmap_traits@PBDV?$basic_string@DU?$char_traits@D@std@@V?$allocator@D@2@@std@@U?$less@PBD@2@V?$allocator@U?$pair@QBDV?$basic_string@DU?$char_traits@D@std@@V?$allocator@D@2@@std@@@std@@@2@$0A@@std@@@std@@IAEPAU_Node@?$_Tree_nod@V?$_Tmap_traits@PBDV?$basic_string@DU?$char_traits@D@std@@V?$allocator@D@2@@std@@U?$less@PBD@2@V?$allocator@U?$pair@QBDV?$basic_string@DU?$char_traits@D@std@@V?$allocator@D@2@@std@@@std@@@2@$0A@@std@@@2@PAU342@00ABU?$pair@QBDV?$basic_string@DU?$char_traits@D@std@@V?$allocator@D@2@@std@@@2@D@Z 1004f971 f   debug.obj
 0001:0004e971       __ehhandler$?_Buynode@?$_Tree@V?$_Tmap_traits@KV?$basic_string@DU?$char_traits@D@std@@V?$allocator@D@2@@std@@U?$less@K@2@V?$allocator@U?$pair@$$CBKV?$basic_string@DU?$char_traits@D@std@@V?$allocator@D@2@@std@@@std@@@2@$0A@@std@@@std@@IAEPAU_Node@?$_Tree_nod@V?$_Tmap_traits@KV?$basic_string@DU?$char_traits@D@std@@V?$allocator@D@2@@std@@U?$less@K@2@V?$allocator@U?$pair@$$CBKV?$basic_string@DU?$char_traits@D@std@@V?$allocator@D@2@@std@@@std@@@2@$0A@@std@@@2@PAU342@00ABU?$pair@$$CBKV?$basic_string@DU?$char_traits@D@std@@V?$allocator@D@2@@std@@@2@D@Z 1004f971 f   debug.obj
 0001:0004e990       __unwindfunclet$?_Insert@?$_Tree@V?$_Tmap_traits@KV?$basic_string@DU?$char_traits@D@std@@V?$allocator@D@2@@std@@U?$less@K@2@V?$allocator@U?$pair@$$CBKV?$basic_string@DU?$char_traits@D@std@@V?$allocator@D@2@@std@@@std@@@2@$0A@@std@@@std@@IAE?AViterator@12@_NPAU_Node@?$_Tree_nod@V?$_Tmap_traits@KV?$basic_string@DU?$char_traits@D@std@@V?$allocator@D@2@@std@@U?$less@K@2@V?$allocator@U?$pair@$$CBKV?$basic_string@DU?$char_traits@D@std@@V?$allocator@D@2@@std@@@std@@@2@$0A@@std@@@2@ABU?$pair@$$CBKV?$basic_string@DU?$char_traits@D@std@@V?$allocator@D@2@@std@@@2@@Z$0 1004f990 f   debug.obj
 0001:0004e990       __unwindfunclet$?_Insert@?$_Tree@V?$_Tmap_traits@PBDV?$basic_string@DU?$char_traits@D@std@@V?$allocator@D@2@@std@@U?$less@PBD@2@V?$allocator@U?$pair@QBDV?$basic_string@DU?$char_traits@D@std@@V?$allocator@D@2@@std@@@std@@@2@$0A@@std@@@std@@IAE?AViterator@12@_NPAU_Node@?$_Tree_nod@V?$_Tmap_traits@PBDV?$basic_string@DU?$char_traits@D@std@@V?$allocator@D@2@@std@@U?$less@PBD@2@V?$allocator@U?$pair@QBDV?$basic_string@DU?$char_traits@D@std@@V?$allocator@D@2@@std@@@std@@@2@$0A@@std@@@2@ABU?$pair@QBDV?$basic_string@DU?$char_traits@D@std@@V?$allocator@D@2@@std@@@2@@Z$0 1004f990 f   debug.obj
 0001:0004e998       __ehhandler$?_Insert@?$_Tree@V?$_Tmap_traits@PBDV?$basic_string@DU?$char_traits@D@std@@V?$allocator@D@2@@std@@U?$less@PBD@2@V?$allocator@U?$pair@QBDV?$basic_string@DU?$char_traits@D@std@@V?$allocator@D@2@@std@@@std@@@2@$0A@@std@@@std@@IAE?AViterator@12@_NPAU_Node@?$_Tree_nod@V?$_Tmap_traits@PBDV?$basic_string@DU?$char_traits@D@std@@V?$allocator@D@2@@std@@U?$less@PBD@2@V?$allocator@U?$pair@QBDV?$basic_string@DU?$char_traits@D@std@@V?$allocator@D@2@@std@@@std@@@2@$0A@@std@@@2@ABU?$pair@QBDV?$basic_string@DU?$char_traits@D@std@@V?$allocator@D@2@@std@@@2@@Z 1004f998 f   debug.obj
 0001:0004e998       __ehhandler$?_Insert@?$_Tree@V?$_Tmap_traits@KV?$basic_string@DU?$char_traits@D@std@@V?$allocator@D@2@@std@@U?$less@K@2@V?$allocator@U?$pair@$$CBKV?$basic_string@DU?$char_traits@D@std@@V?$allocator@D@2@@std@@@std@@@2@$0A@@std@@@std@@IAE?AViterator@12@_NPAU_Node@?$_Tree_nod@V?$_Tmap_traits@KV?$basic_string@DU?$char_traits@D@std@@V?$allocator@D@2@@std@@U?$less@K@2@V?$allocator@U?$pair@$$CBKV?$basic_string@DU?$char_traits@D@std@@V?$allocator@D@2@@std@@@std@@@2@$0A@@std@@@2@ABU?$pair@$$CBKV?$basic_string@DU?$char_traits@D@std@@V?$allocator@D@2@@std@@@2@@Z 1004f998 f   debug.obj
 0001:0004e9c0       __unwindfunclet$??A?$map@KV?$basic_string@DU?$char_traits@D@std@@V?$allocator@D@2@@std@@U?$less@K@2@V?$allocator@U?$pair@$$CBKV?$basic_string@DU?$char_traits@D@std@@V?$allocator@D@2@@std@@@std@@@2@@std@@QAEAAV?$basic_string@DU?$char_traits@D@std@@V?$allocator@D@2@@1@ABK@Z$0 1004f9c0 f   debug.obj
 0001:0004e9c0       __unwindfunclet$??A?$map@PBDV?$basic_string@DU?$char_traits@D@std@@V?$allocator@D@2@@std@@U?$less@PBD@2@V?$allocator@U?$pair@QBDV?$basic_string@DU?$char_traits@D@std@@V?$allocator@D@2@@std@@@std@@@2@@std@@QAEAAV?$basic_string@DU?$char_traits@D@std@@V?$allocator@D@2@@1@ABQBD@Z$0 1004f9c0 f   debug.obj
 0001:0004e9c8       __unwindfunclet$??A?$map@PBDV?$basic_string@DU?$char_traits@D@std@@V?$allocator@D@2@@std@@U?$less@PBD@2@V?$allocator@U?$pair@QBDV?$basic_string@DU?$char_traits@D@std@@V?$allocator@D@2@@std@@@std@@@2@@std@@QAEAAV?$basic_string@DU?$char_traits@D@std@@V?$allocator@D@2@@1@ABQBD@Z$1 1004f9c8 f   debug.obj
 0001:0004e9c8       __unwindfunclet$??A?$map@KV?$basic_string@DU?$char_traits@D@std@@V?$allocator@D@2@@std@@U?$less@K@2@V?$allocator@U?$pair@$$CBKV?$basic_string@DU?$char_traits@D@std@@V?$allocator@D@2@@std@@@std@@@2@@std@@QAEAAV?$basic_string@DU?$char_traits@D@std@@V?$allocator@D@2@@1@ABK@Z$1 1004f9c8 f   debug.obj
 0001:0004e9d0       __ehhandler$??A?$map@KV?$basic_string@DU?$char_traits@D@std@@V?$allocator@D@2@@std@@U?$less@K@2@V?$allocator@U?$pair@$$CBKV?$basic_string@DU?$char_traits@D@std@@V?$allocator@D@2@@std@@@std@@@2@@std@@QAEAAV?$basic_string@DU?$char_traits@D@std@@V?$allocator@D@2@@1@ABK@Z 1004f9d0 f   debug.obj
 0001:0004e9d0       __ehhandler$??A?$map@PBDV?$basic_string@DU?$char_traits@D@std@@V?$allocator@D@2@@std@@U?$less@PBD@2@V?$allocator@U?$pair@QBDV?$basic_string@DU?$char_traits@D@std@@V?$allocator@D@2@@std@@@std@@@2@@std@@QAEAAV?$basic_string@DU?$char_traits@D@std@@V?$allocator@D@2@@1@ABQBD@Z 1004f9d0 f   debug.obj
 0001:0004e9f0       __unwindfunclet$??1FileArchive@@QAE@XZ$0 1004f9f0 f   File.obj
 0001:0004e9f8       __unwindfunclet$??1FileArchive@@QAE@XZ$1 1004f9f8 f   File.obj
 0001:0004ea03       __ehhandler$??1FileArchive@@QAE@XZ 1004fa03 f   File.obj
 0001:0004ea20       __unwindfunclet$??0Record@FileArchive@@QAE@XZ$0 1004fa20 f   File.obj
 0001:0004ea2b       __unwindfunclet$??0Record@FileArchive@@QAE@XZ$1 1004fa2b f   File.obj
 0001:0004ea36       __unwindfunclet$??0Record@FileArchive@@QAE@XZ$2 1004fa36 f   File.obj
 0001:0004ea41       __ehhandler$??0Record@FileArchive@@QAE@XZ 1004fa41 f   File.obj
 0001:0004ea60       __unwindfunclet$??1File@@QAE@XZ$0 1004fa60 f   File.obj
 0001:0004ea60       __unwindfunclet$??1Record@FileArchive@@QAE@XZ$0 1004fa60 f   File.obj
 0001:0004ea6b       __ehhandler$??1Record@FileArchive@@QAE@XZ 1004fa6b f   File.obj
 0001:0004ea6b       __ehhandler$??1File@@QAE@XZ 1004fa6b f   File.obj
 0001:0004ea90       __unwindfunclet$?_Read_s@?$basic_istream@DU?$char_traits@D@std@@@std@@QAEAAV12@PADIH@Z$2 1004fa90 f   File.obj
 0001:0004ea98       __ehhandler$?_Read_s@?$basic_istream@DU?$char_traits@D@std@@@std@@QAEAAV12@PADIH@Z 1004fa98 f   File.obj
 0001:0004eac0       __ehhandler$??0?$vector@URecord@FileArchive@@V?$allocator@URecord@FileArchive@@@std@@@std@@QAE@ABV01@@Z 1004fac0 f   File.obj
 0001:0004eae0       __unwindfunclet$??0Record@FileArchive@@QAE@ABU01@@Z$0 1004fae0 f   File.obj
 0001:0004eaeb       __unwindfunclet$??0Record@FileArchive@@QAE@ABU01@@Z$1 1004faeb f   File.obj
 0001:0004eaf6       __ehhandler$??0Record@FileArchive@@QAE@ABU01@@Z 1004faf6 f   File.obj
 0001:0004eb20       __unwindfunclet$?GetRecord@FileArchive@@QAEABURecord@1@V?$basic_string@DU?$char_traits@D@std@@V?$allocator@D@2@@std@@@Z$0 1004fb20 f   File.obj
 0001:0004eb28       __unwindfunclet$?GetRecord@FileArchive@@QAEABURecord@1@V?$basic_string@DU?$char_traits@D@std@@V?$allocator@D@2@@std@@@Z$1 1004fb28 f   File.obj
 0001:0004eb36       __unwindfunclet$?GetRecord@FileArchive@@QAEABURecord@1@V?$basic_string@DU?$char_traits@D@std@@V?$allocator@D@2@@std@@@Z$2 1004fb36 f   File.obj
 0001:0004eb3e       __unwindfunclet$?GetRecord@FileArchive@@QAEABURecord@1@V?$basic_string@DU?$char_traits@D@std@@V?$allocator@D@2@@std@@@Z$3 1004fb3e f   File.obj
 0001:0004eb46       __unwindfunclet$?GetRecord@FileArchive@@QAEABURecord@1@V?$basic_string@DU?$char_traits@D@std@@V?$allocator@D@2@@std@@@Z$4 1004fb46 f   File.obj
 0001:0004eb4e       __unwindfunclet$?GetRecord@FileArchive@@QAEABURecord@1@V?$basic_string@DU?$char_traits@D@std@@V?$allocator@D@2@@std@@@Z$5 1004fb4e f   File.obj
 0001:0004eb56       __unwindfunclet$?GetRecord@FileArchive@@QAEABURecord@1@V?$basic_string@DU?$char_traits@D@std@@V?$allocator@D@2@@std@@@Z$6 1004fb56 f   File.obj
 0001:0004eb5e       __ehhandler$?GetRecord@FileArchive@@QAEABURecord@1@V?$basic_string@DU?$char_traits@D@std@@V?$allocator@D@2@@std@@@Z 1004fb5e f   File.obj
 0001:0004eb79       __unwindfunclet$??0File@@QAE@XZ$0 1004fb79 f   File.obj
 0001:0004eb84       __unwindfunclet$??0File@@QAE@XZ$1 1004fb84 f   File.obj
 0001:0004eb8f       __ehhandler$??0File@@QAE@XZ 1004fb8f f   File.obj
 0001:0004ebaa       __unwindfunclet$?Open@File@@QAE_NV?$basic_string@DU?$char_traits@D@std@@V?$allocator@D@2@@std@@@Z$0 1004fbaa f   File.obj
 0001:0004ebb2       __unwindfunclet$?Open@File@@QAE_NV?$basic_string@DU?$char_traits@D@std@@V?$allocator@D@2@@std@@@Z$1 1004fbb2 f   File.obj
 0001:0004ebba       __unwindfunclet$?Open@File@@QAE_NV?$basic_string@DU?$char_traits@D@std@@V?$allocator@D@2@@std@@@Z$2 1004fbba f   File.obj
 0001:0004ebc2       __ehhandler$?Open@File@@QAE_NV?$basic_string@DU?$char_traits@D@std@@V?$allocator@D@2@@std@@@Z 1004fbc2 f   File.obj
 0001:0004ebdd       __unwindfunclet$?FileExistsEx@@YA_NV?$basic_string@DU?$char_traits@D@std@@V?$allocator@D@2@@std@@@Z$0 1004fbdd f   File.obj
 0001:0004ebe5       __unwindfunclet$?FileExistsEx@@YA_NV?$basic_string@DU?$char_traits@D@std@@V?$allocator@D@2@@std@@@Z$1 1004fbe5 f   File.obj
 0001:0004ebf0       __ehhandler$?FileExistsEx@@YA_NV?$basic_string@DU?$char_traits@D@std@@V?$allocator@D@2@@std@@@Z 1004fbf0 f   File.obj
 0001:0004ec1e       __unwindfunclet$?Open@FileArchive@@QAE_NV?$basic_string@DU?$char_traits@D@std@@V?$allocator@D@2@@std@@0@Z$0 1004fc1e f   File.obj
 0001:0004ec26       __unwindfunclet$?Open@FileArchive@@QAE_NV?$basic_string@DU?$char_traits@D@std@@V?$allocator@D@2@@std@@0@Z$1 1004fc26 f   File.obj
 0001:0004ec2e       __unwindfunclet$?Open@FileArchive@@QAE_NV?$basic_string@DU?$char_traits@D@std@@V?$allocator@D@2@@std@@0@Z$2 1004fc2e f   File.obj
 0001:0004ec39       __unwindfunclet$?Open@FileArchive@@QAE_NV?$basic_string@DU?$char_traits@D@std@@V?$allocator@D@2@@std@@0@Z$3 1004fc39 f   File.obj
 0001:0004ec41       __unwindfunclet$?Open@FileArchive@@QAE_NV?$basic_string@DU?$char_traits@D@std@@V?$allocator@D@2@@std@@0@Z$4 1004fc41 f   File.obj
 0001:0004ec4c       __unwindfunclet$?Open@FileArchive@@QAE_NV?$basic_string@DU?$char_traits@D@std@@V?$allocator@D@2@@std@@0@Z$5 1004fc4c f   File.obj
 0001:0004ec57       __unwindfunclet$?Open@FileArchive@@QAE_NV?$basic_string@DU?$char_traits@D@std@@V?$allocator@D@2@@std@@0@Z$6 1004fc57 f   File.obj
 0001:0004ec62       __unwindfunclet$?Open@FileArchive@@QAE_NV?$basic_string@DU?$char_traits@D@std@@V?$allocator@D@2@@std@@0@Z$7 1004fc62 f   File.obj
 0001:0004ec6d       __ehhandler$?Open@FileArchive@@QAE_NV?$basic_string@DU?$char_traits@D@std@@V?$allocator@D@2@@std@@0@Z 1004fc6d f   File.obj
 0001:0004eca0       __unwindfunclet$??$_Uninit_copy@PAURecord@FileArchive@@PAU12@V?$allocator@URecord@FileArchive@@@std@@@std@@YAPAURecord@FileArchive@@PAU12@00AAV?$allocator@URecord@FileArchive@@@0@U_Nonscalar_ptr_iterator_tag@0@U_Range_checked_iterator_tag@0@@Z$2 1004fca0 f   File.obj
 0001:0004eca0       __unwindfunclet$??$_Uninit_copy@PBURecord@FileArchive@@PAU12@V?$allocator@URecord@FileArchive@@@std@@@std@@YAPAURecord@FileArchive@@PBU12@0PAU12@AAV?$allocator@URecord@FileArchive@@@0@U_Nonscalar_ptr_iterator_tag@0@U_Range_checked_iterator_tag@0@@Z$2 1004fca0 f   File.obj
 0001:0004ecb1       __ehhandler$??$_Uninit_copy@PAURecord@FileArchive@@PAU12@V?$allocator@URecord@FileArchive@@@std@@@std@@YAPAURecord@FileArchive@@PAU12@00AAV?$allocator@URecord@FileArchive@@@0@U_Nonscalar_ptr_iterator_tag@0@U_Range_checked_iterator_tag@0@@Z 1004fcb1 f   File.obj
 0001:0004ecb1       __ehhandler$??$_Uninit_copy@PBURecord@FileArchive@@PAU12@V?$allocator@URecord@FileArchive@@@std@@@std@@YAPAURecord@FileArchive@@PBU12@0PAU12@AAV?$allocator@URecord@FileArchive@@@0@U_Nonscalar_ptr_iterator_tag@0@U_Range_checked_iterator_tag@0@@Z 1004fcb1 f   File.obj
 0001:0004ecd0       __unwindfunclet$??$_Uninit_fill_n@PAURecord@FileArchive@@IU12@V?$allocator@URecord@FileArchive@@@std@@@std@@YAXPAURecord@FileArchive@@IABU12@AAV?$allocator@URecord@FileArchive@@@0@U_Nonscalar_ptr_iterator_tag@0@U_Range_checked_iterator_tag@0@@Z$2 1004fcd0 f   File.obj
 0001:0004ece1       __ehhandler$??$_Uninit_fill_n@PAURecord@FileArchive@@IU12@V?$allocator@URecord@FileArchive@@@std@@@std@@YAXPAURecord@FileArchive@@IABU12@AAV?$allocator@URecord@FileArchive@@@0@U_Nonscalar_ptr_iterator_tag@0@U_Range_checked_iterator_tag@0@@Z 1004fce1 f   File.obj
 0001:0004ed00       __unwindfunclet$?_Insert_n@?$vector@URecord@FileArchive@@V?$allocator@URecord@FileArchive@@@std@@@std@@IAEXV?$_Vector_iterator@URecord@FileArchive@@V?$allocator@URecord@FileArchive@@@std@@@2@IABURecord@FileArchive@@@Z$4 1004fd00 f   File.obj
 0001:0004ed08       __ehhandler$?_Insert_n@?$vector@URecord@FileArchive@@V?$allocator@URecord@FileArchive@@@std@@@std@@IAEXV?$_Vector_iterator@URecord@FileArchive@@V?$allocator@URecord@FileArchive@@@std@@@2@IABURecord@FileArchive@@@Z 1004fd08 f   File.obj
 0001:0004ed30       __unwindfunclet$??__EArchives@@YAXXZ$0 1004fd30 f   File.obj
 0001:0004ed3a       __unwindfunclet$??__EArchives@@YAXXZ$1 1004fd3a f   File.obj
 0001:0004ed44       __ehhandler$??__EArchives@@YAXXZ 1004fd44 f   File.obj
 0001:0004ed60       __unwindfunclet$?GUI_textField_MeasurePosition@@YGKK@Z$0 1004fd60 f   gui_bugfix.obj
 0001:0004ed68       __ehhandler$?GUI_textField_MeasurePosition@@YGKK@Z 1004fd68 f   gui_bugfix.obj
 0001:0004ed90       __unwindfunclet$??0Image@@QAE@V?$basic_string@DU?$char_traits@D@std@@V?$allocator@D@2@@std@@@Z$0 1004fd90 f   Image.obj
 0001:0004ed98       __unwindfunclet$??0Image@@QAE@V?$basic_string@DU?$char_traits@D@std@@V?$allocator@D@2@@std@@@Z$1 1004fd98 f   Image.obj
 0001:0004eda3       __unwindfunclet$??0Image@@QAE@V?$basic_string@DU?$char_traits@D@std@@V?$allocator@D@2@@std@@@Z$4 1004fda3 f   Image.obj
 0001:0004edae       __unwindfunclet$??0Image@@QAE@V?$basic_string@DU?$char_traits@D@std@@V?$allocator@D@2@@std@@@Z$6 1004fdae f   Image.obj
 0001:0004edb9       __unwindfunclet$??0Image@@QAE@V?$basic_string@DU?$char_traits@D@std@@V?$allocator@D@2@@std@@@Z$8 1004fdb9 f   Image.obj
 0001:0004edc4       __ehhandler$??0Image@@QAE@V?$basic_string@DU?$char_traits@D@std@@V?$allocator@D@2@@std@@@Z 1004fdc4 f   Image.obj
 0001:0004ee00       __unwindfunclet$??$_Construct@UIImageUse@@U1@@std@@YAXPAUIImageUse@@ABU1@@Z$0 1004fe00 f   itempng.obj
 0001:0004ee11       __ehhandler$??$_Construct@UIImageUse@@U1@@std@@YAXPAUIImageUse@@ABU1@@Z 1004fe11 f   itempng.obj
 0001:0004ee30       __ehhandler$??$_Uninit_copy@PAUIImageUse@@PAU1@V?$allocator@UIImageUse@@@std@@@std@@YAPAUIImageUse@@PAU1@00AAV?$allocator@UIImageUse@@@0@U_Nonscalar_ptr_iterator_tag@0@U_Range_checked_iterator_tag@0@@Z 1004fe30 f   itempng.obj
 0001:0004ee50       __ehhandler$??$_Uninit_fill_n@PAUIImageUse@@IU1@V?$allocator@UIImageUse@@@std@@@std@@YAXPAUIImageUse@@IABU1@AAV?$allocator@UIImageUse@@@0@U_Nonscalar_ptr_iterator_tag@0@U_Range_checked_iterator_tag@0@@Z 1004fe50 f   itempng.obj
 0001:0004ee70       __unwindfunclet$?_Insert_n@?$vector@UIImageUse@@V?$allocator@UIImageUse@@@std@@@std@@IAEXV?$_Vector_iterator@UIImageUse@@V?$allocator@UIImageUse@@@std@@@2@IABUIImageUse@@@Z$4 1004fe70 f   itempng.obj
 0001:0004ee78       __ehhandler$?_Insert_n@?$vector@UIImageUse@@V?$allocator@UIImageUse@@@std@@@std@@IAEXV?$_Vector_iterator@UIImageUse@@V?$allocator@UIImageUse@@@std@@@2@IABUIImageUse@@@Z 1004fe78 f   itempng.obj
 0001:0004eea0       __unwindfunclet$?IImage_Construct@@YGPAXV?$basic_string@DU?$char_traits@D@std@@V?$allocator@D@2@@std@@@Z$0 1004fea0 f   itempng.obj
 0001:0004eea8       __unwindfunclet$?IImage_Construct@@YGPAXV?$basic_string@DU?$char_traits@D@std@@V?$allocator@D@2@@std@@@Z$1 1004fea8 f   itempng.obj
 0001:0004eeb3       __unwindfunclet$?IImage_Construct@@YGPAXV?$basic_string@DU?$char_traits@D@std@@V?$allocator@D@2@@std@@@Z$3 1004feb3 f   itempng.obj
 0001:0004eebb       __ehhandler$?IImage_Construct@@YGPAXV?$basic_string@DU?$char_traits@D@std@@V?$allocator@D@2@@std@@@Z 1004febb f   itempng.obj
 0001:0004eee3       __unwindfunclet$?ITEMPNG_doLoadPngChar@@YGPAXPBD0@Z$1 1004fee3 f   itempng.obj
 0001:0004eeeb       __unwindfunclet$?ITEMPNG_doLoadPngChar@@YGPAXPBD0@Z$3 1004feeb f   itempng.obj
 0001:0004eef3       __unwindfunclet$?ITEMPNG_doLoadPngChar@@YGPAXPBD0@Z$6 1004fef3 f   itempng.obj
 0001:0004eefb       __ehhandler$?ITEMPNG_doLoadPngChar@@YGPAXPBD0@Z 1004fefb f   itempng.obj
 0001:0004ef20       __unwindfunclet$?ITEMPNG_doLoadPng@@YGXPBDH00@Z$0 1004ff20 f   itempng.obj
 0001:0004ef2b       __unwindfunclet$?ITEMPNG_doLoadPng@@YGXPBDH00@Z$1 1004ff2b f   itempng.obj
 0001:0004ef33       __unwindfunclet$?ITEMPNG_doLoadPng@@YGXPBDH00@Z$2 1004ff33 f   itempng.obj
 0001:0004ef3e       __unwindfunclet$?ITEMPNG_doLoadPng@@YGXPBDH00@Z$3 1004ff3e f   itempng.obj
 0001:0004ef49       __unwindfunclet$?ITEMPNG_doLoadPng@@YGXPBDH00@Z$4 1004ff49 f   itempng.obj
 0001:0004ef54       __unwindfunclet$?ITEMPNG_doLoadPng@@YGXPBDH00@Z$5 1004ff54 f   itempng.obj
 0001:0004ef5f       __unwindfunclet$?ITEMPNG_doLoadPng@@YGXPBDH00@Z$6 1004ff5f f   itempng.obj
 0001:0004ef6a       __unwindfunclet$?ITEMPNG_doLoadPng@@YGXPBDH00@Z$7 1004ff6a f   itempng.obj
 0001:0004ef72       __unwindfunclet$?ITEMPNG_doLoadPng@@YGXPBDH00@Z$8 1004ff72 f   itempng.obj
 0001:0004ef7a       __unwindfunclet$?ITEMPNG_doLoadPng@@YGXPBDH00@Z$9 1004ff7a f   itempng.obj
 0001:0004ef85       __unwindfunclet$?ITEMPNG_doLoadPng@@YGXPBDH00@Z$10 1004ff85 f   itempng.obj
 0001:0004ef90       __unwindfunclet$?ITEMPNG_doLoadPng@@YGXPBDH00@Z$11 1004ff90 f   itempng.obj
 0001:0004ef98       __unwindfunclet$?ITEMPNG_doLoadPng@@YGXPBDH00@Z$14 1004ff98 f   itempng.obj
 0001:0004efa0       __unwindfunclet$?ITEMPNG_doLoadPng@@YGXPBDH00@Z$17 1004ffa0 f   itempng.obj
 0001:0004efa8       __ehhandler$?ITEMPNG_doLoadPng@@YGXPBDH00@Z 1004ffa8 f   itempng.obj
 0001:0004efd0       __unwindfunclet$?P_LoadTiles@@YAXXZ$1 1004ffd0 f   landscape_renderer.obj
 0001:0004efd8       __ehhandler$?P_LoadTiles@@YAXXZ 1004ffd8 f   landscape_renderer.obj
 0001:0004f000       __unwindfunclet$?get_map_name@@YGPBDPBD@Z$0 10050000 f   map_location.obj
 0001:0004f008       __ehhandler$?get_map_name@@YGPBDPBD@Z 10050008 f   map_location.obj
 0001:0004f030       __unwindfunclet$?move_map_file@@YGXPBD0@Z$0 10050030 f   map_location.obj
 0001:0004f038       __unwindfunclet$?move_map_file@@YGXPBD0@Z$1 10050038 f   map_location.obj
 0001:0004f040       __unwindfunclet$?move_map_file@@YGXPBD0@Z$2 10050040 f   map_location.obj
 0001:0004f048       __unwindfunclet$?move_map_file@@YGXPBD0@Z$3 10050048 f   map_location.obj
 0001:0004f050       __ehhandler$?move_map_file@@YGXPBD0@Z 10050050 f   map_location.obj
 0001:0004f080       __unwindfunclet$?parseLogin@@YGXXZ$0 10050080 f   network_hat_enter.obj
 0001:0004f088       __unwindfunclet$?parseLogin@@YGXXZ$1 10050088 f   network_hat_enter.obj
 0001:0004f090       __unwindfunclet$?parseLogin@@YGXXZ$2 10050090 f   network_hat_enter.obj
 0001:0004f098       __unwindfunclet$?parseLogin@@YGXXZ$3 10050098 f   network_hat_enter.obj
 0001:0004f0a0       __ehhandler$?parseLogin@@YGXXZ 100500a0 f   network_hat_enter.obj
 0001:0004f0c0       __unwindfunclet$?recv_@@YGHIPADHH@Z$0 100500c0 f   network_protocol.obj
 0001:0004f0c8       __ehhandler$?recv_@@YGHIPADHH@Z 100500c8 f   network_protocol.obj
 0001:0004f0f0       __unwindfunclet$??0VersionFileEntry@@QAE@V?$CStringT@DV?$StrTraitATL@DV?$ChTraitsCRT@D@ATL@@@ATL@@@ATL@@0@Z$0 100500f0 f   network_protocol_ext.obj
 0001:0004f0f8       __unwindfunclet$??0VersionFileEntry@@QAE@V?$CStringT@DV?$StrTraitATL@DV?$ChTraitsCRT@D@ATL@@@ATL@@@ATL@@0@Z$1 100500f8 f   network_protocol_ext.obj
 0001:0004f100       __unwindfunclet$??0VersionFileEntry@@QAE@V?$CStringT@DV?$StrTraitATL@DV?$ChTraitsCRT@D@ATL@@@ATL@@@ATL@@0@Z$2 10050100 f   network_protocol_ext.obj
 0001:0004f108       __ehhandler$??0VersionFileEntry@@QAE@V?$CStringT@DV?$StrTraitATL@DV?$ChTraitsCRT@D@ATL@@@ATL@@@ATL@@0@Z 10050108 f   network_protocol_ext.obj
 0001:0004f130       __unwindfunclet$??$_Uninit_copy@PAV?$CStringT@DV?$StrTraitATL@DV?$ChTraitsCRT@D@ATL@@@ATL@@@ATL@@PAV12@V?$allocator@V?$CStringT@DV?$StrTraitATL@DV?$ChTraitsCRT@D@ATL@@@ATL@@@ATL@@@std@@@std@@YAPAV?$CStringT@DV?$StrTraitATL@DV?$ChTraitsCRT@D@ATL@@@ATL@@@ATL@@PAV12@00AAV?$allocator@V?$CStringT@DV?$StrTraitATL@DV?$ChTraitsCRT@D@ATL@@@ATL@@@ATL@@@0@U_Nonscalar_ptr_iterator_tag@0@U_Range_checked_iterator_tag@0@@Z$2 10050130 f   network_protocol_ext.obj
 0001:0004f141       __ehhandler$??$_Uninit_copy@PAV?$CStringT@DV?$StrTraitATL@DV?$ChTraitsCRT@D@ATL@@@ATL@@@ATL@@PAV12@V?$allocator@V?$CStringT@DV?$StrTraitATL@DV?$ChTraitsCRT@D@ATL@@@ATL@@@ATL@@@std@@@std@@YAPAV?$CStringT@DV?$StrTraitATL@DV?$ChTraitsCRT@D@ATL@@@ATL@@@ATL@@PAV12@00AAV?$allocator@V?$CStringT@DV?$StrTraitATL@DV?$ChTraitsCRT@D@ATL@@@ATL@@@ATL@@@0@U_Nonscalar_ptr_iterator_tag@0@U_Range_checked_iterator_tag@0@@Z 10050141 f   network_protocol_ext.obj
 0001:0004f160       __unwindfunclet$??HATL@@YA?AV?$CStringT@DV?$StrTraitATL@DV?$ChTraitsCRT@D@ATL@@@ATL@@@0@ABV10@0@Z$0 10050160 f   network_protocol_ext.obj
 0001:0004f179       __ehhandler$??HATL@@YA?AV?$CStringT@DV?$StrTraitATL@DV?$ChTraitsCRT@D@ATL@@@ATL@@@0@ABV10@0@Z 10050179 f   network_protocol_ext.obj
 0001:0004f1a0       __unwindfunclet$??HATL@@YA?AV?$CStringT@DV?$StrTraitATL@DV?$ChTraitsCRT@D@ATL@@@ATL@@@0@ABV10@PBD@Z$0 100501a0 f   network_protocol_ext.obj
 0001:0004f1a0       __unwindfunclet$??HATL@@YA?AV?$CStringT@DV?$StrTraitATL@DV?$ChTraitsCRT@D@ATL@@@ATL@@@0@PBDABV10@@Z$0 100501a0 f   network_protocol_ext.obj
 0001:0004f1b9       __ehhandler$??HATL@@YA?AV?$CStringT@DV?$StrTraitATL@DV?$ChTraitsCRT@D@ATL@@@ATL@@@0@ABV10@PBD@Z 100501b9 f   network_protocol_ext.obj
 0001:0004f1b9       __ehhandler$??HATL@@YA?AV?$CStringT@DV?$StrTraitATL@DV?$ChTraitsCRT@D@ATL@@@ATL@@@0@PBDABV10@@Z 100501b9 f   network_protocol_ext.obj
 0001:0004f1e0       __unwindfunclet$??$_Uninit_fill_n@PAV?$CStringT@DV?$StrTraitATL@DV?$ChTraitsCRT@D@ATL@@@ATL@@@ATL@@IV12@V?$allocator@V?$CStringT@DV?$StrTraitATL@DV?$ChTraitsCRT@D@ATL@@@ATL@@@ATL@@@std@@@std@@YAXPAV?$CStringT@DV?$StrTraitATL@DV?$ChTraitsCRT@D@ATL@@@ATL@@@ATL@@IABV12@AAV?$allocator@V?$CStringT@DV?$StrTraitATL@DV?$ChTraitsCRT@D@ATL@@@ATL@@@ATL@@@0@U_Nonscalar_ptr_iterator_tag@0@U_Range_checked_iterator_tag@0@@Z$2 100501e0 f   network_protocol_ext.obj
 0001:0004f1f1       __ehhandler$??$_Uninit_fill_n@PAV?$CStringT@DV?$StrTraitATL@DV?$ChTraitsCRT@D@ATL@@@ATL@@@ATL@@IV12@V?$allocator@V?$CStringT@DV?$StrTraitATL@DV?$ChTraitsCRT@D@ATL@@@ATL@@@ATL@@@std@@@std@@YAXPAV?$CStringT@DV?$StrTraitATL@DV?$ChTraitsCRT@D@ATL@@@ATL@@@ATL@@IABV12@AAV?$allocator@V?$CStringT@DV?$StrTraitATL@DV?$ChTraitsCRT@D@ATL@@@ATL@@@ATL@@@0@U_Nonscalar_ptr_iterator_tag@0@U_Range_checked_iterator_tag@0@@Z 100501f1 f   network_protocol_ext.obj
 0001:0004f210       __unwindfunclet$??$_Uninit_copy@PAUVersionFileEntry@@PAU1@V?$allocator@UVersionFileEntry@@@std@@@std@@YAPAUVersionFileEntry@@PAU1@00AAV?$allocator@UVersionFileEntry@@@0@U_Nonscalar_ptr_iterator_tag@0@U_Range_checked_iterator_tag@0@@Z$2 10050210 f   network_protocol_ext.obj
 0001:0004f221       __ehhandler$??$_Uninit_copy@PAUVersionFileEntry@@PAU1@V?$allocator@UVersionFileEntry@@@std@@@std@@YAPAUVersionFileEntry@@PAU1@00AAV?$allocator@UVersionFileEntry@@@0@U_Nonscalar_ptr_iterator_tag@0@U_Range_checked_iterator_tag@0@@Z 10050221 f   network_protocol_ext.obj
 0001:0004f240       __unwindfunclet$??0?$CStringT@DV?$StrTraitATL@DV?$ChTraitsCRT@D@ATL@@@ATL@@@ATL@@QAE@PBD@Z$0 10050240 f   network_protocol_ext.obj
 0001:0004f240       __unwindfunclet$??0VersionFileEntry@@QAE@ABU0@@Z$0 10050240 f   network_protocol_ext.obj
 0001:0004f248       __ehhandler$??0?$CStringT@DV?$StrTraitATL@DV?$ChTraitsCRT@D@ATL@@@ATL@@@ATL@@QAE@PBD@Z 10050248 f   network_protocol_ext.obj
 0001:0004f248       __ehhandler$??0VersionFileEntry@@QAE@ABU0@@Z 10050248 f   network_protocol_ext.obj
 0001:0004f270       __unwindfunclet$??$?HDU?$char_traits@D@std@@V?$allocator@D@1@@std@@YA?AV?$basic_string@DU?$char_traits@D@std@@V?$allocator@D@2@@0@ABV10@0@Z$0 10050270 f   network_protocol_ext.obj
 0001:0004f270       __unwindfunclet$??$?HDU?$char_traits@D@std@@V?$allocator@D@1@@std@@YA?AV?$basic_string@DU?$char_traits@D@std@@V?$allocator@D@2@@0@PBDABV10@@Z$0 10050270 f   network_protocol_ext.obj
 0001:0004f270       __unwindfunclet$??$?HDU?$char_traits@D@std@@V?$allocator@D@1@@std@@YA?AV?$basic_string@DU?$char_traits@D@std@@V?$allocator@D@2@@0@ABV10@PBD@Z$0 10050270 f   network_protocol_ext.obj
 0001:0004f278       __ehhandler$??$?HDU?$char_traits@D@std@@V?$allocator@D@1@@std@@YA?AV?$basic_string@DU?$char_traits@D@std@@V?$allocator@D@2@@0@ABV10@0@Z 10050278 f   network_protocol_ext.obj
 0001:0004f278       __ehhandler$??$?HDU?$char_traits@D@std@@V?$allocator@D@1@@std@@YA?AV?$basic_string@DU?$char_traits@D@std@@V?$allocator@D@2@@0@ABV10@PBD@Z 10050278 f   network_protocol_ext.obj
 0001:0004f278       __ehhandler$??$?HDU?$char_traits@D@std@@V?$allocator@D@1@@std@@YA?AV?$basic_string@DU?$char_traits@D@std@@V?$allocator@D@2@@0@PBDABV10@@Z 10050278 f   network_protocol_ext.obj
 0001:0004f2a0       __unwindfunclet$??$_Uninit_fill_n@PAUVersionFileEntry@@IU1@V?$allocator@UVersionFileEntry@@@std@@@std@@YAXPAUVersionFileEntry@@IABU1@AAV?$allocator@UVersionFileEntry@@@0@U_Nonscalar_ptr_iterator_tag@0@U_Range_checked_iterator_tag@0@@Z$2 100502a0 f   network_protocol_ext.obj
 0001:0004f2b1       __ehhandler$??$_Uninit_fill_n@PAUVersionFileEntry@@IU1@V?$allocator@UVersionFileEntry@@@std@@@std@@YAXPAUVersionFileEntry@@IABU1@AAV?$allocator@UVersionFileEntry@@@0@U_Nonscalar_ptr_iterator_tag@0@U_Range_checked_iterator_tag@0@@Z 100502b1 f   network_protocol_ext.obj
 0001:0004f2d0       __unwindfunclet$??0NETPROTO_fileProgress@@QAE@XZ$0 100502d0 f   network_protocol_ext.obj
 0001:0004f2db       __unwindfunclet$??0NETPROTO_fileProgress@@QAE@XZ$1 100502db f   network_protocol_ext.obj
 0001:0004f2e6       __unwindfunclet$??0NETPROTO_fileProgress@@QAE@XZ$2 100502e6 f   network_protocol_ext.obj
 0001:0004f2f1       __ehhandler$??0NETPROTO_fileProgress@@QAE@XZ 100502f1 f   network_protocol_ext.obj
 0001:0004f310       __unwindfunclet$?NETPROTO_hhStartReply@@YAXPBVResponse@happyhttp@@PAX@Z$0 10050310 f   network_protocol_ext.obj
 0001:0004f318       __ehhandler$?NETPROTO_hhStartReply@@YAXPBVResponse@happyhttp@@PAX@Z 10050318 f   network_protocol_ext.obj
 0001:0004f340       __unwindfunclet$?CurlEscape2@@YA?AV?$basic_string@DU?$char_traits@D@std@@V?$allocator@D@2@@std@@V12@@Z$0 10050340 f   network_protocol_ext.obj
 0001:0004f348       __unwindfunclet$?CurlEscape2@@YA?AV?$basic_string@DU?$char_traits@D@std@@V?$allocator@D@2@@std@@V12@@Z$1 10050348 f   network_protocol_ext.obj
 0001:0004f361       __unwindfunclet$?CurlEscape2@@YA?AV?$basic_string@DU?$char_traits@D@std@@V?$allocator@D@2@@std@@V12@@Z$3 10050361 f   network_protocol_ext.obj
 0001:0004f369       __ehhandler$?CurlEscape2@@YA?AV?$basic_string@DU?$char_traits@D@std@@V?$allocator@D@2@@std@@V12@@Z 10050369 f   network_protocol_ext.obj
 0001:0004f384       __unwindfunclet$?NETPROTO_hhReadReply@@YAXPBVResponse@happyhttp@@PAXPBEH@Z$1 10050384 f   network_protocol_ext.obj
 0001:0004f38c       __unwindfunclet$?NETPROTO_hhReadReply@@YAXPBVResponse@happyhttp@@PAXPBEH@Z$3 1005038c f   network_protocol_ext.obj
 0001:0004f394       __unwindfunclet$?NETPROTO_hhReadReply@@YAXPBVResponse@happyhttp@@PAXPBEH@Z$5 10050394 f   network_protocol_ext.obj
 0001:0004f39c       __unwindfunclet$?NETPROTO_hhReadReply@@YAXPBVResponse@happyhttp@@PAXPBEH@Z$7 1005039c f   network_protocol_ext.obj
 0001:0004f3a4       __ehhandler$?NETPROTO_hhReadReply@@YAXPBVResponse@happyhttp@@PAXPBEH@Z 100503a4 f   network_protocol_ext.obj
 0001:0004f3bf       __unwindfunclet$?NETPROTO_hhGetBlockingReply@@YA?AV?$basic_string@DU?$char_traits@D@std@@V?$allocator@D@2@@std@@V12@00@Z$2 100503bf f   network_protocol_ext.obj
 0001:0004f3c7       __unwindfunclet$?NETPROTO_hhGetBlockingReply@@YA?AV?$basic_string@DU?$char_traits@D@std@@V?$allocator@D@2@@std@@V12@00@Z$3 100503c7 f   network_protocol_ext.obj
 0001:0004f3cf       __unwindfunclet$?NETPROTO_hhGetBlockingReply@@YA?AV?$basic_string@DU?$char_traits@D@std@@V?$allocator@D@2@@std@@V12@00@Z$4 100503cf f   network_protocol_ext.obj
 0001:0004f3d7       __unwindfunclet$?NETPROTO_hhGetBlockingReply@@YA?AV?$basic_string@DU?$char_traits@D@std@@V?$allocator@D@2@@std@@V12@00@Z$5 100503d7 f   network_protocol_ext.obj
 0001:0004f3df       __unwindfunclet$?NETPROTO_hhGetBlockingReply@@YA?AV?$basic_string@DU?$char_traits@D@std@@V?$allocator@D@2@@std@@V12@00@Z$6 100503df f   network_protocol_ext.obj
 0001:0004f3ea       __unwindfunclet$?NETPROTO_hhGetBlockingReply@@YA?AV?$basic_string@DU?$char_traits@D@std@@V?$allocator@D@2@@std@@V12@00@Z$7 100503ea f   network_protocol_ext.obj
 0001:0004f40c       __ehhandler$?NETPROTO_hhGetBlockingReply@@YA?AV?$basic_string@DU?$char_traits@D@std@@V?$allocator@D@2@@std@@V12@00@Z 1005040c f   network_protocol_ext.obj
 0001:0004f434       __unwindfunclet$?Cl_ScreenshotThread@@YAHPBUScreenshotInfo@@@Z$2 10050434 f   network_protocol_ext.obj
 0001:0004f43c       __unwindfunclet$?Cl_ScreenshotThread@@YAHPBUScreenshotInfo@@@Z$4 1005043c f   network_protocol_ext.obj
 0001:0004f444       __unwindfunclet$?Cl_ScreenshotThread@@YAHPBUScreenshotInfo@@@Z$6 10050444 f   network_protocol_ext.obj
 0001:0004f44f       __unwindfunclet$?Cl_ScreenshotThread@@YAHPBUScreenshotInfo@@@Z$7 1005044f f   network_protocol_ext.obj
 0001:0004f457       __unwindfunclet$?Cl_ScreenshotThread@@YAHPBUScreenshotInfo@@@Z$10 10050457 f   network_protocol_ext.obj
 0001:0004f462       __unwindfunclet$?Cl_ScreenshotThread@@YAHPBUScreenshotInfo@@@Z$11 10050462 f   network_protocol_ext.obj
 0001:0004f46d       __unwindfunclet$?Cl_ScreenshotThread@@YAHPBUScreenshotInfo@@@Z$12 1005046d f   network_protocol_ext.obj
 0001:0004f478       __unwindfunclet$?Cl_ScreenshotThread@@YAHPBUScreenshotInfo@@@Z$13 10050478 f   network_protocol_ext.obj
 0001:0004f480       __unwindfunclet$?Cl_ScreenshotThread@@YAHPBUScreenshotInfo@@@Z$15 10050480 f   network_protocol_ext.obj
 0001:0004f488       __unwindfunclet$?Cl_ScreenshotThread@@YAHPBUScreenshotInfo@@@Z$19 10050488 f   network_protocol_ext.obj
 0001:0004f490       __unwindfunclet$?Cl_ScreenshotThread@@YAHPBUScreenshotInfo@@@Z$16 10050490 f   network_protocol_ext.obj
 0001:0004f498       __ehhandler$?Cl_ScreenshotThread@@YAHPBUScreenshotInfo@@@Z 10050498 f   network_protocol_ext.obj
 0001:0004f4c3       __unwindfunclet$?NETPROTO_CreateRecursive@@YA_NV?$basic_string@DU?$char_traits@D@std@@V?$allocator@D@2@@std@@@Z$0 100504c3 f   network_protocol_ext.obj
 0001:0004f4cb       __unwindfunclet$?NETPROTO_CreateRecursive@@YA_NV?$basic_string@DU?$char_traits@D@std@@V?$allocator@D@2@@std@@@Z$2 100504cb f   network_protocol_ext.obj
 0001:0004f4d3       __unwindfunclet$?NETPROTO_CreateRecursive@@YA_NV?$basic_string@DU?$char_traits@D@std@@V?$allocator@D@2@@std@@@Z$3 100504d3 f   network_protocol_ext.obj
 0001:0004f4db       __unwindfunclet$?NETPROTO_CreateRecursive@@YA_NV?$basic_string@DU?$char_traits@D@std@@V?$allocator@D@2@@std@@@Z$4 100504db f   network_protocol_ext.obj
 0001:0004f4e3       __ehhandler$?NETPROTO_CreateRecursive@@YA_NV?$basic_string@DU?$char_traits@D@std@@V?$allocator@D@2@@std@@@Z 100504e3 f   network_protocol_ext.obj
 0001:0004f50b       __unwindfunclet$?Cl_ProcessServerPacket@@YA_NAAVBinaryStream@@@Z$0 1005050b f   network_protocol_ext.obj
 0001:0004f513       __ehhandler$?Cl_ProcessServerPacket@@YA_NAAVBinaryStream@@@Z 10050513 f   network_protocol_ext.obj
 0001:0004f53b       __unwindfunclet$?NETPROTO_updater@@YAHPAUUpdaterInfo@@@Z$2 1005053b f   network_protocol_ext.obj
 0001:0004f546       __unwindfunclet$?NETPROTO_updater@@YAHPAUUpdaterInfo@@@Z$3 10050546 f   network_protocol_ext.obj
 0001:0004f54e       __unwindfunclet$?NETPROTO_updater@@YAHPAUUpdaterInfo@@@Z$4 1005054e f   network_protocol_ext.obj
 0001:0004f556       __unwindfunclet$?NETPROTO_updater@@YAHPAUUpdaterInfo@@@Z$6 10050556 f   network_protocol_ext.obj
 0001:0004f561       __unwindfunclet$?NETPROTO_updater@@YAHPAUUpdaterInfo@@@Z$7 10050561 f   network_protocol_ext.obj
 0001:0004f56c       __unwindfunclet$?NETPROTO_updater@@YAHPAUUpdaterInfo@@@Z$8 1005056c f   network_protocol_ext.obj
 0001:0004f574       __unwindfunclet$?NETPROTO_updater@@YAHPAUUpdaterInfo@@@Z$9 10050574 f   network_protocol_ext.obj
 0001:0004f57c       __unwindfunclet$?NETPROTO_updater@@YAHPAUUpdaterInfo@@@Z$11 1005057c f   network_protocol_ext.obj
 0001:0004f587       __unwindfunclet$?NETPROTO_updater@@YAHPAUUpdaterInfo@@@Z$12 10050587 f   network_protocol_ext.obj
 0001:0004f58f       __unwindfunclet$?NETPROTO_updater@@YAHPAUUpdaterInfo@@@Z$14 1005058f f   network_protocol_ext.obj
 0001:0004f597       __unwindfunclet$?NETPROTO_updater@@YAHPAUUpdaterInfo@@@Z$16 10050597 f   network_protocol_ext.obj
 0001:0004f59f       __unwindfunclet$?NETPROTO_updater@@YAHPAUUpdaterInfo@@@Z$17 1005059f f   network_protocol_ext.obj
 0001:0004f5a7       __unwindfunclet$?NETPROTO_updater@@YAHPAUUpdaterInfo@@@Z$18 100505a7 f   network_protocol_ext.obj
 0001:0004f5af       __unwindfunclet$?NETPROTO_updater@@YAHPAUUpdaterInfo@@@Z$19 100505af f   network_protocol_ext.obj
 0001:0004f5ba       __unwindfunclet$?NETPROTO_updater@@YAHPAUUpdaterInfo@@@Z$20 100505ba f   network_protocol_ext.obj
 0001:0004f5c2       __unwindfunclet$?NETPROTO_updater@@YAHPAUUpdaterInfo@@@Z$21 100505c2 f   network_protocol_ext.obj
 0001:0004f5cd       __unwindfunclet$?NETPROTO_updater@@YAHPAUUpdaterInfo@@@Z$22 100505cd f   network_protocol_ext.obj
 0001:0004f5d8       __unwindfunclet$?NETPROTO_updater@@YAHPAUUpdaterInfo@@@Z$24 100505d8 f   network_protocol_ext.obj
 0001:0004f5e3       __unwindfunclet$?NETPROTO_updater@@YAHPAUUpdaterInfo@@@Z$25 100505e3 f   network_protocol_ext.obj
 0001:0004f5eb       __unwindfunclet$?NETPROTO_updater@@YAHPAUUpdaterInfo@@@Z$26 100505eb f   network_protocol_ext.obj
 0001:0004f5f3       __unwindfunclet$?NETPROTO_updater@@YAHPAUUpdaterInfo@@@Z$27 100505f3 f   network_protocol_ext.obj
 0001:0004f5fe       __unwindfunclet$?NETPROTO_updater@@YAHPAUUpdaterInfo@@@Z$28 100505fe f   network_protocol_ext.obj
 0001:0004f606       __unwindfunclet$?NETPROTO_updater@@YAHPAUUpdaterInfo@@@Z$29 10050606 f   network_protocol_ext.obj
 0001:0004f611       __unwindfunclet$?NETPROTO_updater@@YAHPAUUpdaterInfo@@@Z$31 10050611 f   network_protocol_ext.obj
 0001:0004f619       __unwindfunclet$?NETPROTO_updater@@YAHPAUUpdaterInfo@@@Z$32 10050619 f   network_protocol_ext.obj
 0001:0004f624       __unwindfunclet$?NETPROTO_updater@@YAHPAUUpdaterInfo@@@Z$33 10050624 f   network_protocol_ext.obj
 0001:0004f62f       __ehhandler$?NETPROTO_updater@@YAHPAUUpdaterInfo@@@Z 1005062f f   network_protocol_ext.obj
 0001:0004f65a       __unwindfunclet$?NETPROTO_loginToHat@@YGHXZ$0 1005065a f   network_protocol_ext.obj
 0001:0004f665       __unwindfunclet$?NETPROTO_loginToHat@@YGHXZ$1 10050665 f   network_protocol_ext.obj
 0001:0004f66d       __unwindfunclet$?NETPROTO_loginToHat@@YGHXZ$3 1005066d f   network_protocol_ext.obj
 0001:0004f678       __unwindfunclet$?NETPROTO_loginToHat@@YGHXZ$5 10050678 f   network_protocol_ext.obj
 0001:0004f683       __unwindfunclet$?NETPROTO_loginToHat@@YGHXZ$7 10050683 f   network_protocol_ext.obj
 0001:0004f68b       __unwindfunclet$?NETPROTO_loginToHat@@YGHXZ$8 1005068b f   network_protocol_ext.obj
 0001:0004f693       __unwindfunclet$?NETPROTO_loginToHat@@YGHXZ$9 10050693 f   network_protocol_ext.obj
 0001:0004f69e       __unwindfunclet$?NETPROTO_loginToHat@@YGHXZ$10 1005069e f   network_protocol_ext.obj
 0001:0004f6a9       __unwindfunclet$?NETPROTO_loginToHat@@YGHXZ$12 100506a9 f   network_protocol_ext.obj
 0001:0004f6b4       __unwindfunclet$?NETPROTO_loginToHat@@YGHXZ$13 100506b4 f   network_protocol_ext.obj
 0001:0004f6bf       __unwindfunclet$?NETPROTO_loginToHat@@YGHXZ$14 100506bf f   network_protocol_ext.obj
 0001:0004f6c7       __unwindfunclet$?NETPROTO_loginToHat@@YGHXZ$15 100506c7 f   network_protocol_ext.obj
 0001:0004f6d2       __unwindfunclet$?NETPROTO_loginToHat@@YGHXZ$17 100506d2 f   network_protocol_ext.obj
 0001:0004f6dd       __unwindfunclet$?NETPROTO_loginToHat@@YGHXZ$19 100506dd f   network_protocol_ext.obj
 0001:0004f6e8       __unwindfunclet$?NETPROTO_loginToHat@@YGHXZ$21 100506e8 f   network_protocol_ext.obj
 0001:0004f6f3       __unwindfunclet$?NETPROTO_loginToHat@@YGHXZ$23 100506f3 f   network_protocol_ext.obj
 0001:0004f6fe       __unwindfunclet$?NETPROTO_loginToHat@@YGHXZ$25 100506fe f   network_protocol_ext.obj
 0001:0004f709       __unwindfunclet$?NETPROTO_loginToHat@@YGHXZ$27 10050709 f   network_protocol_ext.obj
 0001:0004f714       __unwindfunclet$?NETPROTO_loginToHat@@YGHXZ$28 10050714 f   network_protocol_ext.obj
 0001:0004f71f       __unwindfunclet$?NETPROTO_loginToHat@@YGHXZ$29 1005071f f   network_protocol_ext.obj
 0001:0004f72a       __ehhandler$?NETPROTO_loginToHat@@YGHXZ 1005072a f   network_protocol_ext.obj
 0001:0004f760       __unwindfunclet$?SaveToString@VersionFile@@QAE?AV?$basic_string@DU?$char_traits@D@std@@V?$allocator@D@2@@std@@XZ$0 10050760 f   network_protocol_ext.obj
 0001:0004f779       __unwindfunclet$?SaveToString@VersionFile@@QAE?AV?$basic_string@DU?$char_traits@D@std@@V?$allocator@D@2@@std@@XZ$1 10050779 f   network_protocol_ext.obj
 0001:0004f781       __unwindfunclet$?SaveToString@VersionFile@@QAE?AV?$basic_string@DU?$char_traits@D@std@@V?$allocator@D@2@@std@@XZ$2 10050781 f   network_protocol_ext.obj
 0001:0004f789       __unwindfunclet$?SaveToString@VersionFile@@QAE?AV?$basic_string@DU?$char_traits@D@std@@V?$allocator@D@2@@std@@XZ$3 10050789 f   network_protocol_ext.obj
 0001:0004f791       __ehhandler$?SaveToString@VersionFile@@QAE?AV?$basic_string@DU?$char_traits@D@std@@V?$allocator@D@2@@std@@XZ 10050791 f   network_protocol_ext.obj
 0001:0004f7b0       __unwindfunclet$?_Insert_n@?$vector@V?$CStringT@DV?$StrTraitATL@DV?$ChTraitsCRT@D@ATL@@@ATL@@@ATL@@V?$allocator@V?$CStringT@DV?$StrTraitATL@DV?$ChTraitsCRT@D@ATL@@@ATL@@@ATL@@@std@@@std@@IAEXV?$_Vector_iterator@V?$CStringT@DV?$StrTraitATL@DV?$ChTraitsCRT@D@ATL@@@ATL@@@ATL@@V?$allocator@V?$CStringT@DV?$StrTraitATL@DV?$ChTraitsCRT@D@ATL@@@ATL@@@ATL@@@std@@@2@IABV?$CStringT@DV?$StrTraitATL@DV?$ChTraitsCRT@D@ATL@@@ATL@@@ATL@@@Z$4 100507b0 f   network_protocol_ext.obj
 0001:0004f7b8       __ehhandler$?_Insert_n@?$vector@V?$CStringT@DV?$StrTraitATL@DV?$ChTraitsCRT@D@ATL@@@ATL@@@ATL@@V?$allocator@V?$CStringT@DV?$StrTraitATL@DV?$ChTraitsCRT@D@ATL@@@ATL@@@ATL@@@std@@@std@@IAEXV?$_Vector_iterator@V?$CStringT@DV?$StrTraitATL@DV?$ChTraitsCRT@D@ATL@@@ATL@@@ATL@@V?$allocator@V?$CStringT@DV?$StrTraitATL@DV?$ChTraitsCRT@D@ATL@@@ATL@@@ATL@@@std@@@2@IABV?$CStringT@DV?$StrTraitATL@DV?$ChTraitsCRT@D@ATL@@@ATL@@@ATL@@@Z 100507b8 f   network_protocol_ext.obj
 0001:0004f7e0       __unwindfunclet$?_Insert_n@?$vector@UVersionFileEntry@@V?$allocator@UVersionFileEntry@@@std@@@std@@IAEXV?$_Vector_iterator@UVersionFileEntry@@V?$allocator@UVersionFileEntry@@@std@@@2@IABUVersionFileEntry@@@Z$4 100507e0 f   network_protocol_ext.obj
 0001:0004f7e8       __ehhandler$?_Insert_n@?$vector@UVersionFileEntry@@V?$allocator@UVersionFileEntry@@@std@@@std@@IAEXV?$_Vector_iterator@UVersionFileEntry@@V?$allocator@UVersionFileEntry@@@std@@@2@IABUVersionFileEntry@@@Z 100507e8 f   network_protocol_ext.obj
 0001:0004f810       __unwindfunclet$?LoadFromString@VersionFile@@QAEXV?$basic_string@DU?$char_traits@D@std@@V?$allocator@D@2@@std@@@Z$0 10050810 f   network_protocol_ext.obj
 0001:0004f818       __unwindfunclet$?LoadFromString@VersionFile@@QAEXV?$basic_string@DU?$char_traits@D@std@@V?$allocator@D@2@@std@@@Z$1 10050818 f   network_protocol_ext.obj
 0001:0004f820       __unwindfunclet$?LoadFromString@VersionFile@@QAEXV?$basic_string@DU?$char_traits@D@std@@V?$allocator@D@2@@std@@@Z$2 10050820 f   network_protocol_ext.obj
 0001:0004f828       __unwindfunclet$?LoadFromString@VersionFile@@QAEXV?$basic_string@DU?$char_traits@D@std@@V?$allocator@D@2@@std@@@Z$4 10050828 f   network_protocol_ext.obj
 0001:0004f830       __unwindfunclet$?LoadFromString@VersionFile@@QAEXV?$basic_string@DU?$char_traits@D@std@@V?$allocator@D@2@@std@@@Z$5 10050830 f   network_protocol_ext.obj
 0001:0004f838       __unwindfunclet$?LoadFromString@VersionFile@@QAEXV?$basic_string@DU?$char_traits@D@std@@V?$allocator@D@2@@std@@@Z$6 10050838 f   network_protocol_ext.obj
 0001:0004f843       __unwindfunclet$?LoadFromString@VersionFile@@QAEXV?$basic_string@DU?$char_traits@D@std@@V?$allocator@D@2@@std@@@Z$7 10050843 f   network_protocol_ext.obj
 0001:0004f84e       __unwindfunclet$?LoadFromString@VersionFile@@QAEXV?$basic_string@DU?$char_traits@D@std@@V?$allocator@D@2@@std@@@Z$9 1005084e f   network_protocol_ext.obj
 0001:0004f856       __unwindfunclet$?LoadFromString@VersionFile@@QAEXV?$basic_string@DU?$char_traits@D@std@@V?$allocator@D@2@@std@@@Z$10 10050856 f   network_protocol_ext.obj
 0001:0004f861       __unwindfunclet$?LoadFromString@VersionFile@@QAEXV?$basic_string@DU?$char_traits@D@std@@V?$allocator@D@2@@std@@@Z$12 10050861 f   network_protocol_ext.obj
 0001:0004f869       __ehhandler$?LoadFromString@VersionFile@@QAEXV?$basic_string@DU?$char_traits@D@std@@V?$allocator@D@2@@std@@@Z 10050869 f   network_protocol_ext.obj
 0001:0004f890       __unwindfunclet$?TestMap@@YG_NPBD@Z$0 10050890 f   resource_control.obj
 0001:0004f898       __unwindfunclet$?TestMap@@YG_NPBD@Z$1 10050898 f   resource_control.obj
 0001:0004f8a0       __unwindfunclet$?TestMap@@YG_NPBD@Z$2 100508a0 f   resource_control.obj
 0001:0004f8a8       __ehhandler$?TestMap@@YG_NPBD@Z 100508a8 f   resource_control.obj
 0001:0004f8d0       __unwindfunclet$?SCREENSHOT_takeManual@@YAXXZ$0 100508d0 f   screenshot.obj
 0001:0004f8d8       __unwindfunclet$?SCREENSHOT_takeManual@@YAXXZ$1 100508d8 f   screenshot.obj
 0001:0004f8e0       __unwindfunclet$?SCREENSHOT_takeManual@@YAXXZ$3 100508e0 f   screenshot.obj
 0001:0004f8e8       __unwindfunclet$?SCREENSHOT_takeManual@@YAXXZ$4 100508e8 f   screenshot.obj
 0001:0004f8f0       __ehhandler$?SCREENSHOT_takeManual@@YAXXZ 100508f0 f   screenshot.obj
 0001:0004f91e       __ehhandler$?SCREENSHOT_take@@YAXXZ 1005091e f   screenshot.obj
 0001:0004f950       __unwindfunclet$??1?$basic_ofstream@DU?$char_traits@D@std@@@std@@UAE@XZ$0 10050950 f   serialize.obj
 0001:0004f95b       __ehhandler$??1?$basic_ofstream@DU?$char_traits@D@std@@@std@@UAE@XZ 1005095b f   serialize.obj
 0001:0004f980       __unwindfunclet$??0sentry@?$basic_ostream@DU?$char_traits@D@std@@@std@@QAE@AAV12@@Z$0 10050980 f   serialize.obj
 0001:0004f988       __ehhandler$??0sentry@?$basic_ostream@DU?$char_traits@D@std@@@std@@QAE@AAV12@@Z 10050988 f   serialize.obj
 0001:0004f9b0       __ehhandler$?_Osfx@?$basic_ostream@DU?$char_traits@D@std@@@std@@QAEXXZ 100509b0 f   serialize.obj
 0001:0004f9d0       __unwindfunclet$?write@?$basic_ostream@DU?$char_traits@D@std@@@std@@QAEAAV12@PBDH@Z$2 100509d0 f   serialize.obj
 0001:0004f9d8       __ehhandler$?write@?$basic_ostream@DU?$char_traits@D@std@@@std@@QAEAAV12@PBDH@Z 100509d8 f   serialize.obj
 0001:0004fa00       __unwindfunclet$??0?$basic_ofstream@DU?$char_traits@D@std@@@std@@QAE@XZ$0 10050a00 f   serialize.obj
 0001:0004fa1c       __unwindfunclet$??0?$basic_ofstream@DU?$char_traits@D@std@@@std@@QAE@XZ$1 10050a1c f   serialize.obj
 0001:0004fa27       __ehhandler$??0?$basic_ofstream@DU?$char_traits@D@std@@@std@@QAE@XZ 10050a27 f   serialize.obj
 0001:0004fa50       __unwindfunclet$?SaveToFile@CArchive@@QAEXV?$basic_string@DU?$char_traits@D@std@@V?$allocator@D@2@@std@@@Z$0 10050a50 f   serialize.obj
 0001:0004fa58       __unwindfunclet$?SaveToFile@CArchive@@QAEXV?$basic_string@DU?$char_traits@D@std@@V?$allocator@D@2@@std@@@Z$1 10050a58 f   serialize.obj
 0001:0004fa63       __ehhandler$?SaveToFile@CArchive@@QAEXV?$basic_string@DU?$char_traits@D@std@@V?$allocator@D@2@@std@@@Z 10050a63 f   serialize.obj
 0001:0004fa84       __unwindfunclet$?LoadFromFile@CArchive@@QAEXV?$basic_string@DU?$char_traits@D@std@@V?$allocator@D@2@@std@@@Z$0 10050a84 f   serialize.obj
 0001:0004fa8c       __unwindfunclet$?LoadFromFile@CArchive@@QAEXV?$basic_string@DU?$char_traits@D@std@@V?$allocator@D@2@@std@@@Z$1 10050a8c f   serialize.obj
 0001:0004fa97       __ehhandler$?LoadFromFile@CArchive@@QAEXV?$basic_string@DU?$char_traits@D@std@@V?$allocator@D@2@@std@@@Z 10050a97 f   serialize.obj
 0001:0004fac0       __unwindfunclet$?Basename@@YA?AV?$basic_string@DU?$char_traits@D@std@@V?$allocator@D@2@@std@@ABV12@@Z$0 10050ac0 f   utils.obj
 0001:0004fac8       __ehhandler$?Basename@@YA?AV?$basic_string@DU?$char_traits@D@std@@V?$allocator@D@2@@std@@ABV12@@Z 10050ac8 f   utils.obj
 0001:0004faf0       __unwindfunclet$?Dirname@@YA?AV?$basic_string@DU?$char_traits@D@std@@V?$allocator@D@2@@std@@ABV12@@Z$0 10050af0 f   utils.obj
 0001:0004faf8       __ehhandler$?Dirname@@YA?AV?$basic_string@DU?$char_traits@D@std@@V?$allocator@D@2@@std@@ABV12@@Z 10050af8 f   utils.obj
 0001:0004fb20       __unwindfunclet$?TruncateSlashes@@YA?AV?$basic_string@DU?$char_traits@D@std@@V?$allocator@D@2@@std@@ABV12@@Z$0 10050b20 f   utils.obj
 0001:0004fb39       __ehhandler$?TruncateSlashes@@YA?AV?$basic_string@DU?$char_traits@D@std@@V?$allocator@D@2@@std@@ABV12@@Z 10050b39 f   utils.obj
 0001:0004fb54       __unwindfunclet$?Format@@YA?AV?$basic_string@DU?$char_traits@D@std@@V?$allocator@D@2@@std@@V12@ZZ$0 10050b54 f   utils.obj
 0001:0004fb5c       __ehhandler$?Format@@YA?AV?$basic_string@DU?$char_traits@D@std@@V?$allocator@D@2@@std@@V12@ZZ 10050b5c f   utils.obj
 0001:0004fb8a       __unwindfunclet$?TrimLeft@@YA?AV?$basic_string@DU?$char_traits@D@std@@V?$allocator@D@2@@std@@ABV12@P6A_ND@Z@Z$0 10050b8a f   utils.obj
 0001:0004fb92       __ehhandler$?TrimLeft@@YA?AV?$basic_string@DU?$char_traits@D@std@@V?$allocator@D@2@@std@@ABV12@P6A_ND@Z@Z 10050b92 f   utils.obj
 0001:0004fbba       __unwindfunclet$?TrimRight@@YA?AV?$basic_string@DU?$char_traits@D@std@@V?$allocator@D@2@@std@@ABV12@P6A_ND@Z@Z$0 10050bba f   utils.obj
 0001:0004fbc2       __ehhandler$?TrimRight@@YA?AV?$basic_string@DU?$char_traits@D@std@@V?$allocator@D@2@@std@@ABV12@P6A_ND@Z@Z 10050bc2 f   utils.obj
 0001:0004fbea       __unwindfunclet$?Trim@@YA?AV?$basic_string@DU?$char_traits@D@std@@V?$allocator@D@2@@std@@ABV12@P6A_ND@Z@Z$0 10050bea f   utils.obj
 0001:0004fbf2       __ehhandler$?Trim@@YA?AV?$basic_string@DU?$char_traits@D@std@@V?$allocator@D@2@@std@@ABV12@P6A_ND@Z@Z 10050bf2 f   utils.obj
 0001:0004fc0d       __unwindfunclet$?StrToBoolean@@YA_NABV?$basic_string@DU?$char_traits@D@std@@V?$allocator@D@2@@std@@@Z$0 10050c0d f   utils.obj
 0001:0004fc15       __unwindfunclet$?StrToBoolean@@YA_NABV?$basic_string@DU?$char_traits@D@std@@V?$allocator@D@2@@std@@@Z$1 10050c15 f   utils.obj
 0001:0004fc1d       __ehhandler$?StrToBoolean@@YA_NABV?$basic_string@DU?$char_traits@D@std@@V?$allocator@D@2@@std@@@Z 10050c1d f   utils.obj
 0001:0004fc45       __unwindfunclet$?FileExists@@YA_NABV?$basic_string@DU?$char_traits@D@std@@V?$allocator@D@2@@std@@@Z$0 10050c45 f   utils.obj
 0001:0004fc50       __ehhandler$?FileExists@@YA_NABV?$basic_string@DU?$char_traits@D@std@@V?$allocator@D@2@@std@@@Z 10050c50 f   utils.obj
 0001:0004fc71       __unwindfunclet$?ParseCommandLine@@YA?AV?$vector@V?$basic_string@DU?$char_traits@D@std@@V?$allocator@D@2@@std@@V?$allocator@V?$basic_string@DU?$char_traits@D@std@@V?$allocator@D@2@@std@@@2@@std@@V?$basic_string@DU?$char_traits@D@std@@V?$allocator@D@2@@2@@Z$0 10050c71 f   utils.obj
 0001:0004fc79       __unwindfunclet$?ParseCommandLine@@YA?AV?$vector@V?$basic_string@DU?$char_traits@D@std@@V?$allocator@D@2@@std@@V?$allocator@V?$basic_string@DU?$char_traits@D@std@@V?$allocator@D@2@@std@@@2@@std@@V?$basic_string@DU?$char_traits@D@std@@V?$allocator@D@2@@2@@Z$1 10050c79 f   utils.obj
 0001:0004fc92       __unwindfunclet$?ParseCommandLine@@YA?AV?$vector@V?$basic_string@DU?$char_traits@D@std@@V?$allocator@D@2@@std@@V?$allocator@V?$basic_string@DU?$char_traits@D@std@@V?$allocator@D@2@@std@@@2@@std@@V?$basic_string@DU?$char_traits@D@std@@V?$allocator@D@2@@2@@Z$2 10050c92 f   utils.obj
 0001:0004fc9a       __unwindfunclet$?ParseCommandLine@@YA?AV?$vector@V?$basic_string@DU?$char_traits@D@std@@V?$allocator@D@2@@std@@V?$allocator@V?$basic_string@DU?$char_traits@D@std@@V?$allocator@D@2@@std@@@2@@std@@V?$basic_string@DU?$char_traits@D@std@@V?$allocator@D@2@@2@@Z$3 10050c9a f   utils.obj
 0001:0004fca2       __ehhandler$?ParseCommandLine@@YA?AV?$vector@V?$basic_string@DU?$char_traits@D@std@@V?$allocator@D@2@@std@@V?$allocator@V?$basic_string@DU?$char_traits@D@std@@V?$allocator@D@2@@std@@@2@@std@@V?$basic_string@DU?$char_traits@D@std@@V?$allocator@D@2@@2@@Z 10050ca2 f   utils.obj
 0001:0004fcbd       __unwindfunclet$?Explode@@YA?AV?$vector@V?$basic_string@DU?$char_traits@D@std@@V?$allocator@D@2@@std@@V?$allocator@V?$basic_string@DU?$char_traits@D@std@@V?$allocator@D@2@@std@@@2@@std@@ABV?$basic_string@DU?$char_traits@D@std@@V?$allocator@D@2@@2@0@Z$0 10050cbd f   utils.obj
 0001:0004fcc5       __unwindfunclet$?Explode@@YA?AV?$vector@V?$basic_string@DU?$char_traits@D@std@@V?$allocator@D@2@@std@@V?$allocator@V?$basic_string@DU?$char_traits@D@std@@V?$allocator@D@2@@std@@@2@@std@@ABV?$basic_string@DU?$char_traits@D@std@@V?$allocator@D@2@@2@0@Z$1 10050cc5 f   utils.obj
 0001:0004fcde       __ehhandler$?Explode@@YA?AV?$vector@V?$basic_string@DU?$char_traits@D@std@@V?$allocator@D@2@@std@@V?$allocator@V?$basic_string@DU?$char_traits@D@std@@V?$allocator@D@2@@std@@@2@@std@@ABV?$basic_string@DU?$char_traits@D@std@@V?$allocator@D@2@@2@0@Z 10050cde f   utils.obj
 0001:0004fd10       __unwindfunclet$??$?6U?$char_traits@D@std@@@std@@YAAAV?$basic_ostream@DU?$char_traits@D@std@@@0@AAV10@PBD@Z$2 10050d10 f   utils.obj
 0001:0004fd18       __ehhandler$??$?6U?$char_traits@D@std@@@std@@YAAAV?$basic_ostream@DU?$char_traits@D@std@@@0@AAV10@PBD@Z 10050d18 f   utils.obj
 0001:0004fd40       __unwindfunclet$?get_res@@YGXPAH0@Z$1 10050d40 f   video_init.obj
 0001:0004fd4b       __ehhandler$?get_res@@YGXPAH0@Z 10050d4b f   video_init.obj
 0001:0004fd80       __unwindfunclet$??0?$pair@$$CBV?$basic_string@DU?$char_traits@D@std@@V?$allocator@D@2@@std@@V12@@std@@QAE@ABV?$basic_string@DU?$char_traits@D@std@@V?$allocator@D@2@@1@0@Z$0 10050d80 f   happyhttp.obj
 0001:0004fd88       __ehhandler$??0?$pair@$$CBV?$basic_string@DU?$char_traits@D@std@@V?$allocator@D@2@@std@@V12@@std@@QAE@ABV?$basic_string@DU?$char_traits@D@std@@V?$allocator@D@2@@1@0@Z 10050d88 f   happyhttp.obj
 0001:0004fdb0       __unwindfunclet$??0?$pair@$$CBV?$basic_string@DU?$char_traits@D@std@@V?$allocator@D@2@@std@@V12@@std@@QAE@ABU01@@Z$0 10050db0 f   happyhttp.obj
 0001:0004fdb8       __ehhandler$??0?$pair@$$CBV?$basic_string@DU?$char_traits@D@std@@V?$allocator@D@2@@std@@V12@@std@@QAE@ABU01@@Z 10050db8 f   happyhttp.obj
 0001:0004fde0       __unwindfunclet$?ProcessStatusLine@Response@happyhttp@@AAEXABV?$basic_string@DU?$char_traits@D@std@@V?$allocator@D@2@@std@@@Z$0 10050de0 f   happyhttp.obj
 0001:0004fde8       __ehhandler$?ProcessStatusLine@Response@happyhttp@@AAEXABV?$basic_string@DU?$char_traits@D@std@@V?$allocator@D@2@@std@@@Z 10050de8 f   happyhttp.obj
 0001:0004fe16       __unwindfunclet$?getheader@Response@happyhttp@@QBEPBDPBD@Z$0 10050e16 f   happyhttp.obj
 0001:0004fe1e       __ehhandler$?getheader@Response@happyhttp@@QBEPBDPBD@Z 10050e1e f   happyhttp.obj
 0001:0004fe46       __unwindfunclet$??0Connection@happyhttp@@QAE@PBDH@Z$0 10050e46 f   happyhttp.obj
 0001:0004fe51       __ehhandler$??0Connection@happyhttp@@QAE@PBDH@Z 10050e51 f   happyhttp.obj
 0001:0004fe6c       __unwindfunclet$?FlushHeader@Response@happyhttp@@AAEXXZ$0 10050e6c f   happyhttp.obj
 0001:0004fe74       __unwindfunclet$?FlushHeader@Response@happyhttp@@AAEXXZ$1 10050e74 f   happyhttp.obj
 0001:0004fe7c       __ehhandler$?FlushHeader@Response@happyhttp@@AAEXXZ 10050e7c f   happyhttp.obj
 0001:0004fea4       __unwindfunclet$??0Response@happyhttp@@IAE@PBDAAVConnection@1@@Z$0 10050ea4 f   happyhttp.obj
 0001:0004feaf       __unwindfunclet$??0Response@happyhttp@@IAE@PBDAAVConnection@1@@Z$1 10050eaf f   happyhttp.obj
 0001:0004feba       __unwindfunclet$??0Response@happyhttp@@IAE@PBDAAVConnection@1@@Z$2 10050eba f   happyhttp.obj
 0001:0004fec5       __ehhandler$??0Response@happyhttp@@IAE@PBDAAVConnection@1@@Z 10050ec5 f   happyhttp.obj
 0001:0004fee0       __unwindfunclet$?putheader@Connection@happyhttp@@QAEXPBD0@Z$0 10050ee0 f   happyhttp.obj
 0001:0004feeb       __unwindfunclet$?putheader@Connection@happyhttp@@QAEXPBD0@Z$1 10050eeb f   happyhttp.obj
 0001:0004fef6       __unwindfunclet$?putheader@Connection@happyhttp@@QAEXPBD0@Z$2 10050ef6 f   happyhttp.obj
 0001:0004ff01       __unwindfunclet$?putheader@Connection@happyhttp@@QAEXPBD0@Z$3 10050f01 f   happyhttp.obj
 0001:0004ff0c       __ehhandler$?putheader@Connection@happyhttp@@QAEXPBD0@Z 10050f0c f   happyhttp.obj
 0001:0004ff2d       __unwindfunclet$?endheaders@Connection@happyhttp@@QAEXXZ$0 10050f2d f   happyhttp.obj
 0001:0004ff38       __unwindfunclet$?endheaders@Connection@happyhttp@@QAEXXZ$1 10050f38 f   happyhttp.obj
 0001:0004ff40       __unwindfunclet$?endheaders@Connection@happyhttp@@QAEXXZ$2 10050f40 f   happyhttp.obj
 0001:0004ff4b       __ehhandler$?endheaders@Connection@happyhttp@@QAEXXZ 10050f4b f   happyhttp.obj
 0001:0004ff79       __unwindfunclet$??1Connection@happyhttp@@QAE@XZ$0 10050f79 f   happyhttp.obj
 0001:0004ff84       __unwindfunclet$??1Connection@happyhttp@@QAE@XZ$1 10050f84 f   happyhttp.obj
 0001:0004ff8f       __unwindfunclet$??1Connection@happyhttp@@QAE@XZ$2 10050f8f f   happyhttp.obj
 0001:0004ff9a       __ehhandler$??1Connection@happyhttp@@QAE@XZ 10050f9a f   happyhttp.obj
 0001:0004ffb5       __unwindfunclet$?putrequest@Connection@happyhttp@@QAEXPBD0@Z$0 10050fb5 f   happyhttp.obj
 0001:0004ffc0       __unwindfunclet$?putrequest@Connection@happyhttp@@QAEXPBD0@Z$1 10050fc0 f   happyhttp.obj
 0001:0004ffce       __ehhandler$?putrequest@Connection@happyhttp@@QAEXPBD0@Z 10050fce f   happyhttp.obj
 0001:00050000       __unwindfunclet$?_Xlen@?$vector@EV?$allocator@E@std@@@std@@KAXXZ$0 10051000 f   happyhttp.obj
 0001:00050000       __unwindfunclet$?_Xlen@?$vector@UIPFEntry@IPFilter@@V?$allocator@UIPFEntry@IPFilter@@@std@@@std@@KAXXZ$0 10051000 f   happyhttp.obj
 0001:00050000       __unwindfunclet$?_Xlen@?$vector@UIImageUse@@V?$allocator@UIImageUse@@@std@@@std@@KAXXZ$0 10051000 f   happyhttp.obj
 0001:00050000       __unwindfunclet$?_Xlen@?$vector@VBinaryStream@@V?$allocator@VBinaryStream@@@std@@@std@@KAXXZ$0 10051000 f   happyhttp.obj
 0001:00050000       __unwindfunclet$?_Xlen@?$vector@URecord@FileArchive@@V?$allocator@URecord@FileArchive@@@std@@@std@@KAXXZ$0 10051000 f   happyhttp.obj
 0001:00050000       __unwindfunclet$?_Xlen@?$vector@IV?$allocator@I@std@@@std@@KAXXZ$0 10051000 f   happyhttp.obj
 0001:00050000       __unwindfunclet$?_Xlen@?$vector@UVersionFileEntry@@V?$allocator@UVersionFileEntry@@@std@@@std@@KAXXZ$0 10051000 f   happyhttp.obj
 0001:00050000       __unwindfunclet$?_Xlen@?$vector@V?$CStringT@DV?$StrTraitATL@DV?$ChTraitsCRT@D@ATL@@@ATL@@@ATL@@V?$allocator@V?$CStringT@DV?$StrTraitATL@DV?$ChTraitsCRT@D@ATL@@@ATL@@@ATL@@@std@@@std@@KAXXZ$0 10051000 f   happyhttp.obj
 0001:00050000       __unwindfunclet$?_Xlen@?$vector@V?$basic_string@DU?$char_traits@D@std@@V?$allocator@D@2@@std@@V?$allocator@V?$basic_string@DU?$char_traits@D@std@@V?$allocator@D@2@@std@@@2@@std@@KAXXZ$0 10051000 f   happyhttp.obj
 0001:00050000       __unwindfunclet$?_Xlen@?$vector@V?$vector@V?$basic_string@DU?$char_traits@D@std@@V?$allocator@D@2@@std@@V?$allocator@V?$basic_string@DU?$char_traits@D@std@@V?$allocator@D@2@@std@@@2@@std@@V?$allocator@V?$vector@V?$basic_string@DU?$char_traits@D@std@@V?$allocator@D@2@@std@@V?$allocator@V?$basic_string@DU?$char_traits@D@std@@V?$allocator@D@2@@std@@@2@@std@@@2@@std@@KAXXZ$0 10051000 f   happyhttp.obj
 0001:00050000       __unwindfunclet$?_Xlen@?$vector@PAURecord@FileArchive@@V?$allocator@PAURecord@FileArchive@@@std@@@std@@KAXXZ$0 10051000 f   happyhttp.obj
 0001:00050000       __unwindfunclet$?_Xlen@?$deque@PAVResponse@happyhttp@@V?$allocator@PAVResponse@happyhttp@@@std@@@std@@KAXXZ$0 10051000 f   happyhttp.obj
 0001:00050008       __ehhandler$?_Xlen@?$vector@IV?$allocator@I@std@@@std@@KAXXZ 10051008 f   happyhttp.obj
 0001:00050008       __ehhandler$?_Xlen@?$vector@PAURecord@FileArchive@@V?$allocator@PAURecord@FileArchive@@@std@@@std@@KAXXZ 10051008 f   happyhttp.obj
 0001:00050008       __ehhandler$?_Xlen@?$vector@V?$basic_string@DU?$char_traits@D@std@@V?$allocator@D@2@@std@@V?$allocator@V?$basic_string@DU?$char_traits@D@std@@V?$allocator@D@2@@std@@@2@@std@@KAXXZ 10051008 f   happyhttp.obj
 0001:00050008       __ehhandler$?_Xlen@?$vector@UVersionFileEntry@@V?$allocator@UVersionFileEntry@@@std@@@std@@KAXXZ 10051008 f   happyhttp.obj
 0001:00050008       __ehhandler$?_Xlen@?$vector@V?$CStringT@DV?$StrTraitATL@DV?$ChTraitsCRT@D@ATL@@@ATL@@@ATL@@V?$allocator@V?$CStringT@DV?$StrTraitATL@DV?$ChTraitsCRT@D@ATL@@@ATL@@@ATL@@@std@@@std@@KAXXZ 10051008 f   happyhttp.obj
 0001:00050008       __ehhandler$?_Xlen@?$vector@EV?$allocator@E@std@@@std@@KAXXZ 10051008 f   happyhttp.obj
 0001:00050008       __ehhandler$?_Xlen@?$vector@URecord@FileArchive@@V?$allocator@URecord@FileArchive@@@std@@@std@@KAXXZ 10051008 f   happyhttp.obj
 0001:00050008       __ehhandler$?_Xlen@?$vector@VBinaryStream@@V?$allocator@VBinaryStream@@@std@@@std@@KAXXZ 10051008 f   happyhttp.obj
 0001:00050008       __ehhandler$?_Xlen@?$vector@UIPFEntry@IPFilter@@V?$allocator@UIPFEntry@IPFilter@@@std@@@std@@KAXXZ 10051008 f   happyhttp.obj
 0001:00050008       __ehhandler$?_Xlen@?$deque@PAVResponse@happyhttp@@V?$allocator@PAVResponse@happyhttp@@@std@@@std@@KAXXZ 10051008 f   happyhttp.obj
 0001:00050008       __ehhandler$?_Xlen@?$vector@V?$vector@V?$basic_string@DU?$char_traits@D@std@@V?$allocator@D@2@@std@@V?$allocator@V?$basic_string@DU?$char_traits@D@std@@V?$allocator@D@2@@std@@@2@@std@@V?$allocator@V?$vector@V?$basic_string@DU?$char_traits@D@std@@V?$allocator@D@2@@std@@V?$allocator@V?$basic_string@DU?$char_traits@D@std@@V?$allocator@D@2@@std@@@2@@std@@@2@@std@@KAXXZ 10051008 f   happyhttp.obj
 0001:00050008       __ehhandler$?_Xlen@?$vector@UIImageUse@@V?$allocator@UIImageUse@@@std@@@std@@KAXXZ 10051008 f   happyhttp.obj
 0001:00050030       __unwindfunclet$?_Buynode@?$_Tree@V?$_Tmap_traits@V?$basic_string@DU?$char_traits@D@std@@V?$allocator@D@2@@std@@V12@U?$less@V?$basic_string@DU?$char_traits@D@std@@V?$allocator@D@2@@std@@@2@V?$allocator@U?$pair@$$CBV?$basic_string@DU?$char_traits@D@std@@V?$allocator@D@2@@std@@V12@@std@@@2@$0A@@std@@@std@@IAEPAU_Node@?$_Tree_nod@V?$_Tmap_traits@V?$basic_string@DU?$char_traits@D@std@@V?$allocator@D@2@@std@@V12@U?$less@V?$basic_string@DU?$char_traits@D@std@@V?$allocator@D@2@@std@@@2@V?$allocator@U?$pair@$$CBV?$basic_string@DU?$char_traits@D@std@@V?$allocator@D@2@@std@@V12@@std@@@2@$0A@@std@@@2@PAU342@00ABU?$pair@$$CBV?$basic_string@DU?$char_traits@D@std@@V?$allocator@D@2@@std@@V12@@2@D@Z$2 10051030 f   happyhttp.obj
 0001:00050041       __ehhandler$?_Buynode@?$_Tree@V?$_Tmap_traits@V?$basic_string@DU?$char_traits@D@std@@V?$allocator@D@2@@std@@V12@U?$less@V?$basic_string@DU?$char_traits@D@std@@V?$allocator@D@2@@std@@@2@V?$allocator@U?$pair@$$CBV?$basic_string@DU?$char_traits@D@std@@V?$allocator@D@2@@std@@V12@@std@@@2@$0A@@std@@@std@@IAEPAU_Node@?$_Tree_nod@V?$_Tmap_traits@V?$basic_string@DU?$char_traits@D@std@@V?$allocator@D@2@@std@@V12@U?$less@V?$basic_string@DU?$char_traits@D@std@@V?$allocator@D@2@@std@@@2@V?$allocator@U?$pair@$$CBV?$basic_string@DU?$char_traits@D@std@@V?$allocator@D@2@@std@@V12@@std@@@2@$0A@@std@@@2@PAU342@00ABU?$pair@$$CBV?$basic_string@DU?$char_traits@D@std@@V?$allocator@D@2@@std@@V12@@2@D@Z 10051041 f   happyhttp.obj
 0001:00050060       __unwindfunclet$??A?$map@V?$basic_string@DU?$char_traits@D@std@@V?$allocator@D@2@@std@@V12@U?$less@V?$basic_string@DU?$char_traits@D@std@@V?$allocator@D@2@@std@@@2@V?$allocator@U?$pair@$$CBV?$basic_string@DU?$char_traits@D@std@@V?$allocator@D@2@@std@@V12@@std@@@2@@std@@QAEAAV?$basic_string@DU?$char_traits@D@std@@V?$allocator@D@2@@1@ABV21@@Z$0 10051060 f   happyhttp.obj
 0001:00050068       __unwindfunclet$??A?$map@V?$basic_string@DU?$char_traits@D@std@@V?$allocator@D@2@@std@@V12@U?$less@V?$basic_string@DU?$char_traits@D@std@@V?$allocator@D@2@@std@@@2@V?$allocator@U?$pair@$$CBV?$basic_string@DU?$char_traits@D@std@@V?$allocator@D@2@@std@@V12@@std@@@2@@std@@QAEAAV?$basic_string@DU?$char_traits@D@std@@V?$allocator@D@2@@1@ABV21@@Z$1 10051068 f   happyhttp.obj
 0001:00050070       __ehhandler$??A?$map@V?$basic_string@DU?$char_traits@D@std@@V?$allocator@D@2@@std@@V12@U?$less@V?$basic_string@DU?$char_traits@D@std@@V?$allocator@D@2@@std@@@2@V?$allocator@U?$pair@$$CBV?$basic_string@DU?$char_traits@D@std@@V?$allocator@D@2@@std@@V12@@std@@@2@@std@@QAEAAV?$basic_string@DU?$char_traits@D@std@@V?$allocator@D@2@@1@ABV21@@Z 10051070 f   happyhttp.obj
 0001:00050090       __unwindfunclet$??1Response@happyhttp@@QAE@XZ$0 10051090 f   happyhttp.obj
 0001:0005009b       __unwindfunclet$??1Response@happyhttp@@QAE@XZ$1 1005109b f   happyhttp.obj
 0001:000500a6       __unwindfunclet$??1Response@happyhttp@@QAE@XZ$2 100510a6 f   happyhttp.obj
 0001:000500b1       __ehhandler$??1Response@happyhttp@@QAE@XZ 100510b1 f   happyhttp.obj
 0001:000500d0       __unwindfunclet$?lodepng_encode_memory@@YAIPAPAEPAIPBEIIW4LodePNGColorType@@I@Z$0 100510d0 f   lodepng.obj
 0001:000500db       __ehhandler$?lodepng_encode_memory@@YAIPAPAEPAIPBEIIW4LodePNGColorType@@I@Z 100510db f   lodepng.obj
 0001:000500fc       __unwindfunclet$?lodepng_decode_memory@@YAIPAPAEPAI1PBEIW4LodePNGColorType@@I@Z$0 100510fc f   lodepng.obj
 0001:00050107       __ehhandler$?lodepng_decode_memory@@YAIPAPAEPAI1PBEIW4LodePNGColorType@@I@Z 10051107 f   lodepng.obj
 0001:00050128       __unwindfunclet$?decode@lodepng@@YAIAAV?$vector@EV?$allocator@E@std@@@std@@AAI1PBEIW4LodePNGColorType@@I@Z$0 10051128 f   lodepng.obj
 0001:00050133       __ehhandler$?decode@lodepng@@YAIAAV?$vector@EV?$allocator@E@std@@@std@@AAI1PBEIW4LodePNGColorType@@I@Z 10051133 f   lodepng.obj
 0001:00050154       __unwindfunclet$?load_file@lodepng@@YAXAAV?$vector@EV?$allocator@E@std@@@std@@ABV?$basic_string@DU?$char_traits@D@std@@V?$allocator@D@2@@3@@Z$0 10051154 f   lodepng.obj
 0001:0005015f       __ehhandler$?load_file@lodepng@@YAXAAV?$vector@EV?$allocator@E@std@@@std@@ABV?$basic_string@DU?$char_traits@D@std@@V?$allocator@D@2@@3@@Z 1005115f f   lodepng.obj
 0001:00050180       __unwindfunclet$?save_file@lodepng@@YAXABV?$vector@EV?$allocator@E@std@@@std@@ABV?$basic_string@DU?$char_traits@D@std@@V?$allocator@D@2@@3@@Z$0 10051180 f   lodepng.obj
 0001:0005018b       __ehhandler$?save_file@lodepng@@YAXABV?$vector@EV?$allocator@E@std@@@std@@ABV?$basic_string@DU?$char_traits@D@std@@V?$allocator@D@2@@3@@Z 1005118b f   lodepng.obj
 0001:000501ac       __unwindfunclet$?decode@lodepng@@YAIAAV?$vector@EV?$allocator@E@std@@@std@@AAI1ABV?$basic_string@DU?$char_traits@D@std@@V?$allocator@D@2@@3@W4LodePNGColorType@@I@Z$0 100511ac f   lodepng.obj
 0001:000501b4       __ehhandler$?decode@lodepng@@YAIAAV?$vector@EV?$allocator@E@std@@@std@@AAI1ABV?$basic_string@DU?$char_traits@D@std@@V?$allocator@D@2@@3@W4LodePNGColorType@@I@Z 100511b4 f   lodepng.obj
 0001:000501cf       __unwindfunclet$?encode@lodepng@@YAIABV?$basic_string@DU?$char_traits@D@std@@V?$allocator@D@2@@std@@PBEIIW4LodePNGColorType@@I@Z$0 100511cf f   lodepng.obj
 0001:000501d7       __ehhandler$?encode@lodepng@@YAIABV?$basic_string@DU?$char_traits@D@std@@V?$allocator@D@2@@std@@PBEIIW4LodePNGColorType@@I@Z 100511d7 f   lodepng.obj
 0001:00050200       __unwindfunclet$??0?$basic_ifstream@DU?$char_traits@D@std@@@std@@QAE@PBDHH@Z$0 10051200 f   lodepng.obj
 0001:0005021c       __unwindfunclet$??0?$basic_ifstream@DU?$char_traits@D@std@@@std@@QAE@PBDHH@Z$1 1005121c f   lodepng.obj
 0001:00050227       __unwindfunclet$??0?$basic_ifstream@DU?$char_traits@D@std@@@std@@QAE@PBDHH@Z$2 10051227 f   lodepng.obj
 0001:00050232       __ehhandler$??0?$basic_ifstream@DU?$char_traits@D@std@@@std@@QAE@PBDHH@Z 10051232 f   lodepng.obj
 0001:00050250       __unwindfunclet$??0?$basic_ofstream@DU?$char_traits@D@std@@@std@@QAE@PBDHH@Z$0 10051250 f   lodepng.obj
 0001:0005026c       __unwindfunclet$??0?$basic_ofstream@DU?$char_traits@D@std@@@std@@QAE@PBDHH@Z$1 1005126c f   lodepng.obj
 0001:00050277       __unwindfunclet$??0?$basic_ofstream@DU?$char_traits@D@std@@@std@@QAE@PBDHH@Z$2 10051277 f   lodepng.obj
 0001:00050282       __ehhandler$??0?$basic_ofstream@DU?$char_traits@D@std@@@std@@QAE@PBDHH@Z 10051282 f   lodepng.obj
 0001:000502a0       __unwindfunclet$?PACKET_Crypt@@YAXAAVBinaryStream@@K@Z$0 100512a0 f   packet.obj
 0001:000502a8       __ehhandler$?PACKET_Crypt@@YAXAAVBinaryStream@@K@Z 100512a8 f   packet.obj
 0001:000502d0       __unwindfunclet$?ReadString@BinaryStream@@QAE?AV?$basic_string@DU?$char_traits@D@std@@V?$allocator@D@2@@std@@XZ$1 100512d0 f   serialize1.obj
 0001:000502d8       __ehhandler$?ReadString@BinaryStream@@QAE?AV?$basic_string@DU?$char_traits@D@std@@V?$allocator@D@2@@std@@XZ 100512d8 f   serialize1.obj
 0001:00050300       __unwindfunclet$?ReadBigString@BinaryStream@@QAE?AV?$basic_string@DU?$char_traits@D@std@@V?$allocator@D@2@@std@@XZ$1 10051300 f   serialize1.obj
 0001:00050308       __ehhandler$?ReadBigString@BinaryStream@@QAE?AV?$basic_string@DU?$char_traits@D@std@@V?$allocator@D@2@@std@@XZ 10051308 f   serialize1.obj
 0001:00050330       __unwindfunclet$?ReadSmallString@BinaryStream@@QAE?AV?$basic_string@DU?$char_traits@D@std@@V?$allocator@D@2@@std@@XZ$1 10051330 f   serialize1.obj
 0001:00050338       __ehhandler$?ReadSmallString@BinaryStream@@QAE?AV?$basic_string@DU?$char_traits@D@std@@V?$allocator@D@2@@std@@XZ 10051338 f   serialize1.obj
 0001:00050360       __unwindfunclet$?ReadFixedString@BinaryStream@@QAE?AV?$basic_string@DU?$char_traits@D@std@@V?$allocator@D@2@@std@@I@Z$1 10051360 f   serialize1.obj
 0001:00050368       __ehhandler$?ReadFixedString@BinaryStream@@QAE?AV?$basic_string@DU?$char_traits@D@std@@V?$allocator@D@2@@std@@I@Z 10051368 f   serialize1.obj
 0001:00050390       __unwindfunclet$?WriteString@BinaryStream@@QAEXV?$basic_string@DU?$char_traits@D@std@@V?$allocator@D@2@@std@@@Z$0 10051390 f   serialize1.obj
 0001:00050398       __ehhandler$?WriteString@BinaryStream@@QAEXV?$basic_string@DU?$char_traits@D@std@@V?$allocator@D@2@@std@@@Z 10051398 f   serialize1.obj
 0001:000503b3       __unwindfunclet$?WriteBigString@BinaryStream@@QAEXV?$basic_string@DU?$char_traits@D@std@@V?$allocator@D@2@@std@@@Z$0 100513b3 f   serialize1.obj
 0001:000503bb       __ehhandler$?WriteBigString@BinaryStream@@QAEXV?$basic_string@DU?$char_traits@D@std@@V?$allocator@D@2@@std@@@Z 100513bb f   serialize1.obj
 0001:000503d6       __unwindfunclet$?WriteSmallString@BinaryStream@@QAEXV?$basic_string@DU?$char_traits@D@std@@V?$allocator@D@2@@std@@@Z$0 100513d6 f   serialize1.obj
 0001:000503de       __ehhandler$?WriteSmallString@BinaryStream@@QAEXV?$basic_string@DU?$char_traits@D@std@@V?$allocator@D@2@@std@@@Z 100513de f   serialize1.obj
 0001:000503f9       __unwindfunclet$?WriteFixedString@BinaryStream@@QAEXV?$basic_string@DU?$char_traits@D@std@@V?$allocator@D@2@@std@@I@Z$0 100513f9 f   serialize1.obj
 0001:00050401       __ehhandler$?WriteFixedString@BinaryStream@@QAEXV?$basic_string@DU?$char_traits@D@std@@V?$allocator@D@2@@std@@I@Z 10051401 f   serialize1.obj
 0001:0005041c       __unwindfunclet$?LoadFromFile@BinaryStream@@QAE_NV?$basic_string@DU?$char_traits@D@std@@V?$allocator@D@2@@std@@@Z$0 1005141c f   serialize1.obj
 0001:00050424       __unwindfunclet$?LoadFromFile@BinaryStream@@QAE_NV?$basic_string@DU?$char_traits@D@std@@V?$allocator@D@2@@std@@@Z$1 10051424 f   serialize1.obj
 0001:0005042f       __ehhandler$?LoadFromFile@BinaryStream@@QAE_NV?$basic_string@DU?$char_traits@D@std@@V?$allocator@D@2@@std@@@Z 1005142f f   serialize1.obj
 0001:00050450       __unwindfunclet$?SaveToFile@BinaryStream@@QAE_NV?$basic_string@DU?$char_traits@D@std@@V?$allocator@D@2@@std@@@Z$0 10051450 f   serialize1.obj
 0001:00050458       __unwindfunclet$?SaveToFile@BinaryStream@@QAE_NV?$basic_string@DU?$char_traits@D@std@@V?$allocator@D@2@@std@@@Z$1 10051458 f   serialize1.obj
 0001:00050463       __ehhandler$?SaveToFile@BinaryStream@@QAE_NV?$basic_string@DU?$char_traits@D@std@@V?$allocator@D@2@@std@@@Z 10051463 f   serialize1.obj
 0001:00050490       __unwindfunclet$??$_Uninit_copy@PAUIPFEntry@IPFilter@@PAU12@V?$allocator@UIPFEntry@IPFilter@@@std@@@std@@YAPAUIPFEntry@IPFilter@@PAU12@00AAV?$allocator@UIPFEntry@IPFilter@@@0@U_Nonscalar_ptr_iterator_tag@0@U_Range_checked_iterator_tag@0@@Z$2 10051490 f   socket.obj
 0001:000504a1       __ehhandler$??$_Uninit_copy@PAUIPFEntry@IPFilter@@PAU12@V?$allocator@UIPFEntry@IPFilter@@@std@@@std@@YAPAUIPFEntry@IPFilter@@PAU12@00AAV?$allocator@UIPFEntry@IPFilter@@@0@U_Nonscalar_ptr_iterator_tag@0@U_Range_checked_iterator_tag@0@@Z 100514a1 f   socket.obj
 0001:000504c0       __unwindfunclet$??$_Uninit_fill_n@PAUIPFEntry@IPFilter@@IU12@V?$allocator@UIPFEntry@IPFilter@@@std@@@std@@YAXPAUIPFEntry@IPFilter@@IABU12@AAV?$allocator@UIPFEntry@IPFilter@@@0@U_Nonscalar_ptr_iterator_tag@0@U_Range_checked_iterator_tag@0@@Z$2 100514c0 f   socket.obj
 0001:000504d1       __ehhandler$??$_Uninit_fill_n@PAUIPFEntry@IPFilter@@IU12@V?$allocator@UIPFEntry@IPFilter@@@std@@@std@@YAXPAUIPFEntry@IPFilter@@IABU12@AAV?$allocator@UIPFEntry@IPFilter@@@0@U_Nonscalar_ptr_iterator_tag@0@U_Range_checked_iterator_tag@0@@Z 100514d1 f   socket.obj
 0001:000504f0       __unwindfunclet$?SOCK_SendPacket@@YAHIAAVBinaryStream@@K_N@Z$0 100514f0 f   socket.obj
 0001:000504f8       __unwindfunclet$?SOCK_SendPacket@@YAHIAAVBinaryStream@@K_N@Z$1 100514f8 f   socket.obj
 0001:00050500       __ehhandler$?SOCK_SendPacket@@YAHIAAVBinaryStream@@K_N@Z 10051500 f   socket.obj
 0001:0005051b       __unwindfunclet$?CheckIP@@YA_NV?$basic_string@DU?$char_traits@D@std@@V?$allocator@D@2@@std@@@Z$0 1005151b f   socket.obj
 0001:00050523       __unwindfunclet$?CheckIP@@YA_NV?$basic_string@DU?$char_traits@D@std@@V?$allocator@D@2@@std@@@Z$1 10051523 f   socket.obj
 0001:0005052b       __unwindfunclet$?CheckIP@@YA_NV?$basic_string@DU?$char_traits@D@std@@V?$allocator@D@2@@std@@@Z$2 1005152b f   socket.obj
 0001:00050533       __ehhandler$?CheckIP@@YA_NV?$basic_string@DU?$char_traits@D@std@@V?$allocator@D@2@@std@@@Z 10051533 f   socket.obj
 0001:0005054e       __unwindfunclet$?SOCK_Connect@@YAIV?$basic_string@DU?$char_traits@D@std@@V?$allocator@D@2@@std@@G0G@Z$0 1005154e f   socket.obj
 0001:00050556       __unwindfunclet$?SOCK_Connect@@YAIV?$basic_string@DU?$char_traits@D@std@@V?$allocator@D@2@@std@@G0G@Z$1 10051556 f   socket.obj
 0001:0005055e       __ehhandler$?SOCK_Connect@@YAIV?$basic_string@DU?$char_traits@D@std@@V?$allocator@D@2@@std@@G0G@Z 1005155e f   socket.obj
 0001:00050586       __unwindfunclet$?FromString@IPAddress@IPFilter@@QAEXV?$basic_string@DU?$char_traits@D@std@@V?$allocator@D@2@@std@@@Z$0 10051586 f   socket.obj
 0001:0005058e       __unwindfunclet$?FromString@IPAddress@IPFilter@@QAEXV?$basic_string@DU?$char_traits@D@std@@V?$allocator@D@2@@std@@@Z$1 1005158e f   socket.obj
 0001:00050596       __unwindfunclet$?FromString@IPAddress@IPFilter@@QAEXV?$basic_string@DU?$char_traits@D@std@@V?$allocator@D@2@@std@@@Z$2 10051596 f   socket.obj
 0001:0005059e       __unwindfunclet$?FromString@IPAddress@IPFilter@@QAEXV?$basic_string@DU?$char_traits@D@std@@V?$allocator@D@2@@std@@@Z$3 1005159e f   socket.obj
 0001:000505a6       __unwindfunclet$?FromString@IPAddress@IPFilter@@QAEXV?$basic_string@DU?$char_traits@D@std@@V?$allocator@D@2@@std@@@Z$4 100515a6 f   socket.obj
 0001:000505ae       __ehhandler$?FromString@IPAddress@IPFilter@@QAEXV?$basic_string@DU?$char_traits@D@std@@V?$allocator@D@2@@std@@@Z 100515ae f   socket.obj
 0001:000505c9       __unwindfunclet$?CheckAddress@IPFFile@IPFilter@@QAEHV?$basic_string@DU?$char_traits@D@std@@V?$allocator@D@2@@std@@@Z$0 100515c9 f   socket.obj
 0001:000505d1       __unwindfunclet$?CheckAddress@IPFFile@IPFilter@@QAEHV?$basic_string@DU?$char_traits@D@std@@V?$allocator@D@2@@std@@@Z$1 100515d1 f   socket.obj
 0001:000505d9       __ehhandler$?CheckAddress@IPFFile@IPFilter@@QAEHV?$basic_string@DU?$char_traits@D@std@@V?$allocator@D@2@@std@@@Z 100515d9 f   socket.obj
 0001:00050601       __unwindfunclet$?GetPacket@PacketReceiver@@QAE_NAAVBinaryStream@@@Z$0 10051601 f   socket.obj
 0001:00050609       __ehhandler$?GetPacket@PacketReceiver@@QAE_NAAVBinaryStream@@@Z 10051609 f   socket.obj
 0001:00050624       __unwindfunclet$?ReadIPF@IPFFile@IPFilter@@QAEXV?$basic_string@DU?$char_traits@D@std@@V?$allocator@D@2@@std@@_N@Z$0 10051624 f   socket.obj
 0001:0005062c       __unwindfunclet$?ReadIPF@IPFFile@IPFilter@@QAEXV?$basic_string@DU?$char_traits@D@std@@V?$allocator@D@2@@std@@_N@Z$1 1005162c f   socket.obj
 0001:00050637       __unwindfunclet$?ReadIPF@IPFFile@IPFilter@@QAEXV?$basic_string@DU?$char_traits@D@std@@V?$allocator@D@2@@std@@_N@Z$2 10051637 f   socket.obj
 0001:00050642       __unwindfunclet$?ReadIPF@IPFFile@IPFilter@@QAEXV?$basic_string@DU?$char_traits@D@std@@V?$allocator@D@2@@std@@_N@Z$3 10051642 f   socket.obj
 0001:0005064a       __unwindfunclet$?ReadIPF@IPFFile@IPFilter@@QAEXV?$basic_string@DU?$char_traits@D@std@@V?$allocator@D@2@@std@@_N@Z$4 1005164a f   socket.obj
 0001:00050652       __unwindfunclet$?ReadIPF@IPFFile@IPFilter@@QAEXV?$basic_string@DU?$char_traits@D@std@@V?$allocator@D@2@@std@@_N@Z$5 10051652 f   socket.obj
 0001:0005065a       __unwindfunclet$?ReadIPF@IPFFile@IPFilter@@QAEXV?$basic_string@DU?$char_traits@D@std@@V?$allocator@D@2@@std@@_N@Z$6 1005165a f   socket.obj
 0001:00050662       __unwindfunclet$?ReadIPF@IPFFile@IPFilter@@QAEXV?$basic_string@DU?$char_traits@D@std@@V?$allocator@D@2@@std@@_N@Z$7 10051662 f   socket.obj
 0001:0005066d       __unwindfunclet$?ReadIPF@IPFFile@IPFilter@@QAEXV?$basic_string@DU?$char_traits@D@std@@V?$allocator@D@2@@std@@_N@Z$8 1005166d f   socket.obj
 0001:00050675       __unwindfunclet$?ReadIPF@IPFFile@IPFilter@@QAEXV?$basic_string@DU?$char_traits@D@std@@V?$allocator@D@2@@std@@_N@Z$9 10051675 f   socket.obj
 0001:0005067d       __ehhandler$?ReadIPF@IPFFile@IPFilter@@QAEXV?$basic_string@DU?$char_traits@D@std@@V?$allocator@D@2@@std@@_N@Z 1005167d f   socket.obj
 0001:000506ab       __unwindfunclet$??1PacketReceiver@@QAE@XZ$0 100516ab f   socket.obj
 0001:000506b3       __ehhandler$??1PacketReceiver@@QAE@XZ 100516b3 f   socket.obj
 0001:000506ce       __unwindfunclet$?Receive@PacketReceiver@@QAE_NI@Z$0 100516ce f   socket.obj
 0001:000506d6       __unwindfunclet$?Receive@PacketReceiver@@QAE_NI@Z$1 100516d6 f   socket.obj
 0001:000506de       __ehhandler$?Receive@PacketReceiver@@QAE_NI@Z 100516de f   socket.obj
 0001:00050700       __unwindfunclet$??$?5DU?$char_traits@D@std@@V?$allocator@D@1@@std@@YAAAV?$basic_istream@DU?$char_traits@D@std@@@0@AAV10@AAV?$basic_string@DU?$char_traits@D@std@@V?$allocator@D@2@@0@@Z$2 10051700 f   socket.obj
 0001:00050708       __unwindfunclet$??$?5DU?$char_traits@D@std@@V?$allocator@D@1@@std@@YAAAV?$basic_istream@DU?$char_traits@D@std@@@0@AAV10@AAV?$basic_string@DU?$char_traits@D@std@@V?$allocator@D@2@@0@@Z$3 10051708 f   socket.obj
 0001:00050710       __ehhandler$??$?5DU?$char_traits@D@std@@V?$allocator@D@1@@std@@YAAAV?$basic_istream@DU?$char_traits@D@std@@@0@AAV10@AAV?$basic_string@DU?$char_traits@D@std@@V?$allocator@D@2@@0@@Z 10051710 f   socket.obj
 0001:00050730       __unwindfunclet$??$_Uninit_copy@PAVBinaryStream@@PAV1@V?$allocator@VBinaryStream@@@std@@@std@@YAPAVBinaryStream@@PAV1@00AAV?$allocator@VBinaryStream@@@0@U_Nonscalar_ptr_iterator_tag@0@U_Range_checked_iterator_tag@0@@Z$2 10051730 f   socket.obj
 0001:00050741       __ehhandler$??$_Uninit_copy@PAVBinaryStream@@PAV1@V?$allocator@VBinaryStream@@@std@@@std@@YAPAVBinaryStream@@PAV1@00AAV?$allocator@VBinaryStream@@@0@U_Nonscalar_ptr_iterator_tag@0@U_Range_checked_iterator_tag@0@@Z 10051741 f   socket.obj
 0001:00050760       __unwindfunclet$?_Insert_n@?$vector@UIPFEntry@IPFilter@@V?$allocator@UIPFEntry@IPFilter@@@std@@@std@@IAEXV?$_Vector_iterator@UIPFEntry@IPFilter@@V?$allocator@UIPFEntry@IPFilter@@@std@@@2@IABUIPFEntry@IPFilter@@@Z$4 10051760 f   socket.obj
 0001:00050768       __ehhandler$?_Insert_n@?$vector@UIPFEntry@IPFilter@@V?$allocator@UIPFEntry@IPFilter@@@std@@@std@@IAEXV?$_Vector_iterator@UIPFEntry@IPFilter@@V?$allocator@UIPFEntry@IPFilter@@@std@@@2@IABUIPFEntry@IPFilter@@@Z 10051768 f   socket.obj
 0001:00050790       __unwindfunclet$??$_Uninit_fill_n@PAVBinaryStream@@IV1@V?$allocator@VBinaryStream@@@std@@@std@@YAXPAVBinaryStream@@IABV1@AAV?$allocator@VBinaryStream@@@0@U_Nonscalar_ptr_iterator_tag@0@U_Range_checked_iterator_tag@0@@Z$2 10051790 f   socket.obj
 0001:000507a1       __ehhandler$??$_Uninit_fill_n@PAVBinaryStream@@IV1@V?$allocator@VBinaryStream@@@std@@@std@@YAXPAVBinaryStream@@IABV1@AAV?$allocator@VBinaryStream@@@0@U_Nonscalar_ptr_iterator_tag@0@U_Range_checked_iterator_tag@0@@Z 100517a1 f   socket.obj
 0001:000507c0       __unwindfunclet$?_Insert_n@?$vector@VBinaryStream@@V?$allocator@VBinaryStream@@@std@@@std@@IAEXV?$_Vector_iterator@VBinaryStream@@V?$allocator@VBinaryStream@@@std@@@2@IABVBinaryStream@@@Z$4 100517c0 f   socket.obj
 0001:000507c8       __ehhandler$?_Insert_n@?$vector@VBinaryStream@@V?$allocator@VBinaryStream@@@std@@@std@@IAEXV?$_Vector_iterator@VBinaryStream@@V?$allocator@VBinaryStream@@@std@@@2@IABVBinaryStream@@@Z 100517c8 f   socket.obj
 0001:000507f0       __unwindfunclet$?CheckBool@@YA_NABV?$basic_string@DU?$char_traits@D@std@@V?$allocator@D@2@@std@@@Z$0 100517f0 f   utils1.obj
 0001:000507f8       __unwindfunclet$?CheckBool@@YA_NABV?$basic_string@DU?$char_traits@D@std@@V?$allocator@D@2@@std@@@Z$1 100517f8 f   utils1.obj
 0001:00050800       __ehhandler$?CheckBool@@YA_NABV?$basic_string@DU?$char_traits@D@std@@V?$allocator@D@2@@std@@@Z 10051800 f   utils1.obj
 0001:00050828       __unwindfunclet$?StrToBool@@YA_NABV?$basic_string@DU?$char_traits@D@std@@V?$allocator@D@2@@std@@@Z$0 10051828 f   utils1.obj
 0001:00050830       __unwindfunclet$?StrToBool@@YA_NABV?$basic_string@DU?$char_traits@D@std@@V?$allocator@D@2@@std@@@Z$1 10051830 f   utils1.obj
 0001:00050838       __ehhandler$?StrToBool@@YA_NABV?$basic_string@DU?$char_traits@D@std@@V?$allocator@D@2@@std@@@Z 10051838 f   utils1.obj
 0001:00050860       __unwindfunclet$?DoMenuLoad@@YGXXZ$0 10051860 f   menu.obj
 0001:0005086b       __unwindfunclet$?DoMenuLoad@@YGXXZ$3 1005186b f   menu.obj
 0001:00050876       __unwindfunclet$?DoMenuLoad@@YGXXZ$6 10051876 f   menu.obj
 0001:00050881       __ehhandler$?DoMenuLoad@@YGXXZ 10051881 f   menu.obj
 0001:0005089c       __unwindfunclet$?_Xran@_String_base@std@@SAXXZ$0 1005189c f   libcpmt:string.obj
 0001:0005089c       __unwindfunclet$?_Xlen@_String_base@std@@SAXXZ$0 1005189c f   libcpmt:string.obj
 0001:000508a4       __ehhandler$?_Xran@_String_base@std@@SAXXZ 100518a4 f   libcpmt:string.obj
 0001:000508a4       __ehhandler$?_Xlen@_String_base@std@@SAXXZ 100518a4 f   libcpmt:string.obj
 0001:000508bf       __unwindfunclet$?_Locimp_dtor@_Locimp@locale@std@@CAXPAV123@@Z$0 100518bf f   libcpmt:locale0.obj
 0001:000508c7       __ehhandler$?_Locimp_dtor@_Locimp@locale@std@@CAXPAV123@@Z 100518c7 f   libcpmt:locale0.obj
 0001:000508e2       __unwindfunclet$??0_Locimp@locale@std@@AAE@_N@Z$0 100518e2 f   libcpmt:locale0.obj
 0001:000508ea       __ehhandler$??0_Locimp@locale@std@@AAE@_N@Z 100518ea f   libcpmt:locale0.obj
 0001:00050905       __unwindfunclet$??1_Locimp@locale@std@@MAE@XZ$0 10051905 f   libcpmt:locale0.obj
 0001:0005090d       __unwindfunclet$??1_Locimp@locale@std@@MAE@XZ$1 1005190d f   libcpmt:locale0.obj
 0001:00050918       __ehhandler$??1_Locimp@locale@std@@MAE@XZ 10051918 f   libcpmt:locale0.obj
 0001:00050933       __unwindfunclet$?_Init@locale@std@@CAPAV_Locimp@12@XZ$0 10051933 f   libcpmt:locale0.obj
 0001:0005093b       __unwindfunclet$?_Init@locale@std@@CAPAV_Locimp@12@XZ$1 1005193b f   libcpmt:locale0.obj
 0001:00050945       __ehhandler$?_Init@locale@std@@CAPAV_Locimp@12@XZ 10051945 f   libcpmt:locale0.obj
 0001:00050960       __ehhandler$?CallUnexpected@@YAXPBU_s_ESTypeList@@@Z 10051960 f   LIBCMT:frame.obj
 0001:00050980       ??__Estart_time@@YAXXZ     10051980 f   add_info.obj
 0001:000509a0       ??__E__chat_history@@YAXXZ 100519a0 f   chat_history.obj
 0001:000509b0       ??__EAssocList@@YAXXZ      100519b0 f   class_extend.obj
 0001:000509f0       ??__Ecurrent_directory@@YAXXZ 100519f0 f   config.obj
 0001:00050a10       ??__Ed_strings@@YAXXZ      10051a10 f   debug.obj
 0001:00050a50       ??__ENames@@YAXXZ          10051a50 f   debug.obj
 0001:00050a90       ??__EArchives@@YAXXZ       10051a90 f   File.obj
 0001:00050ad0       ??__EIImages@@YAXXZ        10051ad0 f   itempng.obj
 0001:00050ae0       ??__ETiles@@YAXXZ          10051ae0 f   landscape_renderer.obj
 0001:00050b10       ??__EcmdLine@@YAXXZ        10051b10 f   network_hat_enter.obj
 0001:00050b20       ??__Ematch@@YAXXZ          10051b20 f   network_hat_enter.obj
 0001:00050b30       ??__Eoldfilenames@@YAXXZ   10051b30 f   network_protocol_ext.obj
 0001:00050b40       ??__Egprogress@@YAXXZ      10051b40 f   network_protocol_ext.obj
 0001:00050b60       ??__EScanrange@@YAXXZ      10051b60 f   scanrange.obj
 0001:00050b70       ??__E_LOG_FILE@@YAXXZ      10051b70 f   utils.obj
 0001:00050b90       ??__E_LOG_NAME@@YAXXZ      10051b90 f   utils.obj
 0001:00050b9c       ??__Einitlocks@std@@YAXXZ  10051b9c f   libcpmt:xlock.obj
 0001:00050bb2       ??__Eclassic_locale@std@@YAXXZ 10051bb2 f   libcpmt:locale0.obj
 0001:00050bbe       ??__Einitlocks@std@@YAXXZ  10051bbe f   libcpmt:iosptrs.obj
 0001:00050bd4       ??__Einit_atexit@@YAXXZ    10051bd4 f   libcpmt:iosptrs.obj
 0001:00050be0       ??__E_AtlBaseModule@ATL@@YAXXZ 10051be0 f   atls:atlbase.obj
 0001:00050bf6       ??__E_AtlWinModule@ATL@@YAXXZ 10051bf6 f   atls:atlbase.obj
 0001:00050c0c       ??__Eg_strheap@ATL@@YAXXZ  10051c0c f   atls:atlstr.obj
 0001:00050c34       ??__Eg_strmgr@ATL@@YAXXZ   10051c34 f   atls:atlstr.obj
 0001:00050c50       ??__F__chat_history@@YAXXZ 10051c50 f   chat_history.obj
 0001:00050ca0       ??__FAssocList@@YAXXZ      10051ca0 f   class_extend.obj
 0001:00050ce0       ??__Fcurrent_directory@@YAXXZ 10051ce0 f   config.obj
 0001:00050d10       ??__Fd_strings@@YAXXZ      10051d10 f   debug.obj
 0001:00050d50       ??__FNames@@YAXXZ          10051d50 f   debug.obj
 0001:00050d90       ??__Frec@?1??GetRecord@FileArchive@@QAEABURecord@1@V?$basic_string@DU?$char_traits@D@std@@V?$allocator@D@2@@std@@@Z@YAXXZ 10051d90 f   File.obj
 0001:00050da0       ??__FArchives@@YAXXZ       10051da0 f   File.obj
 0001:00050db0       ??__FIImages@@YAXXZ        10051db0 f   itempng.obj
 0001:00050e00       ??__FcmdLine@@YAXXZ        10051e00 f   network_hat_enter.obj
 0001:00050e30       ??__Fmatch@@YAXXZ          10051e30 f   network_hat_enter.obj
 0001:00050e60       ??__Fgprogress@@YAXXZ      10051e60 f   network_protocol_ext.obj
 0001:00050e70       ??__Foldfilenames@@YAXXZ   10051e70 f   network_protocol_ext.obj
 0001:00050ec0       ??__F_LOG_NAME@@YAXXZ      10051ec0 f   utils.obj
 0001:00050ef0       ??__F_LOG_FILE@@YAXXZ      10051ef0 f   utils.obj
 0001:00050f10       ??__Finitlocks@std@@YAXXZ  10051f10 f   libcpmt:xlock.obj
 0001:00050f1a       ??__Fclassic_locale@std@@YAXXZ 10051f1a f   libcpmt:locale0.obj
 0001:00050f24       ??__Finitlocks@std@@YAXXZ  10051f24 f   libcpmt:iosptrs.obj
 0001:00050f2e       ??__Finit_atexit@@YAXXZ    10051f2e f   libcpmt:iosptrs.obj
 0001:00050f38       ??__Fnomem@?5???2@YAPAXI@Z@YAXXZ 10051f38 f   LIBCMT:new.obj
 0001:00050f4c       ??__F_AtlBaseModule@ATL@@YAXXZ 10051f4c f   atls:atlbase.obj
 0001:00050f56       ??__F_AtlWinModule@ATL@@YAXXZ 10051f56 f   atls:atlbase.obj
 0001:00050f60       ??__Fg_strheap@ATL@@YAXXZ  10051f60 f   atls:atlstr.obj
 0001:00050f6a       ??__Fg_strmgr@ATL@@YAXXZ   10051f6a f   atls:atlstr.obj

 Exports

  ordinal    name

        1    ?RES_loadFile@@YAHH@Z (int __cdecl RES_loadFile(int))
        2    ?FIL_patch0@@YAXXZ (void __cdecl FIL_patch0(void))
        3    ?FIL_patch1@@YAXXZ (void __cdecl FIL_patch1(void))
        4    ?FIL_world0@@YAXXZ (void __cdecl FIL_world0(void))
        5    ?FIL_world1@@YAXXZ (void __cdecl FIL_world1(void))
        6    ?FIL_world2@@YAXXZ (void __cdecl FIL_world2(void))
        7    ?FIL_world3@@YAXXZ (void __cdecl FIL_world3(void))
        8    ?FIL_world4@@YAXXZ (void __cdecl FIL_world4(void))
        9    ?FIL_world5@@YAXXZ (void __cdecl FIL_world5(void))
       10    ?FIL_world6@@YAXXZ (void __cdecl FIL_world6(void))
       11    ?FIL_world7@@YAXXZ (void __cdecl FIL_world7(void))
       12    ?FIL_world8@@YAXXZ (void __cdecl FIL_world8(void))
       13    ?FIL_world9@@YAXXZ (void __cdecl FIL_world9(void))
       14    ?FIL_worldA@@YAXXZ (void __cdecl FIL_worldA(void))
       15    ?NETPROTO_createAuthorizationPacket@@YAHXZ (int __cdecl NETPROTO_createAuthorizationPacket(void))
       16    ?NETPROTO_sendAuthorizationPacket@@YAHXZ (int __cdecl NETPROTO_sendAuthorizationPacket(void))
       17    ?VIDEO_checkVideoMode@@YAXXZ (void __cdecl VIDEO_checkVideoMode(void))
       18    ?NET_cryptPacket@@YAXPAEH@Z (void __cdecl NET_cryptPacket(unsigned char *,int))
       19    ?MAP_loadFromServer@@YAXXZ (void __cdecl MAP_loadFromServer(void))
       20    ?SYSTEM_setThreadPriority@@YAXXZ (void __cdecl SYSTEM_setThreadPriority(void))
       21    ?CHAT_tilde0@@YAXXZ (void __cdecl CHAT_tilde0(void))
       22    ?CHAT_tilde1@@YAXXZ (void __cdecl CHAT_tilde1(void))
       23    ?CHAT_tilde2@@YAXXZ (void __cdecl CHAT_tilde2(void))
       24    ?CHAT_wmCharHandler@@YAXXZ (void __cdecl CHAT_wmCharHandler(void))
       25    ?CHAT_convWinToDos@@YAXXZ (void __cdecl CHAT_convWinToDos(void))
       26    ?CHAT_convDosToIdx@@YAXXZ (void __cdecl CHAT_convDosToIdx(void))
       27    ?DBG_logStrings@@YAXXZ (void __cdecl DBG_logStrings(void))
       28    ?GUI_textField_MeasurePosition@@YGKK@Z (unsigned long __stdcall GUI_textField_MeasurePosition(unsigned long))
       29    ?CHAT_logStrings@@YAHPADHH@Z (int __cdecl CHAT_logStrings(char *,int,int))
       30    ?CHAT_keyDown@@YAXXZ (void __cdecl CHAT_keyDown(void))
       31    ?CHAT_getMessageLast@@YAXXZ (void __cdecl CHAT_getMessageLast(void))
       33    ?CRASH_fix_414994@@YAXXZ (void __cdecl CRASH_fix_414994(void))
       34    ?CRASH_fix_42353A@@YAXXZ (void __cdecl CRASH_fix_42353A(void))
       35    ?CRASH_fix_523295@@YAXXZ (void __cdecl CRASH_fix_523295(void))
       36    ?CRASH_fix_46AD10@@YAXXZ (void __cdecl CRASH_fix_46AD10(void))
       37    ?CRASH_fix_420450@@YAXXZ (void __cdecl CRASH_fix_420450(void))
       38    ?CRASH_fix_45FC3B@@YAXXZ (void __cdecl CRASH_fix_45FC3B(void))
       39    ?CRASH_fix_458CF9@@YAXXZ (void __cdecl CRASH_fix_458CF9(void))
       40    ?CRASH_fix_4657AD@@YAXXZ (void __cdecl CRASH_fix_4657AD(void))
       41    ?CRASH_fix_46B685@@YAXXZ (void __cdecl CRASH_fix_46B685(void))
       42    ?CRASH_fix_4BEE2D@@YAXXZ (void __cdecl CRASH_fix_4BEE2D(void))
       43    ?HATENT_url_text@@YAXXZ (void __cdecl HATENT_url_text(void))
       44    ?HATENT_url_connect@@YAXXZ (void __cdecl HATENT_url_connect(void))
       45    ?SCREENSHOT_take@@YAXXZ (void __cdecl SCREENSHOT_take(void))
       46    ?CRASH_fix_4AAB7E@@YAXXZ (void __cdecl CRASH_fix_4AAB7E(void))
       47    ?INFO_fps@@YAXXZ (void __cdecl INFO_fps(void))
       48    ?RES_loadDirectories@@YAXXZ (void __cdecl RES_loadDirectories(void))
       49    ?RES_loadException@@YAXXZ (void __cdecl RES_loadException(void))
       50    ?LANG_change_43EDEB@@YAXXZ (void __cdecl LANG_change_43EDEB(void))
       51    ?LANG_change_474F27@@YAXXZ (void __cdecl LANG_change_474F27(void))
       52    ?LANG_change_48626D@@YAXXZ (void __cdecl LANG_change_48626D(void))
       53    ?LANG_change_48BA07@@YAXXZ (void __cdecl LANG_change_48BA07(void))
       54    ?LANG_change_48CA55@@YAXXZ (void __cdecl LANG_change_48CA55(void))
       55    ?LANG_change_491CDF@@YAXXZ (void __cdecl LANG_change_491CDF(void))
       56    ?LANG_change_4939A2@@YAXXZ (void __cdecl LANG_change_4939A2(void))
       57    ?CRASH_fix_multiwindow_1@@YAXXZ (void __cdecl CRASH_fix_multiwindow_1(void))
       58    ?CRASH_fix_multiwindow_2@@YAXXZ (void __cdecl CRASH_fix_multiwindow_2(void))
       59    ?CRASH_fix_multiwindow_3@@YAXXZ (void __cdecl CRASH_fix_multiwindow_3(void))
       60    ?CRASH_fix_multiwindow_4@@YAXXZ (void __cdecl CRASH_fix_multiwindow_4(void))
       61    ?LANG_change_493B23@@YAXXZ (void __cdecl LANG_change_493B23(void))
       62    ?LANG_change_4B018F@@YAXXZ (void __cdecl LANG_change_4B018F(void))
       63    ?SCROLL_part1@@YAXXZ (void __cdecl SCROLL_part1(void))
       64    ?SCROLL_part2@@YAXXZ (void __cdecl SCROLL_part2(void))
       65    ?GRID_part1@@YAXXZ (void __cdecl GRID_part1(void))
       66    ?GRID_part2@@YAXXZ (void __cdecl GRID_part2(void))
       67    ?GRID_part3@@YAXXZ (void __cdecl GRID_part3(void))
       68    ?GRID_part4@@YAXXZ (void __cdecl GRID_part4(void))
       69    ?GRID_part5@@YAXXZ (void __cdecl GRID_part5(void))
       70    ?LANG_change_42B3D5@@YAXXZ (void __cdecl LANG_change_42B3D5(void))
       71    ?LANG_change_43EEC3@@YAXXZ (void __cdecl LANG_change_43EEC3(void))
       72    ?LANG_change_460F9B@@YAXXZ (void __cdecl LANG_change_460F9B(void))
       73    ?LANG_change_474375@@YAXXZ (void __cdecl LANG_change_474375(void))
       74    ?LANG_change_4743C9@@YAXXZ (void __cdecl LANG_change_4743C9(void))
       75    ?LANG_change_496638@@YAXXZ (void __cdecl LANG_change_496638(void))
       76    ?LANG_change_4AEE20@@YAXXZ (void __cdecl LANG_change_4AEE20(void))
       77    ?LANG_change_4AEE6D@@YAXXZ (void __cdecl LANG_change_4AEE6D(void))
       78    ?LANG_change_4AEF2A@@YAXXZ (void __cdecl LANG_change_4AEF2A(void))
       79    ?LANG_change_4AEF9C@@YAXXZ (void __cdecl LANG_change_4AEF9C(void))
       80    ?LANG_change_4AF00E@@YAXXZ (void __cdecl LANG_change_4AF00E(void))
       81    ?LANG_fix_codepage@@YAXXZ (void __cdecl LANG_fix_codepage(void))
       84    ?NETPROTO_loginToHat@@YGHXZ (int __stdcall NETPROTO_loginToHat(void))
       85    ?BASE_setCurrentDirectory1@@YGHPAD@Z (int __stdcall BASE_setCurrentDirectory1(char *))
       86    ?CHAT_prependType_part1@@YAXXZ (void __cdecl CHAT_prependType_part1(void))
       87    ?CHAT_prependType_part2@@YAXXZ (void __cdecl CHAT_prependType_part2(void))
       88    ?ADMINISTRAT@@YAXXZ (void __cdecl ADMINISTRAT(void))
       89    ?_fix_launcher@@YAXXZ (void __cdecl _fix_launcher(void))
       90    ?MAP_CFileOpen1@@YAXXZ (void __cdecl MAP_CFileOpen1(void))
       91    ?MAP_CFileOpen2@@YAXXZ (void __cdecl MAP_CFileOpen2(void))
       92    ?GUI_gmEnter@@YAXXZ (void __cdecl GUI_gmEnter(void))
       93    ?CalcVisMapCLIENT@@YGHPAD@Z (int __stdcall CalcVisMapCLIENT(char *))
       94    ?TILES_loadTiles@@YAXXZ (void __cdecl TILES_loadTiles(void))
       95    ?TILES_displayTile1@@YAXXZ (void __cdecl TILES_displayTile1(void))
       96    ?TILES_debug@@YAXXZ (void __cdecl TILES_debug(void))
       97    ?recv_@@YGHIPADHH@Z (int __stdcall recv_(unsigned int,char *,int,int))
       98    ?CHAT_fixEscape@@YAXXZ (void __cdecl CHAT_fixEscape(void))
       99    ?CHAT_dbg@@YAXXZ (void __cdecl CHAT_dbg(void))
      100    ?NETPROTO_enlargeBuffer@@YAXXZ (void __cdecl NETPROTO_enlargeBuffer(void))
      101    ?NETPROTO_enlargeBuffer2@@YAXXZ (void __cdecl NETPROTO_enlargeBuffer2(void))
      102    ?ITEMPNG_loadPng@@YAXXZ (void __cdecl ITEMPNG_loadPng(void))
      103    ?ITEMPNG_loadPngChar@@YAXXZ (void __cdecl ITEMPNG_loadPngChar(void))
      104    ?GUI_softcoreSwitch@@YAXXZ (void __cdecl GUI_softcoreSwitch(void))
      105    ?GUI_softcoreResetSwitch@@YAXXZ (void __cdecl GUI_softcoreResetSwitch(void))
      106    ?GUI_softcoreSaveSwitch@@YAXXZ (void __cdecl GUI_softcoreSaveSwitch(void))
      107    ?GUI_softcoreEnter@@YAXXZ (void __cdecl GUI_softcoreEnter(void))
      108    ?RES_noLoad@@YAXXZ (void __cdecl RES_noLoad(void))
      109    ?imp_MakeScreenshotNet@@YAXXZ (void __cdecl imp_MakeScreenshotNet(void))
      110    ?GUI_sandboxSwitch@@YAXXZ (void __cdecl GUI_sandboxSwitch(void))
      111    ?GUI_removeServerList@@YAXXZ (void __cdecl GUI_removeServerList(void))
      112    ?ITEMPNG_cachePng@@YAXXZ (void __cdecl ITEMPNG_cachePng(void))
      113    ?MENU_load@@YAXXZ (void __cdecl MENU_load(void))
      114    ?MENU_draw@@YAXXZ (void __cdecl MENU_draw(void))
      115    ?MENU_click@@YAXXZ (void __cdecl MENU_click(void))
      116    ?MENU_hover1@@YAXXZ (void __cdecl MENU_hover1(void))
      117    ?MENU_hover2@@YAXXZ (void __cdecl MENU_hover2(void))
      118    ?MENU_hover3@@YAXXZ (void __cdecl MENU_hover3(void))
      300    ?DBG_load256@@YAXXZ (void __cdecl DBG_load256(void))
               exported name: DBG_load256
      301    ?DBG_disp256@@YAXXZ (void __cdecl DBG_disp256(void))
               exported name: DBG_disp256
      302    ?DBG_di2p256@@YAXXZ (void __cdecl DBG_di2p256(void))
               exported name: DBG_di2p256
      303    ?DBG_di3p256@@YAXXZ (void __cdecl DBG_di3p256(void))
               exported name: DBG_di3p256
      304    ?DBG_decideState@@YAXXZ (void __cdecl DBG_decideState(void))
               exported name: DBG_decideState
