 a2mgr

 Timestamp is 52f151d6 (Tue Feb 04 22:47:18 2014)

 Preferred load address is 10000000

 Start         Length     Name                   Class
 0001:00000000 0002fadcH .text                   CODE
 0001:0002fae0 0000185dH .text$x                 CODE
 0001:00031340 00000300H .text$yc                CODE
 0001:00031640 00000497H .text$yd                CODE
 0002:00000000 00000268H .idata$5                DATA
 0002:00000268 00000004H .CRT$XCA                DATA
 0002:0000026c 0000000cH .CRT$XCC                DATA
 0002:00000278 00000008H .CRT$XCL                DATA
 0002:00000280 00000044H .CRT$XCU                DATA
 0002:000002c4 00000004H .CRT$XCZ                DATA
 0002:000002c8 00000004H .CRT$XIA                DATA
 0002:000002cc 00000010H .CRT$XIC                DATA
 0002:000002dc 00000004H .CRT$XIZ                DATA
 0002:000002e0 00000004H .CRT$XPA                DATA
 0002:000002e4 00000004H .CRT$XPX                DATA
 0002:000002e8 00000004H .CRT$XPXA               DATA
 0002:000002ec 00000004H .CRT$XPZ                DATA
 0002:000002f0 00000004H .CRT$XTA                DATA
 0002:000002f4 00000004H .CRT$XTZ                DATA
 0002:00000300 00004cb8H .rdata                  DATA
 0002:00004fb8 00000950H .rdata$r                DATA
 0002:00005910 0000019cH .rdata$sxdata           DATA
 0002:00005aac 00000004H .rtc$IAA                DATA
 0002:00005ab0 00000004H .rtc$IZZ                DATA
 0002:00005ab4 00000004H .rtc$TAA                DATA
 0002:00005ab8 00000004H .rtc$TZZ                DATA
 0002:00005ac0 00002274H .xdata$x                DATA
 0002:00007d34 000000b4H .idata$2                DATA
 0002:00007de8 00000014H .idata$3                DATA
 0002:00007dfc 00000268H .idata$4                DATA
 0002:00008064 000009f2H .idata$6                DATA
 0002:00008a60 00000550H .edata                  DATA
 0003:00000000 00001c08H .data                   DATA
 0003:00001c20 00016d84H .bss                    DATA

  Address         Publics by Value              Rva+Base       Lib:Object

 0000:00000000       __except_list              00000000     <absolute>
 0000:00000067       ___safe_se_handler_count   00000067     <absolute>
 0000:00000000       ___ImageBase               10000000     <linker-defined>
 0001:00000000       ??1bad_alloc@std@@UAE@XZ   10001000 f i a2mgr.obj
 0001:00000010       ??_Ebad_alloc@std@@UAEPAXI@Z 10001010 f i a2mgr.obj
 0001:00000010       ??_Gbad_alloc@std@@UAEPAXI@Z 10001010 f i a2mgr.obj
 0001:00000040       ?compare@?$char_traits@D@std@@SAHPBD0I@Z 10001040 f i a2mgr.obj
 0001:000000c0       ?_fix_launcher@@YAXXZ      100010c0 f   a2mgr.obj
 0001:000000e0       ?_Myptr@?$basic_string@DU?$char_traits@D@std@@V?$allocator@D@2@@std@@QBEPBDXZ 100010e0 f i a2mgr.obj
 0001:000000f0       ??0bad_alloc@std@@QAE@ABV01@@Z 100010f0 f i a2mgr.obj
 0001:00000110       ?find_last_of@?$basic_string@DU?$char_traits@D@std@@V?$allocator@D@2@@std@@QBEIPBDII@Z 10001110 f i a2mgr.obj
 0001:000001a0       ?compare@?$basic_string@DU?$char_traits@D@std@@V?$allocator@D@2@@std@@QBEHIIPBDI@Z 100011a0 f i a2mgr.obj
 0001:00000210       ??1?$basic_string@DU?$char_traits@D@std@@V?$allocator@D@2@@std@@QAE@XZ 10001210 f i a2mgr.obj
 0001:00000240       ?erase@?$basic_string@DU?$char_traits@D@std@@V?$allocator@D@2@@std@@QAEAAV12@II@Z 10001240 f i a2mgr.obj
 0001:000002d0       ?_Copy@?$basic_string@DU?$char_traits@D@std@@V?$allocator@D@2@@std@@QAEXII@Z 100012d0 f i a2mgr.obj
 0001:00000440       ?_Grow@?$basic_string@DU?$char_traits@D@std@@V?$allocator@D@2@@std@@QAE_NI_N@Z 10001440 f i a2mgr.obj
 0001:000004f0       ?append@?$basic_string@DU?$char_traits@D@std@@V?$allocator@D@2@@std@@QAEAAV12@ABV12@II@Z 100014f0 f i a2mgr.obj
 0001:000005e0       ?append@?$basic_string@DU?$char_traits@D@std@@V?$allocator@D@2@@std@@QAEAAV12@PBDI@Z 100015e0 f i a2mgr.obj
 0001:00000700       ?assign@?$basic_string@DU?$char_traits@D@std@@V?$allocator@D@2@@std@@QAEAAV12@ABV12@II@Z 10001700 f i a2mgr.obj
 0001:000007f0       ?assign@?$basic_string@DU?$char_traits@D@std@@V?$allocator@D@2@@std@@QAEAAV12@PBDI@Z 100017f0 f i a2mgr.obj
 0001:000008f0       ??0?$basic_string@DU?$char_traits@D@std@@V?$allocator@D@2@@std@@QAE@PBD@Z 100018f0 f i a2mgr.obj
 0001:00000930       ?assign@?$basic_string@DU?$char_traits@D@std@@V?$allocator@D@2@@std@@QAEAAV12@$$QAV12@@Z 10001930 f i a2mgr.obj
 0001:000009b0       ?BASE_setCurrentDirectory1@@YGHPAD@Z 100019b0 f   a2mgr.obj
 0001:00000a80       ??$?HDU?$char_traits@D@std@@V?$allocator@D@1@@std@@YA?AV?$basic_string@DU?$char_traits@D@std@@V?$allocator@D@2@@0@ABV10@PBD@Z 10001a80 f i a2mgr.obj
 0001:00000b60       ?DllMain_Init@@YG_NPAUHINSTANCE__@@KPAX@Z 10001b60 f   a2mgr.obj
 0001:000016b0       _DllMain@12                100026b0 f   a2mgr.obj
 0001:00001740       ?ConsoleProc@@YG_NEH@Z     10002740 f   add_info.obj
 0001:00001830       ?FpsImpl@@YGXKPAUtagRECT@@@Z 10002830 f   add_info.obj
 0001:00001b00       ?INFO_fps@@YAXXZ           10002b00 f   add_info.obj
 0001:00001b20       ?GetFirstName@@YGPADK@Z    10002b20 f   administrat_fix.obj
 0001:00001b90       ?GetSecondName@@YGPADK@Z   10002b90 f   administrat_fix.obj
 0001:00001c10       ?CheckNickname@@YG_NK@Z    10002c10 f   administrat_fix.obj
 0001:00001c70       ?ADMINISTRAT@@YAXXZ        10002c70 f   administrat_fix.obj
 0001:00001d20       ?CHAT_wmCharHandler@@YAXXZ 10002d20 f   chat.obj
 0001:00001d50       ?conv_double_tilde@@YGPADPAD@Z 10002d50 f   chat.obj
 0001:00001d90       ?CHAT_tilde0@@YAXXZ        10002d90 f   chat.obj
 0001:00001da0       ?CHAT_tilde1@@YAXXZ        10002da0 f   chat.obj
 0001:00001db0       ?CHAT_tilde2@@YAXXZ        10002db0 f   chat.obj
 0001:00001dc0       ?CHAT_convWinToDos@@YAXXZ  10002dc0 f   chat.obj
 0001:00001e00       ?CHAT_convDosToIdx@@YAXXZ  10002e00 f   chat.obj
 0001:00001e40       ?CHAT_logStrings@@YAHPADHH@Z 10002e40 f   chat.obj
 0001:00001e80       ?chatAddStringCpp@@YGPADPADH@Z 10002e80 f   chat.obj
 0001:00001fa0       ?CHAT_prependType_part1@@YAXXZ 10002fa0 f   chat.obj
 0001:00001fd0       ?CHAT_prependType_part2@@YAXXZ 10002fd0 f   chat.obj
 0001:00002000       ?str_empty@@YAXPAPAD@Z     10003000 f   chat_history.obj
 0001:00002020       ?str_assign@@YAXPAPADPBD@Z 10003020 f   chat_history.obj
 0001:00002040       ?str_array_resize@@YAXPADK@Z 10003040 f   chat_history.obj
 0001:00002060       ?logOpen@@YGXK@Z           10003060 f   chat_history.obj
 0001:00002080       ?CHAT_fixEscape@@YAXXZ     10003080 f   chat_history.obj
 0001:00002100       ?CHAT_dbg@@YAXXZ           10003100 f   chat_history.obj
 0001:00002120       ?allocate@?$allocator@V?$basic_string@DU?$char_traits@D@std@@V?$allocator@D@2@@std@@@std@@QAEPAV?$basic_string@DU?$char_traits@D@std@@V?$allocator@D@2@@2@I@Z 10003120 f i chat_history.obj
 0001:00002180       ?allocate@?$allocator@V?$vector@V?$basic_string@DU?$char_traits@D@std@@V?$allocator@D@2@@std@@V?$allocator@V?$basic_string@DU?$char_traits@D@std@@V?$allocator@D@2@@std@@@2@@std@@@std@@QAEPAV?$vector@V?$basic_string@DU?$char_traits@D@std@@V?$allocator@D@2@@std@@V?$allocator@V?$basic_string@DU?$char_traits@D@std@@V?$allocator@D@2@@std@@@2@@2@I@Z 10003180 f i chat_history.obj
 0001:000021e0       ?setString@@YAKPAD@Z       100031e0 f   chat_history.obj
 0001:000022d0       ?consoleDown@@YGKPAD@Z     100032d0 f   chat_history.obj
 0001:00002320       ?consoleUp@@YGKPAD@Z       10003320 f   chat_history.obj
 0001:00002360       ??0?$basic_string@DU?$char_traits@D@std@@V?$allocator@D@2@@std@@QAE@ABV01@@Z 10003360 f i chat_history.obj
 0001:00002390       ??$_Dest_val@V?$allocator@V?$basic_string@DU?$char_traits@D@std@@V?$allocator@D@2@@std@@@std@@V?$basic_string@DU?$char_traits@D@std@@V?$allocator@D@2@@2@@std@@YAXAAV?$allocator@V?$basic_string@DU?$char_traits@D@std@@V?$allocator@D@2@@std@@@0@PAV?$basic_string@DU?$char_traits@D@std@@V?$allocator@D@2@@0@@Z 10003390 f i chat_history.obj
 0001:000023c0       ??$_Destroy_range@V?$allocator@V?$basic_string@DU?$char_traits@D@std@@V?$allocator@D@2@@std@@@std@@@std@@YAXPAV?$basic_string@DU?$char_traits@D@std@@V?$allocator@D@2@@0@0AAV?$allocator@V?$basic_string@DU?$char_traits@D@std@@V?$allocator@D@2@@std@@@0@U_Nonscalar_ptr_iterator_tag@0@@Z 100033c0 f i chat_history.obj
 0001:00002400       ??$_Uninit_copy@V?$_Vector_const_iterator@V?$_Vector_val@V?$basic_string@DU?$char_traits@D@std@@V?$allocator@D@2@@std@@V?$allocator@V?$basic_string@DU?$char_traits@D@std@@V?$allocator@D@2@@std@@@2@@std@@@std@@PAV?$basic_string@DU?$char_traits@D@std@@V?$allocator@D@2@@2@V?$allocator@V?$basic_string@DU?$char_traits@D@std@@V?$allocator@D@2@@std@@@2@@std@@YAPAV?$basic_string@DU?$char_traits@D@std@@V?$allocator@D@2@@0@V?$_Vector_const_iterator@V?$_Vector_val@V?$basic_string@DU?$char_traits@D@std@@V?$allocator@D@2@@std@@V?$allocator@V?$basic_string@DU?$char_traits@D@std@@V?$allocator@D@2@@std@@@2@@std@@@0@0PAV10@AAV?$allocator@V?$basic_string@DU?$char_traits@D@std@@V?$allocator@D@2@@std@@@0@U_Nonscalar_ptr_iterator_tag@0@@Z 10003400 f i chat_history.obj
 0001:000024c0       ??$_Move@PAV?$basic_string@DU?$char_traits@D@std@@V?$allocator@D@2@@std@@PAV12@@std@@YAPAV?$basic_string@DU?$char_traits@D@std@@V?$allocator@D@2@@0@PAV10@00U_Nonscalar_ptr_iterator_tag@0@@Z 100034c0 f i chat_history.obj
 0001:00002550       ??$_Uninit_move@PAV?$basic_string@DU?$char_traits@D@std@@V?$allocator@D@2@@std@@PAV12@V?$allocator@V?$basic_string@DU?$char_traits@D@std@@V?$allocator@D@2@@std@@@2@V12@@std@@YAPAV?$basic_string@DU?$char_traits@D@std@@V?$allocator@D@2@@0@PAV10@00AAV?$allocator@V?$basic_string@DU?$char_traits@D@std@@V?$allocator@D@2@@std@@@0@0U_Nonscalar_ptr_iterator_tag@0@@Z 10003550 f i chat_history.obj
 0001:00002610       ??0?$vector@V?$basic_string@DU?$char_traits@D@std@@V?$allocator@D@2@@std@@V?$allocator@V?$basic_string@DU?$char_traits@D@std@@V?$allocator@D@2@@std@@@2@@std@@QAE@ABV01@@Z 10003610 f i chat_history.obj
 0001:000026f0       ??1?$vector@V?$basic_string@DU?$char_traits@D@std@@V?$allocator@D@2@@std@@V?$allocator@V?$basic_string@DU?$char_traits@D@std@@V?$allocator@D@2@@std@@@2@@std@@QAE@XZ 100036f0 f i chat_history.obj
 0001:000026f0       ?_Tidy@?$vector@V?$basic_string@DU?$char_traits@D@std@@V?$allocator@D@2@@std@@V?$allocator@V?$basic_string@DU?$char_traits@D@std@@V?$allocator@D@2@@std@@@2@@std@@IAEXXZ 100036f0 f i chat_history.obj
 0001:00002740       ?getStringLastT@@YG?AV?$basic_string@DU?$char_traits@D@std@@V?$allocator@D@2@@std@@XZ 10003740 f   chat_history.obj
 0001:00002830       ?getStringLast@@YGXPAPAD@Z 10003830 f   chat_history.obj
 0001:000028e0       ?CHAT_getMessageLast@@YAXXZ 100038e0 f   chat_history.obj
 0001:000028f0       ?reserve@?$vector@V?$basic_string@DU?$char_traits@D@std@@V?$allocator@D@2@@std@@V?$allocator@V?$basic_string@DU?$char_traits@D@std@@V?$allocator@D@2@@std@@@2@@std@@QAEXI@Z 100038f0 f i chat_history.obj
 0001:00002a10       ?_Reserve@?$vector@V?$basic_string@DU?$char_traits@D@std@@V?$allocator@D@2@@std@@V?$allocator@V?$basic_string@DU?$char_traits@D@std@@V?$allocator@D@2@@std@@@2@@std@@IAEXI@Z 10003a10 f i chat_history.obj
 0001:00002a90       ?push_back@?$vector@V?$basic_string@DU?$char_traits@D@std@@V?$allocator@D@2@@std@@V?$allocator@V?$basic_string@DU?$char_traits@D@std@@V?$allocator@D@2@@std@@@2@@std@@QAEX$$QAV?$basic_string@DU?$char_traits@D@std@@V?$allocator@D@2@@2@@Z 10003a90 f i chat_history.obj
 0001:00002b60       ?push_back@?$vector@V?$basic_string@DU?$char_traits@D@std@@V?$allocator@D@2@@std@@V?$allocator@V?$basic_string@DU?$char_traits@D@std@@V?$allocator@D@2@@std@@@2@@std@@QAEXABV?$basic_string@DU?$char_traits@D@std@@V?$allocator@D@2@@2@@Z 10003b60 f i chat_history.obj
 0001:00002c30       ??$_Destroy_range@V?$allocator@V?$vector@V?$basic_string@DU?$char_traits@D@std@@V?$allocator@D@2@@std@@V?$allocator@V?$basic_string@DU?$char_traits@D@std@@V?$allocator@D@2@@std@@@2@@std@@@std@@@std@@YAXPAV?$vector@V?$basic_string@DU?$char_traits@D@std@@V?$allocator@D@2@@std@@V?$allocator@V?$basic_string@DU?$char_traits@D@std@@V?$allocator@D@2@@std@@@2@@0@0AAV?$allocator@V?$vector@V?$basic_string@DU?$char_traits@D@std@@V?$allocator@D@2@@std@@V?$allocator@V?$basic_string@DU?$char_traits@D@std@@V?$allocator@D@2@@std@@@2@@std@@@0@U_Nonscalar_ptr_iterator_tag@0@@Z 10003c30 f i chat_history.obj
 0001:00002ca0       ??$_Uninit_move@PAV?$vector@V?$basic_string@DU?$char_traits@D@std@@V?$allocator@D@2@@std@@V?$allocator@V?$basic_string@DU?$char_traits@D@std@@V?$allocator@D@2@@std@@@2@@std@@PAV12@V?$allocator@V?$vector@V?$basic_string@DU?$char_traits@D@std@@V?$allocator@D@2@@std@@V?$allocator@V?$basic_string@DU?$char_traits@D@std@@V?$allocator@D@2@@std@@@2@@std@@@2@V12@@std@@YAPAV?$vector@V?$basic_string@DU?$char_traits@D@std@@V?$allocator@D@2@@std@@V?$allocator@V?$basic_string@DU?$char_traits@D@std@@V?$allocator@D@2@@std@@@2@@0@PAV10@00AAV?$allocator@V?$vector@V?$basic_string@DU?$char_traits@D@std@@V?$allocator@D@2@@std@@V?$allocator@V?$basic_string@DU?$char_traits@D@std@@V?$allocator@D@2@@std@@@2@@std@@@0@0U_Nonscalar_ptr_iterator_tag@0@@Z 10003ca0 f i chat_history.obj
 0001:00002d20       ?reserve@?$vector@V?$vector@V?$basic_string@DU?$char_traits@D@std@@V?$allocator@D@2@@std@@V?$allocator@V?$basic_string@DU?$char_traits@D@std@@V?$allocator@D@2@@std@@@2@@std@@V?$allocator@V?$vector@V?$basic_string@DU?$char_traits@D@std@@V?$allocator@D@2@@std@@V?$allocator@V?$basic_string@DU?$char_traits@D@std@@V?$allocator@D@2@@std@@@2@@std@@@2@@std@@QAEXI@Z 10003d20 f i chat_history.obj
 0001:00002e10       ?_Reserve@?$vector@V?$vector@V?$basic_string@DU?$char_traits@D@std@@V?$allocator@D@2@@std@@V?$allocator@V?$basic_string@DU?$char_traits@D@std@@V?$allocator@D@2@@std@@@2@@std@@V?$allocator@V?$vector@V?$basic_string@DU?$char_traits@D@std@@V?$allocator@D@2@@std@@V?$allocator@V?$basic_string@DU?$char_traits@D@std@@V?$allocator@D@2@@std@@@2@@std@@@2@@std@@IAEXI@Z 10003e10 f i chat_history.obj
 0001:00002e70       ?push_back@?$vector@V?$vector@V?$basic_string@DU?$char_traits@D@std@@V?$allocator@D@2@@std@@V?$allocator@V?$basic_string@DU?$char_traits@D@std@@V?$allocator@D@2@@std@@@2@@std@@V?$allocator@V?$vector@V?$basic_string@DU?$char_traits@D@std@@V?$allocator@D@2@@std@@V?$allocator@V?$basic_string@DU?$char_traits@D@std@@V?$allocator@D@2@@std@@@2@@std@@@2@@std@@QAEXABV?$vector@V?$basic_string@DU?$char_traits@D@std@@V?$allocator@D@2@@std@@V?$allocator@V?$basic_string@DU?$char_traits@D@std@@V?$allocator@D@2@@std@@@2@@2@@Z 10003e70 f i chat_history.obj
 0001:00002f10       ?addString@@YAXPAD@Z       10003f10 f   chat_history.obj
 0001:00003030       ?consoleEnter@@YGKPAD@Z    10004030 f   chat_history.obj
 0001:00003070       ?CHAT_keyDown@@YAXXZ       10004070 f   chat_history.obj
 0001:00003100       ?_Max@?$_Tree_val@V?$_Tmap_traits@PAXPAXU?$less@PAX@std@@V?$allocator@U?$pair@QAXPAX@std@@@2@$0A@@std@@@std@@SAPAU_Node@?$_Tree_nod@V?$_Tmap_traits@PAXPAXU?$less@PAX@std@@V?$allocator@U?$pair@QAXPAX@std@@@2@$0A@@std@@@2@PAU342@@Z 10004100 f i class_extend.obj
 0001:00003120       ?_Min@?$_Tree_val@V?$_Tmap_traits@PAXPAXU?$less@PAX@std@@V?$allocator@U?$pair@QAXPAX@std@@@2@$0A@@std@@@std@@SAPAU_Node@?$_Tree_nod@V?$_Tmap_traits@PAXPAXU?$less@PAX@std@@V?$allocator@U?$pair@QAXPAX@std@@@2@$0A@@std@@@2@PAU342@@Z 10004120 f i class_extend.obj
 0001:00003140       ??E?$_Tree_unchecked_const_iterator@V?$_Tree_val@V?$_Tmap_traits@PAXPAXU?$less@PAX@std@@V?$allocator@U?$pair@QAXPAX@std@@@2@$0A@@std@@@std@@U_Iterator_base0@2@@std@@QAEAAV01@XZ 10004140 f i class_extend.obj
 0001:00003190       ?_Rrotate@?$_Tree@V?$_Tmap_traits@PAXPAXU?$less@PAX@std@@V?$allocator@U?$pair@QAXPAX@std@@@2@$0A@@std@@@std@@IAEXPAU_Node@?$_Tree_nod@V?$_Tmap_traits@PAXPAXU?$less@PAX@std@@V?$allocator@U?$pair@QAXPAX@std@@@2@$0A@@std@@@2@@Z 10004190 f i class_extend.obj
 0001:000031f0       ?_Lrotate@?$_Tree@V?$_Tmap_traits@PAXPAXU?$less@PAX@std@@V?$allocator@U?$pair@QAXPAX@std@@@2@$0A@@std@@@std@@IAEXPAU_Node@?$_Tree_nod@V?$_Tmap_traits@PAXPAXU?$less@PAX@std@@V?$allocator@U?$pair@QAXPAX@std@@@2@$0A@@std@@@2@@Z 100041f0 f i class_extend.obj
 0001:00003250       ?erase@?$_Tree@V?$_Tmap_traits@PAXPAXU?$less@PAX@std@@V?$allocator@U?$pair@QAXPAX@std@@@2@$0A@@std@@@std@@QAE?AV?$_Tree_iterator@V?$_Tree_val@V?$_Tmap_traits@PAXPAXU?$less@PAX@std@@V?$allocator@U?$pair@QAXPAX@std@@@2@$0A@@std@@@std@@@2@V?$_Tree_const_iterator@V?$_Tree_val@V?$_Tmap_traits@PAXPAXU?$less@PAX@std@@V?$allocator@U?$pair@QAXPAX@std@@@2@$0A@@std@@@std@@@2@@Z 10004250 f i class_extend.obj
 0001:000034a0       ?_Erase@?$_Tree@V?$_Tmap_traits@PAXPAXU?$less@PAX@std@@V?$allocator@U?$pair@QAXPAX@std@@@2@$0A@@std@@@std@@IAEXPAU_Node@?$_Tree_nod@V?$_Tmap_traits@PAXPAXU?$less@PAX@std@@V?$allocator@U?$pair@QAXPAX@std@@@2@$0A@@std@@@2@@Z 100044a0 f i class_extend.obj
 0001:000034e0       ?clear@?$_Tree@V?$_Tmap_traits@PAXPAXU?$less@PAX@std@@V?$allocator@U?$pair@QAXPAX@std@@@2@$0A@@std@@@std@@QAEXXZ 100044e0 f i class_extend.obj
 0001:00003530       ?erase@?$_Tree@V?$_Tmap_traits@PAXPAXU?$less@PAX@std@@V?$allocator@U?$pair@QAXPAX@std@@@2@$0A@@std@@@std@@QAE?AV?$_Tree_iterator@V?$_Tree_val@V?$_Tmap_traits@PAXPAXU?$less@PAX@std@@V?$allocator@U?$pair@QAXPAX@std@@@2@$0A@@std@@@std@@@2@V?$_Tree_const_iterator@V?$_Tree_val@V?$_Tmap_traits@PAXPAXU?$less@PAX@std@@V?$allocator@U?$pair@QAXPAX@std@@@2@$0A@@std@@@std@@@2@0@Z 10004530 f i class_extend.obj
 0001:000035d0       ?TILES_debug@@YAXXZ        100045d0 f   landscape_renderer.obj
 0001:000035d0       ??3@YAXPAX0@Z              100045d0 f   chat_history.obj
 0001:000035d0       ?CCMD_processCommand@@YAXPBD@Z 100045d0 f   client_cmd.obj
 0001:000035d0       ?IdleProcessing@CWindow@GUI@zxmgr@@SAXXZ 100045d0 f   zxmgr_gui.obj
 0001:000035e0       ??1failure@ios_base@std@@UAE@XZ 100045e0 f i config.obj
 0001:000035e0       ??1runtime_error@std@@UAE@XZ 100045e0 f i config.obj
 0001:000035f0       ?_Incref@facet@locale@std@@QAEXXZ 100045f0 f i config.obj
 0001:00003620       ?_Decref@facet@locale@std@@QAEPAV123@XZ 10004620 f i config.obj
 0001:00003660       ??1facet@locale@std@@UAE@XZ 10004660 f i config.obj
 0001:00003670       ??1locale@std@@QAE@XZ      10004670 f i config.obj
 0001:000036c0       ??_Efacet@locale@std@@UAEPAXI@Z 100046c0 f i config.obj
 0001:000036c0       ??_G?$codecvt@DDH@std@@MAEPAXI@Z 100046c0 f i config.obj
 0001:000036c0       ??_Gfacet@locale@std@@UAEPAXI@Z 100046c0 f i config.obj
 0001:000036c0       ??_E?$codecvt@DDH@std@@MAEPAXI@Z 100046c0 f i config.obj
 0001:000036f0       ?do_max_length@codecvt_base@std@@MBEHXZ 100046f0 f i config.obj
 0001:000036f0       ?do_encoding@codecvt_base@std@@MBEHXZ 100046f0 f i config.obj
 0001:00003700       ?getloc@ios_base@std@@QBE?AVlocale@2@XZ 10004700 f i config.obj
 0001:00003740       ??_G?$basic_ios@DU?$char_traits@D@std@@@std@@UAEPAXI@Z 10004740 f i config.obj
 0001:00003740       ??_Gios_base@std@@UAEPAXI@Z 10004740 f i config.obj
 0001:00003740       ??_E?$basic_ios@DU?$char_traits@D@std@@@std@@UAEPAXI@Z 10004740 f i config.obj
 0001:00003740       ??_Eios_base@std@@UAEPAXI@Z 10004740 f i config.obj
 0001:00003770       ??1?$basic_ios@DU?$char_traits@D@std@@@std@@UAE@XZ 10004770 f i config.obj
 0001:00003780       ??1?$basic_istream@DU?$char_traits@D@std@@@std@@UAE@XZ 10004780 f i config.obj
 0001:00003790       ?_Gnavail@?$basic_streambuf@DU?$char_traits@D@std@@@std@@IBE_JXZ 10004790 f i config.obj
 0001:000037b0       ?_Chassign@?$basic_string@DU?$char_traits@D@std@@V?$allocator@D@2@@std@@QAEXIID@Z 100047b0 f i config.obj
 0001:000037f0       ?getloc@?$basic_streambuf@DU?$char_traits@D@std@@@std@@QBE?AVlocale@2@XZ 100047f0 f i config.obj
 0001:00003830       ??_Efailure@ios_base@std@@UAEPAXI@Z 10004830 f i config.obj
 0001:00003830       ??_Gfailure@ios_base@std@@UAEPAXI@Z 10004830 f i config.obj
 0001:00003830       ??_Gruntime_error@std@@UAEPAXI@Z 10004830 f i config.obj
 0001:00003830       ??_Eruntime_error@std@@UAEPAXI@Z 10004830 f i config.obj
 0001:00003830       ??_Esystem_error@std@@UAEPAXI@Z 10004830 f i config.obj
 0001:00003830       ??_Gsystem_error@std@@UAEPAXI@Z 10004830 f i config.obj
 0001:00003860       ?do_tolower@?$ctype@D@std@@MBEDD@Z 10004860 f i config.obj
 0001:00003880       ?do_tolower@?$ctype@D@std@@MBEPBDPADPBD@Z 10004880 f i config.obj
 0001:000038b0       ?do_toupper@?$ctype@D@std@@MBEDD@Z 100048b0 f i config.obj
 0001:000038d0       ?do_toupper@?$ctype@D@std@@MBEPBDPADPBD@Z 100048d0 f i config.obj
 0001:00003900       ?do_widen@?$ctype@D@std@@MBEDD@Z 10004900 f i config.obj
 0001:00003910       ?do_widen@?$ctype@D@std@@MBEPBDPBD0PAD@Z 10004910 f i config.obj
 0001:00003940       ?do_narrow@?$ctype@D@std@@MBEDDD@Z 10004940 f i config.obj
 0001:00003950       ?do_narrow@?$ctype@D@std@@MBEPBDPBD0DPAD@Z 10004950 f i config.obj
 0001:00003980       ??_G?$ctype@D@std@@MAEPAXI@Z 10004980 f i config.obj
 0001:00003980       ??_E?$ctype@D@std@@MAEPAXI@Z 10004980 f i config.obj
 0001:000039d0       ?clear@ios_base@std@@QAEXH_N@Z 100049d0 f i config.obj
 0001:00003ab0       ??0runtime_error@std@@QAE@ABV01@@Z 10004ab0 f i config.obj
 0001:00003ad0       ??0system_error@std@@QAE@ABV01@@Z 10004ad0 f i config.obj
 0001:00003b00       ?_Init@ios_base@std@@IAEXXZ 10004b00 f i config.obj
 0001:00003b90       ??0failure@ios_base@std@@QAE@ABV012@@Z 10004b90 f i config.obj
 0001:00003bc0       ??1?$_Yarn@D@std@@QAE@XZ   10004bc0 f i config.obj
 0001:00003be0       ??1?$basic_streambuf@DU?$char_traits@D@std@@@std@@UAE@XZ 10004be0 f i config.obj
 0001:00003c60       ?_Lock@?$basic_streambuf@DU?$char_traits@D@std@@@std@@UAEXXZ 10004c60 f i config.obj
 0001:00003c70       ?_Unlock@?$basic_streambuf@DU?$char_traits@D@std@@@std@@UAEXXZ 10004c70 f i config.obj
 0001:00003c80       ?overflow@?$basic_streambuf@DU?$char_traits@D@std@@@std@@MAEHH@Z 10004c80 f i config.obj
 0001:00003c80       ?pbackfail@?$basic_streambuf@DU?$char_traits@D@std@@@std@@MAEHH@Z 10004c80 f i config.obj
 0001:00003c90       ?showmanyc@?$basic_streambuf@DU?$char_traits@D@std@@@std@@MAE_JXZ 10004c90 f i config.obj
 0001:00003ca0       ?underflow@?$basic_streambuf@DU?$char_traits@D@std@@@std@@MAEHXZ 10004ca0 f i config.obj
 0001:00003cb0       ?setbuf@?$basic_streambuf@DU?$char_traits@D@std@@@std@@MAEPAV12@PAD_J@Z 10004cb0 f i config.obj
 0001:00003cc0       ?imbue@?$basic_streambuf@DU?$char_traits@D@std@@@std@@MAEXABVlocale@2@@Z 10004cc0 f i config.obj
 0001:00003cc0       ?consoleTab@@YGXPAX@Z      10004cc0 f i chat_history.obj
 0001:00003cd0       ?_Pnavail@?$basic_streambuf@DU?$char_traits@D@std@@@std@@IBE_JXZ 10004cd0 f i config.obj
 0001:00003cf0       ?uflow@?$basic_streambuf@DU?$char_traits@D@std@@@std@@MAEHXZ 10004cf0 f i config.obj
 0001:00003d20       ?xsgetn@?$basic_streambuf@DU?$char_traits@D@std@@@std@@MAE_JPAD_J@Z 10004d20 f i config.obj
 0001:00003df0       ?xsputn@?$basic_streambuf@DU?$char_traits@D@std@@@std@@MAE_JPBD_J@Z 10004df0 f i config.obj
 0001:00003ec0       ?seekoff@?$basic_streambuf@DU?$char_traits@D@std@@@std@@MAE?AV?$fpos@H@2@_JHH@Z 10004ec0 f i config.obj
 0001:00003ef0       ?seekpos@?$basic_streambuf@DU?$char_traits@D@std@@@std@@MAE?AV?$fpos@H@2@V32@H@Z 10004ef0 f i config.obj
 0001:00003f20       ??_G?$basic_istream@DU?$char_traits@D@std@@@std@@UAEPAXI@Z 10004f20 f i config.obj
 0001:00003f20       ??_E?$basic_istream@DU?$char_traits@D@std@@@std@@UAEPAXI@Z 10004f20 f i config.obj
 0001:00003f60       ??_E?$basic_streambuf@DU?$char_traits@D@std@@@std@@UAEPAXI@Z 10004f60 f i config.obj
 0001:00003f60       ??_G?$basic_streambuf@DU?$char_traits@D@std@@@std@@UAEPAXI@Z 10004f60 f i config.obj
 0001:00003f90       ?find@?$basic_string@DU?$char_traits@D@std@@V?$allocator@D@2@@std@@QBEIPBDII@Z 10004f90 f i config.obj
 0001:00004040       ?find_first_of@?$basic_string@DU?$char_traits@D@std@@V?$allocator@D@2@@std@@QBEIPBDII@Z 10005040 f i config.obj
 0001:000040c0       ?_Reset_back@?$basic_filebuf@DU?$char_traits@D@std@@@std@@AAEXXZ 100050c0 f i config.obj
 0001:000040f0       ?_Init@?$basic_streambuf@DU?$char_traits@D@std@@@std@@IAEXXZ 100050f0 f i config.obj
 0001:00004150       ?do_in@?$codecvt@DDH@std@@MBEHAAHPBD1AAPBDPAD3AAPAD@Z 10005150 f i config.obj
 0001:00004150       ?do_out@?$codecvt@DDH@std@@MBEHAAHPBD1AAPBDPAD3AAPAD@Z 10005150 f i config.obj
 0001:00004170       ?do_unshift@?$codecvt@DDH@std@@MBEHAAHPAD1AAPAD@Z 10005170 f i config.obj
 0001:00004190       ?do_length@?$codecvt@DDH@std@@MBEHABHPBD1I@Z 10005190 f i config.obj
 0001:000041b0       ??0_Locinfo@std@@QAE@PBD@Z 100051b0 f i config.obj
 0001:00004260       ??1_Locinfo@std@@QAE@XZ    10005260 f i config.obj
 0001:00004310       ?_Getcat@?$ctype@D@std@@SAIPAPBVfacet@locale@2@PBV42@@Z 10005310 f i config.obj
 0001:000043f0       ?snextc@?$basic_streambuf@DU?$char_traits@D@std@@@std@@QAEHXZ 100053f0 f i config.obj
 0001:00004470       ?_Init@?$basic_filebuf@DU?$char_traits@D@std@@@std@@IAEXPAU_iobuf@@W4_Initfl@12@@Z 10005470 f i config.obj
 0001:00004510       ??0?$basic_streambuf@DU?$char_traits@D@std@@@std@@IAE@XZ 10005510 f i config.obj
 0001:00004600       ??$use_facet@V?$ctype@D@std@@@std@@YAABV?$ctype@D@0@ABVlocale@0@@Z 10005600 f i config.obj
 0001:00004740       ??$?8DU?$char_traits@D@std@@V?$allocator@D@1@@std@@YA_NABV?$basic_string@DU?$char_traits@D@std@@V?$allocator@D@2@@0@PBD@Z 10005740 f i config.obj
 0001:00004780       ?_Getcat@?$codecvt@DDH@std@@SAIPAPBVfacet@locale@2@PBV42@@Z 10005780 f i config.obj
 0001:00004830       ?flush@?$basic_ostream@DU?$char_traits@D@std@@@std@@QAEAAV12@XZ 10005830 f i config.obj
 0001:00004880       ?_Ipfx@?$basic_istream@DU?$char_traits@D@std@@@std@@QAE_N_N@Z 10005880 f i config.obj
 0001:00004a20       ??$_Fputc@D@std@@YA_NDPAU_iobuf@@@Z 10005a20 f i config.obj
 0001:00004a40       ?_Lock@?$basic_filebuf@DU?$char_traits@D@std@@@std@@UAEXXZ 10005a40 f i config.obj
 0001:00004a50       ?_Unlock@?$basic_filebuf@DU?$char_traits@D@std@@@std@@UAEXXZ 10005a50 f i config.obj
 0001:00004a60       ?sync@?$basic_filebuf@DU?$char_traits@D@std@@@std@@MAEHXZ 10005a60 f i config.obj
 0001:00004a90       ?underflow@?$basic_filebuf@DU?$char_traits@D@std@@@std@@MAEHXZ 10005a90 f i config.obj
 0001:00004ae0       ?_Set_back@?$basic_filebuf@DU?$char_traits@D@std@@@std@@AAEXXZ 10005ae0 f i config.obj
 0001:00004b20       ?pbackfail@?$basic_filebuf@DU?$char_traits@D@std@@@std@@MAEHH@Z 10005b20 f i config.obj
 0001:00004bb0       ?setbuf@?$basic_filebuf@DU?$char_traits@D@std@@@std@@MAEPAV?$basic_streambuf@DU?$char_traits@D@std@@@2@PAD_J@Z 10005bb0 f i config.obj
 0001:00004c10       ?widen@?$basic_ios@DU?$char_traits@D@std@@@std@@QBEDD@Z 10005c10 f i config.obj
 0001:00004cc0       ??$use_facet@V?$codecvt@DDH@std@@@std@@YAABV?$codecvt@DDH@0@ABVlocale@0@@Z 10005cc0 f i config.obj
 0001:00004e00       ?imbue@?$basic_filebuf@DU?$char_traits@D@std@@@std@@MAEXABVlocale@2@@Z 10005e00 f i config.obj
 0001:00004e40       ?append@?$basic_string@DU?$char_traits@D@std@@V?$allocator@D@2@@std@@QAEAAV12@ID@Z 10005e40 f i config.obj
 0001:00004ef0       ?open@?$basic_filebuf@DU?$char_traits@D@std@@@std@@QAEPAV12@PBDHH@Z 10005ef0 f i config.obj
 0001:00004fd0       ?uflow@?$basic_filebuf@DU?$char_traits@D@std@@@std@@MAEHXZ 10005fd0 f i config.obj
 0001:000051c0       ?open@?$basic_ifstream@DU?$char_traits@D@std@@@std@@QAEXPBDHH@Z 100061c0 f i config.obj
 0001:00005230       ?_Endwrite@?$basic_filebuf@DU?$char_traits@D@std@@@std@@IAE_NXZ 10006230 f i config.obj
 0001:00005370       ??$getline@DU?$char_traits@D@std@@V?$allocator@D@2@@std@@YAAAV?$basic_istream@DU?$char_traits@D@std@@@0@$$QAV10@AAV?$basic_string@DU?$char_traits@D@std@@V?$allocator@D@2@@0@D@Z 10006370 f i config.obj
 0001:00005530       ?overflow@?$basic_filebuf@DU?$char_traits@D@std@@@std@@MAEHH@Z 10006530 f i config.obj
 0001:00005720       ?seekoff@?$basic_filebuf@DU?$char_traits@D@std@@@std@@MAE?AV?$fpos@H@2@_JHH@Z 10006720 f i config.obj
 0001:00005810       ?seekpos@?$basic_filebuf@DU?$char_traits@D@std@@@std@@MAE?AV?$fpos@H@2@V32@H@Z 10006810 f i config.obj
 0001:000058f0       ?close@?$basic_filebuf@DU?$char_traits@D@std@@@std@@QAEPAV12@XZ 100068f0 f i config.obj
 0001:00005980       ??0?$basic_ifstream@DU?$char_traits@D@std@@@std@@QAE@XZ 10006980 f i config.obj
 0001:00005ab0       ??1?$basic_ifstream@DU?$char_traits@D@std@@@std@@UAE@XZ 10006ab0 f i config.obj
 0001:00005b60       ?close@?$basic_ifstream@DU?$char_traits@D@std@@@std@@QAEXXZ 10006b60 f i config.obj
 0001:00005b90       ??_E?$basic_filebuf@DU?$char_traits@D@std@@@std@@UAEPAXI@Z 10006b90 f i config.obj
 0001:00005b90       ??_G?$basic_filebuf@DU?$char_traits@D@std@@@std@@UAEPAXI@Z 10006b90 f i config.obj
 0001:00005c30       ?ParseConfig1x@@YAXAAV?$basic_ifstream@DU?$char_traits@D@std@@@std@@@Z 10006c30 f   config.obj
 0001:00006210       ??_D?$basic_ifstream@DU?$char_traits@D@std@@@std@@QAEXXZ 10007210 f i config.obj
 0001:00006230       ??_G?$basic_ifstream@DU?$char_traits@D@std@@@std@@UAEPAXI@Z 10007230 f i config.obj
 0001:00006230       ??_E?$basic_ifstream@DU?$char_traits@D@std@@@std@@UAEPAXI@Z 10007230 f i config.obj
 0001:00006270       ?ParseConfig2x@@YAXAAV?$basic_ifstream@DU?$char_traits@D@std@@@std@@@Z 10007270 f   config.obj
 0001:00006db0       ?ParseConfig@@YAXXZ        10007db0 f   config.obj
 0001:00006f70       ?CheckValid@@YGKPAXK@Z     10007f70 f   crash.obj
 0001:00006f90       ?CheckValidW@@YGKPAXK@Z    10007f90 f   crash.obj
 0001:00006fb0       ?CRASH_fix_414994@@YAXXZ   10007fb0 f   crash.obj
 0001:00006fe0       ?CRASH_fix_42353A@@YAXXZ   10007fe0 f   crash.obj
 0001:00007010       ?CRASH_fix_523295@@YAXXZ   10008010 f   crash.obj
 0001:00007040       ?CRASH_fix_46AD10@@YAXXZ   10008040 f   crash.obj
 0001:000070a0       ?CRASH_fix_420450@@YAXXZ   100080a0 f   crash.obj
 0001:000070d0       ?CRASH_fix_45FC3B@@YAXXZ   100080d0 f   crash.obj
 0001:00007100       ?CRASH_fix_458CF9@@YAXXZ   10008100 f   crash.obj
 0001:00007140       ?CRASH_fix_4657AD@@YAXXZ   10008140 f   crash.obj
 0001:00007170       ?CRASH_fix_46B685@@YAXXZ   10008170 f   crash.obj
 0001:000071a0       ?shop_init_2@@YAXXZ        100081a0 f   crash.obj
 0001:000071f0       ?CRASH_fix_4BEE2D@@YAXXZ   100081f0 f   crash.obj
 0001:00007200       ?CRASH_fix_4AAB7E@@YAXXZ   10008200 f   crash.obj
 0001:00007220       ?CRASH_fix_multiwindow_1@@YAXXZ 10008220 f   crash.obj
 0001:00007240       ?CRASH_fix_multiwindow_2@@YAXXZ 10008240 f   crash.obj
 0001:00007260       ?CRASH_fix_multiwindow_3@@YAXXZ 10008260 f   crash.obj
 0001:00007280       ?CRASH_fix_multiwindow_4@@YAXXZ 10008280 f   crash.obj
 0001:000072a0       ?Calculate@CRC_32@@AAEXQAEIAAK@Z 100082a0 f   CRC_32.obj
 0001:000072e0       ?CRC32ThreadProc@CRC_32@@CGKPAX@Z 100082e0 f   CRC_32.obj
 0001:00007600       ??0CRC_32@@QAE@XZ          10008600 f   CRC_32.obj
 0001:00007740       ?CalcCRC@CRC_32@@QAEKPAXIPAUHWND__@@@Z 10008740 f   CRC_32.obj
 0001:00007840       ?log_str@@YAXPADK@Z        10008840 f   debug.obj
 0001:00007860       ?DBG_logStrings@@YAXXZ     10008860 f   debug.obj
 0001:000078a0       ?exc_handler_run@@YAKPAU_EXCEPTION_POINTERS@@@Z 100088a0 f   debug.obj
 0001:000079d0       ?setup_handler@@YAXXZ      100089d0 f   debug.obj
 0001:000079e0       ?_decideState@@YGXK@Z      100089e0 f   debug.obj
 0001:00007a00       ?DBG_decideState@@YAXXZ    10008a00 f   debug.obj
 0001:00007a30       ?_Max@?$_Tree_val@V?$_Tmap_traits@PBDV?$basic_string@DU?$char_traits@D@std@@V?$allocator@D@2@@std@@U?$less@PBD@2@V?$allocator@U?$pair@QBDV?$basic_string@DU?$char_traits@D@std@@V?$allocator@D@2@@std@@@std@@@2@$0A@@std@@@std@@SAPAU_Node@?$_Tree_nod@V?$_Tmap_traits@PBDV?$basic_string@DU?$char_traits@D@std@@V?$allocator@D@2@@std@@U?$less@PBD@2@V?$allocator@U?$pair@QBDV?$basic_string@DU?$char_traits@D@std@@V?$allocator@D@2@@std@@@std@@@2@$0A@@std@@@2@PAU342@@Z 10008a30 f i debug.obj
 0001:00007a30       ?_Max@?$_Tree_val@V?$_Tmap_traits@KV?$basic_string@DU?$char_traits@D@std@@V?$allocator@D@2@@std@@U?$less@K@2@V?$allocator@U?$pair@$$CBKV?$basic_string@DU?$char_traits@D@std@@V?$allocator@D@2@@std@@@std@@@2@$0A@@std@@@std@@SAPAU_Node@?$_Tree_nod@V?$_Tmap_traits@KV?$basic_string@DU?$char_traits@D@std@@V?$allocator@D@2@@std@@U?$less@K@2@V?$allocator@U?$pair@$$CBKV?$basic_string@DU?$char_traits@D@std@@V?$allocator@D@2@@std@@@std@@@2@$0A@@std@@@2@PAU342@@Z 10008a30 f i debug.obj
 0001:00007a50       ?_Min@?$_Tree_val@V?$_Tmap_traits@PBDV?$basic_string@DU?$char_traits@D@std@@V?$allocator@D@2@@std@@U?$less@PBD@2@V?$allocator@U?$pair@QBDV?$basic_string@DU?$char_traits@D@std@@V?$allocator@D@2@@std@@@std@@@2@$0A@@std@@@std@@SAPAU_Node@?$_Tree_nod@V?$_Tmap_traits@PBDV?$basic_string@DU?$char_traits@D@std@@V?$allocator@D@2@@std@@U?$less@PBD@2@V?$allocator@U?$pair@QBDV?$basic_string@DU?$char_traits@D@std@@V?$allocator@D@2@@std@@@std@@@2@$0A@@std@@@2@PAU342@@Z 10008a50 f i debug.obj
 0001:00007a50       ?_Min@?$_Tree_val@V?$_Tmap_traits@KV?$basic_string@DU?$char_traits@D@std@@V?$allocator@D@2@@std@@U?$less@K@2@V?$allocator@U?$pair@$$CBKV?$basic_string@DU?$char_traits@D@std@@V?$allocator@D@2@@std@@@std@@@2@$0A@@std@@@std@@SAPAU_Node@?$_Tree_nod@V?$_Tmap_traits@KV?$basic_string@DU?$char_traits@D@std@@V?$allocator@D@2@@std@@U?$less@K@2@V?$allocator@U?$pair@$$CBKV?$basic_string@DU?$char_traits@D@std@@V?$allocator@D@2@@std@@@std@@@2@$0A@@std@@@2@PAU342@@Z 10008a50 f i debug.obj
 0001:00007a70       ??F?$_Tree_unchecked_const_iterator@V?$_Tree_val@V?$_Tmap_traits@PBDV?$basic_string@DU?$char_traits@D@std@@V?$allocator@D@2@@std@@U?$less@PBD@2@V?$allocator@U?$pair@QBDV?$basic_string@DU?$char_traits@D@std@@V?$allocator@D@2@@std@@@std@@@2@$0A@@std@@@std@@U_Iterator_base0@2@@std@@QAEAAV01@XZ 10008a70 f i debug.obj
 0001:00007ad0       ??E?$_Tree_unchecked_const_iterator@V?$_Tree_val@V?$_Tmap_traits@KV?$basic_string@DU?$char_traits@D@std@@V?$allocator@D@2@@std@@U?$less@K@2@V?$allocator@U?$pair@$$CBKV?$basic_string@DU?$char_traits@D@std@@V?$allocator@D@2@@std@@@std@@@2@$0A@@std@@@std@@U_Iterator_base0@2@@std@@QAEAAV01@XZ 10008ad0 f i debug.obj
 0001:00007ad0       ??E?$_Tree_unchecked_const_iterator@V?$_Tree_val@V?$_Tmap_traits@PBDV?$basic_string@DU?$char_traits@D@std@@V?$allocator@D@2@@std@@U?$less@PBD@2@V?$allocator@U?$pair@QBDV?$basic_string@DU?$char_traits@D@std@@V?$allocator@D@2@@std@@@std@@@2@$0A@@std@@@std@@U_Iterator_base0@2@@std@@QAEAAV01@XZ 10008ad0 f i debug.obj
 0001:00007b20       ?_Lrotate@?$_Tree@V?$_Tmap_traits@KV?$basic_string@DU?$char_traits@D@std@@V?$allocator@D@2@@std@@U?$less@K@2@V?$allocator@U?$pair@$$CBKV?$basic_string@DU?$char_traits@D@std@@V?$allocator@D@2@@std@@@std@@@2@$0A@@std@@@std@@IAEXPAU_Node@?$_Tree_nod@V?$_Tmap_traits@KV?$basic_string@DU?$char_traits@D@std@@V?$allocator@D@2@@std@@U?$less@K@2@V?$allocator@U?$pair@$$CBKV?$basic_string@DU?$char_traits@D@std@@V?$allocator@D@2@@std@@@std@@@2@$0A@@std@@@2@@Z 10008b20 f i debug.obj
 0001:00007b20       ?_Lrotate@?$_Tree@V?$_Tmap_traits@PBDV?$basic_string@DU?$char_traits@D@std@@V?$allocator@D@2@@std@@U?$less@PBD@2@V?$allocator@U?$pair@QBDV?$basic_string@DU?$char_traits@D@std@@V?$allocator@D@2@@std@@@std@@@2@$0A@@std@@@std@@IAEXPAU_Node@?$_Tree_nod@V?$_Tmap_traits@PBDV?$basic_string@DU?$char_traits@D@std@@V?$allocator@D@2@@std@@U?$less@PBD@2@V?$allocator@U?$pair@QBDV?$basic_string@DU?$char_traits@D@std@@V?$allocator@D@2@@std@@@std@@@2@$0A@@std@@@2@@Z 10008b20 f i debug.obj
 0001:00007b80       ?_Rrotate@?$_Tree@V?$_Tmap_traits@PBDV?$basic_string@DU?$char_traits@D@std@@V?$allocator@D@2@@std@@U?$less@PBD@2@V?$allocator@U?$pair@QBDV?$basic_string@DU?$char_traits@D@std@@V?$allocator@D@2@@std@@@std@@@2@$0A@@std@@@std@@IAEXPAU_Node@?$_Tree_nod@V?$_Tmap_traits@PBDV?$basic_string@DU?$char_traits@D@std@@V?$allocator@D@2@@std@@U?$less@PBD@2@V?$allocator@U?$pair@QBDV?$basic_string@DU?$char_traits@D@std@@V?$allocator@D@2@@std@@@std@@@2@$0A@@std@@@2@@Z 10008b80 f i debug.obj
 0001:00007b80       ?_Rrotate@?$_Tree@V?$_Tmap_traits@KV?$basic_string@DU?$char_traits@D@std@@V?$allocator@D@2@@std@@U?$less@K@2@V?$allocator@U?$pair@$$CBKV?$basic_string@DU?$char_traits@D@std@@V?$allocator@D@2@@std@@@std@@@2@$0A@@std@@@std@@IAEXPAU_Node@?$_Tree_nod@V?$_Tmap_traits@KV?$basic_string@DU?$char_traits@D@std@@V?$allocator@D@2@@std@@U?$less@K@2@V?$allocator@U?$pair@$$CBKV?$basic_string@DU?$char_traits@D@std@@V?$allocator@D@2@@std@@@std@@@2@$0A@@std@@@2@@Z 10008b80 f i debug.obj
 0001:00007be0       ??1?$pair@QBDV?$basic_string@DU?$char_traits@D@std@@V?$allocator@D@2@@std@@@std@@QAE@XZ 10008be0 f i debug.obj
 0001:00007c10       ?_disp256@@YGXPBDK@Z       10008c10 f   debug.obj
 0001:00007d20       ?DBG_disp256@@YAXXZ        10008d20 f   debug.obj
 0001:00007d40       ?DBG_di2p256@@YAXXZ        10008d40 f   debug.obj
 0001:00007d60       ?DBG_di3p256@@YAXXZ        10008d60 f   debug.obj
 0001:00007d80       ?_Insert@?$_Tree@V?$_Tmap_traits@PBDV?$basic_string@DU?$char_traits@D@std@@V?$allocator@D@2@@std@@U?$less@PBD@2@V?$allocator@U?$pair@QBDV?$basic_string@DU?$char_traits@D@std@@V?$allocator@D@2@@std@@@std@@@2@$0A@@std@@@std@@IAE?AV?$_Tree_iterator@V?$_Tree_val@V?$_Tmap_traits@PBDV?$basic_string@DU?$char_traits@D@std@@V?$allocator@D@2@@std@@U?$less@PBD@2@V?$allocator@U?$pair@QBDV?$basic_string@DU?$char_traits@D@std@@V?$allocator@D@2@@std@@@std@@@2@$0A@@std@@@std@@@2@_NPAU_Node@?$_Tree_nod@V?$_Tmap_traits@PBDV?$basic_string@DU?$char_traits@D@std@@V?$allocator@D@2@@std@@U?$less@PBD@2@V?$allocator@U?$pair@QBDV?$basic_string@DU?$char_traits@D@std@@V?$allocator@D@2@@std@@@std@@@2@$0A@@std@@@2@1@Z 10008d80 f i debug.obj
 0001:00007fd0       ?erase@?$_Tree@V?$_Tmap_traits@KV?$basic_string@DU?$char_traits@D@std@@V?$allocator@D@2@@std@@U?$less@K@2@V?$allocator@U?$pair@$$CBKV?$basic_string@DU?$char_traits@D@std@@V?$allocator@D@2@@std@@@std@@@2@$0A@@std@@@std@@QAE?AV?$_Tree_iterator@V?$_Tree_val@V?$_Tmap_traits@KV?$basic_string@DU?$char_traits@D@std@@V?$allocator@D@2@@std@@U?$less@K@2@V?$allocator@U?$pair@$$CBKV?$basic_string@DU?$char_traits@D@std@@V?$allocator@D@2@@std@@@std@@@2@$0A@@std@@@std@@@2@V?$_Tree_const_iterator@V?$_Tree_val@V?$_Tmap_traits@KV?$basic_string@DU?$char_traits@D@std@@V?$allocator@D@2@@std@@U?$less@K@2@V?$allocator@U?$pair@$$CBKV?$basic_string@DU?$char_traits@D@std@@V?$allocator@D@2@@std@@@std@@@2@$0A@@std@@@std@@@2@@Z 10008fd0 f i debug.obj
 0001:00007fd0       ?erase@?$_Tree@V?$_Tmap_traits@PBDV?$basic_string@DU?$char_traits@D@std@@V?$allocator@D@2@@std@@U?$less@PBD@2@V?$allocator@U?$pair@QBDV?$basic_string@DU?$char_traits@D@std@@V?$allocator@D@2@@std@@@std@@@2@$0A@@std@@@std@@QAE?AV?$_Tree_iterator@V?$_Tree_val@V?$_Tmap_traits@PBDV?$basic_string@DU?$char_traits@D@std@@V?$allocator@D@2@@std@@U?$less@PBD@2@V?$allocator@U?$pair@QBDV?$basic_string@DU?$char_traits@D@std@@V?$allocator@D@2@@std@@@std@@@2@$0A@@std@@@std@@@2@V?$_Tree_const_iterator@V?$_Tree_val@V?$_Tmap_traits@PBDV?$basic_string@DU?$char_traits@D@std@@V?$allocator@D@2@@std@@U?$less@PBD@2@V?$allocator@U?$pair@QBDV?$basic_string@DU?$char_traits@D@std@@V?$allocator@D@2@@std@@@std@@@2@$0A@@std@@@std@@@2@@Z 10008fd0 f i debug.obj
 0001:00008250       ?_Erase@?$_Tree@V?$_Tmap_traits@KV?$basic_string@DU?$char_traits@D@std@@V?$allocator@D@2@@std@@U?$less@K@2@V?$allocator@U?$pair@$$CBKV?$basic_string@DU?$char_traits@D@std@@V?$allocator@D@2@@std@@@std@@@2@$0A@@std@@@std@@IAEXPAU_Node@?$_Tree_nod@V?$_Tmap_traits@KV?$basic_string@DU?$char_traits@D@std@@V?$allocator@D@2@@std@@U?$less@K@2@V?$allocator@U?$pair@$$CBKV?$basic_string@DU?$char_traits@D@std@@V?$allocator@D@2@@std@@@std@@@2@$0A@@std@@@2@@Z 10009250 f i debug.obj
 0001:00008250       ?_Erase@?$_Tree@V?$_Tmap_traits@PBDV?$basic_string@DU?$char_traits@D@std@@V?$allocator@D@2@@std@@U?$less@PBD@2@V?$allocator@U?$pair@QBDV?$basic_string@DU?$char_traits@D@std@@V?$allocator@D@2@@std@@@std@@@2@$0A@@std@@@std@@IAEXPAU_Node@?$_Tree_nod@V?$_Tmap_traits@PBDV?$basic_string@DU?$char_traits@D@std@@V?$allocator@D@2@@std@@U?$less@PBD@2@V?$allocator@U?$pair@QBDV?$basic_string@DU?$char_traits@D@std@@V?$allocator@D@2@@std@@@std@@@2@$0A@@std@@@2@@Z 10009250 f i debug.obj
 0001:000082b0       ?_Linsert@?$_Tree@V?$_Tmap_traits@PBDV?$basic_string@DU?$char_traits@D@std@@V?$allocator@D@2@@std@@U?$less@PBD@2@V?$allocator@U?$pair@QBDV?$basic_string@DU?$char_traits@D@std@@V?$allocator@D@2@@std@@@std@@@2@$0A@@std@@@std@@QAE?AU?$pair@V?$_Tree_iterator@V?$_Tree_val@V?$_Tmap_traits@PBDV?$basic_string@DU?$char_traits@D@std@@V?$allocator@D@2@@std@@U?$less@PBD@2@V?$allocator@U?$pair@QBDV?$basic_string@DU?$char_traits@D@std@@V?$allocator@D@2@@std@@@std@@@2@$0A@@std@@@std@@@std@@_N@2@PAU_Node@?$_Tree_nod@V?$_Tmap_traits@PBDV?$basic_string@DU?$char_traits@D@std@@V?$allocator@D@2@@std@@U?$less@PBD@2@V?$allocator@U?$pair@QBDV?$basic_string@DU?$char_traits@D@std@@V?$allocator@D@2@@std@@@std@@@2@$0A@@std@@@2@_N@Z 100092b0 f i debug.obj
 0001:000083b0       ?_Insert@?$_Tree@V?$_Tmap_traits@PBDV?$basic_string@DU?$char_traits@D@std@@V?$allocator@D@2@@std@@U?$less@PBD@2@V?$allocator@U?$pair@QBDV?$basic_string@DU?$char_traits@D@std@@V?$allocator@D@2@@std@@@std@@@2@$0A@@std@@@std@@QAE?AV?$_Tree_iterator@V?$_Tree_val@V?$_Tmap_traits@PBDV?$basic_string@DU?$char_traits@D@std@@V?$allocator@D@2@@std@@U?$less@PBD@2@V?$allocator@U?$pair@QBDV?$basic_string@DU?$char_traits@D@std@@V?$allocator@D@2@@std@@@std@@@2@$0A@@std@@@std@@@2@V?$_Tree_const_iterator@V?$_Tree_val@V?$_Tmap_traits@PBDV?$basic_string@DU?$char_traits@D@std@@V?$allocator@D@2@@std@@U?$less@PBD@2@V?$allocator@U?$pair@QBDV?$basic_string@DU?$char_traits@D@std@@V?$allocator@D@2@@std@@@std@@@2@$0A@@std@@@std@@@2@PAU_Node@?$_Tree_nod@V?$_Tmap_traits@PBDV?$basic_string@DU?$char_traits@D@std@@V?$allocator@D@2@@std@@U?$less@PBD@2@V?$allocator@U?$pair@QBDV?$basic_string@DU?$char_traits@D@std@@V?$allocator@D@2@@std@@@std@@@2@$0A@@std@@@2@@Z 100093b0 f i debug.obj
 0001:00008510       ?erase@?$_Tree@V?$_Tmap_traits@KV?$basic_string@DU?$char_traits@D@std@@V?$allocator@D@2@@std@@U?$less@K@2@V?$allocator@U?$pair@$$CBKV?$basic_string@DU?$char_traits@D@std@@V?$allocator@D@2@@std@@@std@@@2@$0A@@std@@@std@@QAE?AV?$_Tree_iterator@V?$_Tree_val@V?$_Tmap_traits@KV?$basic_string@DU?$char_traits@D@std@@V?$allocator@D@2@@std@@U?$less@K@2@V?$allocator@U?$pair@$$CBKV?$basic_string@DU?$char_traits@D@std@@V?$allocator@D@2@@std@@@std@@@2@$0A@@std@@@std@@@2@V?$_Tree_const_iterator@V?$_Tree_val@V?$_Tmap_traits@KV?$basic_string@DU?$char_traits@D@std@@V?$allocator@D@2@@std@@U?$less@K@2@V?$allocator@U?$pair@$$CBKV?$basic_string@DU?$char_traits@D@std@@V?$allocator@D@2@@std@@@std@@@2@$0A@@std@@@std@@@2@0@Z 10009510 f i debug.obj
 0001:00008510       ?erase@?$_Tree@V?$_Tmap_traits@PBDV?$basic_string@DU?$char_traits@D@std@@V?$allocator@D@2@@std@@U?$less@PBD@2@V?$allocator@U?$pair@QBDV?$basic_string@DU?$char_traits@D@std@@V?$allocator@D@2@@std@@@std@@@2@$0A@@std@@@std@@QAE?AV?$_Tree_iterator@V?$_Tree_val@V?$_Tmap_traits@PBDV?$basic_string@DU?$char_traits@D@std@@V?$allocator@D@2@@std@@U?$less@PBD@2@V?$allocator@U?$pair@QBDV?$basic_string@DU?$char_traits@D@std@@V?$allocator@D@2@@std@@@std@@@2@$0A@@std@@@std@@@2@V?$_Tree_const_iterator@V?$_Tree_val@V?$_Tmap_traits@PBDV?$basic_string@DU?$char_traits@D@std@@V?$allocator@D@2@@std@@U?$less@PBD@2@V?$allocator@U?$pair@QBDV?$basic_string@DU?$char_traits@D@std@@V?$allocator@D@2@@std@@@std@@@2@$0A@@std@@@std@@@2@0@Z 10009510 f i debug.obj
 0001:000085d0       ??$_Buynode@U?$pair@QBDV?$basic_string@DU?$char_traits@D@std@@V?$allocator@D@2@@std@@@std@@@?$_Tree_val@V?$_Tmap_traits@PBDV?$basic_string@DU?$char_traits@D@std@@V?$allocator@D@2@@std@@U?$less@PBD@2@V?$allocator@U?$pair@QBDV?$basic_string@DU?$char_traits@D@std@@V?$allocator@D@2@@std@@@std@@@2@$0A@@std@@@std@@QAEPAU_Node@?$_Tree_nod@V?$_Tmap_traits@PBDV?$basic_string@DU?$char_traits@D@std@@V?$allocator@D@2@@std@@U?$less@PBD@2@V?$allocator@U?$pair@QBDV?$basic_string@DU?$char_traits@D@std@@V?$allocator@D@2@@std@@@std@@@2@$0A@@std@@@1@$$QAU?$pair@QBDV?$basic_string@DU?$char_traits@D@std@@V?$allocator@D@2@@std@@@1@@Z 100095d0 f i debug.obj
 0001:000086b0       ??A?$map@PBDV?$basic_string@DU?$char_traits@D@std@@V?$allocator@D@2@@std@@U?$less@PBD@2@V?$allocator@U?$pair@QBDV?$basic_string@DU?$char_traits@D@std@@V?$allocator@D@2@@std@@@std@@@2@@std@@QAEAAV?$basic_string@DU?$char_traits@D@std@@V?$allocator@D@2@@1@ABQBD@Z 100096b0 f i debug.obj
 0001:000087c0       ?_load256@@YGXPBD0@Z       100097c0 f   debug.obj
 0001:00008800       ?DBG_load256@@YAXXZ        10009800 f   debug.obj
 0001:00008840       ?GetLength@File@@QAEIXZ    10009840 f   File.obj
 0001:00008850       ?seekg@?$basic_istream@DU?$char_traits@D@std@@@std@@QAEAAV12@V?$fpos@H@2@@Z 10009850 f i File.obj
 0001:000088f0       ?seekg@?$basic_istream@DU?$char_traits@D@std@@@std@@QAEAAV12@_JH@Z 100098f0 f i File.obj
 0001:00008970       ?tellg@?$basic_istream@DU?$char_traits@D@std@@@std@@QAE?AV?$fpos@H@2@XZ 10009970 f i File.obj
 0001:000089d0       ??1?$vector@URecord@FileArchive@@V?$allocator@URecord@FileArchive@@@std@@@std@@QAE@XZ 100099d0 f i File.obj
 0001:000089e0       ?allocate@?$allocator@URecord@FileArchive@@@std@@QAEPAURecord@FileArchive@@I@Z 100099e0 f i File.obj
 0001:00008a40       ?allocate@?$allocator@PAURecord@FileArchive@@@std@@QAEPAPAURecord@FileArchive@@I@Z 10009a40 f i File.obj
 0001:00008a40       ?allocate@?$allocator@I@std@@QAEPAII@Z 10009a40 f i File.obj
 0001:00008aa0       ?Seek@File@@QAEXI@Z        10009aa0 f   File.obj
 0001:00008ad0       ??1Record@FileArchive@@QAE@XZ 10009ad0 f i File.obj
 0001:00008b60       ?reserve@?$vector@IV?$allocator@I@std@@@std@@QAEXI@Z 10009b60 f i File.obj
 0001:00008b60       ?reserve@?$vector@PAURecord@FileArchive@@V?$allocator@PAURecord@FileArchive@@@std@@@std@@QAEXI@Z 10009b60 f i File.obj
 0001:00008be0       ??1?$vector@IV?$allocator@I@std@@@std@@QAE@XZ 10009be0 f i File.obj
 0001:00008be0       ??1?$vector@PAURecord@FileArchive@@V?$allocator@PAURecord@FileArchive@@@std@@@std@@QAE@XZ 10009be0 f i File.obj
 0001:00008c10       ?insert@?$basic_string@DU?$char_traits@D@std@@V?$allocator@D@2@@std@@QAEAAV12@IID@Z 10009c10 f i File.obj
 0001:00008d10       ?_Reserve@?$vector@PAURecord@FileArchive@@V?$allocator@PAURecord@FileArchive@@@std@@@std@@IAEXI@Z 10009d10 f i File.obj
 0001:00008d10       ?_Reserve@?$vector@IV?$allocator@I@std@@@std@@IAEXI@Z 10009d10 f i File.obj
 0001:00008d70       ?read@?$basic_istream@DU?$char_traits@D@std@@@std@@QAEAAV12@PAD_J@Z 10009d70 f i File.obj
 0001:00008ec0       ?push_back@?$vector@IV?$allocator@I@std@@@std@@QAEX$$QAI@Z 10009ec0 f i File.obj
 0001:00008ec0       ?push_back@?$vector@IV?$allocator@I@std@@@std@@QAEXABI@Z 10009ec0 f i File.obj
 0001:00008ec0       ?push_back@?$vector@PAURecord@FileArchive@@V?$allocator@PAURecord@FileArchive@@@std@@@std@@QAEX$$QAPAURecord@FileArchive@@@Z 10009ec0 f i File.obj
 0001:00008f30       ?Read@File@@QAEIPAXI@Z     10009f30 f   File.obj
 0001:00008f90       ??$_Dest_val@V?$allocator@URecord@FileArchive@@@std@@URecord@FileArchive@@@std@@YAXAAV?$allocator@URecord@FileArchive@@@0@PAURecord@FileArchive@@@Z 10009f90 f i File.obj
 0001:00009020       ??0Record@FileArchive@@QAE@XZ 1000a020 f i File.obj
 0001:000090a0       ??$?HDU?$char_traits@D@std@@V?$allocator@D@1@@std@@YA?AV?$basic_string@DU?$char_traits@D@std@@V?$allocator@D@2@@0@PBDABV10@@Z 1000a0a0 f i File.obj
 0001:00009170       ??$_Destroy_range@V?$allocator@URecord@FileArchive@@@std@@@std@@YAXPAURecord@FileArchive@@0AAV?$allocator@URecord@FileArchive@@@0@U_Nonscalar_ptr_iterator_tag@0@@Z 1000a170 f i File.obj
 0001:00009210       ?Close@File@@QAEXXZ        1000a210 f   File.obj
 0001:00009260       ??0File@@QAE@XZ            1000a260 f   File.obj
 0001:000092e0       ??1File@@QAE@XZ            1000a2e0 f i File.obj
 0001:00009370       ?_Tidy@?$vector@URecord@FileArchive@@V?$allocator@URecord@FileArchive@@@std@@@std@@IAEXXZ 1000a370 f i File.obj
 0001:000093c0       ??0?$vector@URecord@FileArchive@@V?$allocator@URecord@FileArchive@@@std@@@std@@QAE@ABV01@@Z 1000a3c0 f i File.obj
 0001:000094a0       ?GetRecord@FileArchive@@QAEABURecord@1@V?$basic_string@DU?$char_traits@D@std@@V?$allocator@D@2@@std@@@Z 1000a4a0 f   File.obj
 0001:000098f0       ?Open@File@@QAE_NV?$basic_string@DU?$char_traits@D@std@@V?$allocator@D@2@@std@@@Z 1000a8f0 f   File.obj
 0001:00009bd0       ?FileExistsEx@@YA_NV?$basic_string@DU?$char_traits@D@std@@V?$allocator@D@2@@std@@@Z 1000abd0 f   File.obj
 0001:00009db0       ??0Record@FileArchive@@QAE@ABU01@@Z 1000adb0 f i File.obj
 0001:00009e60       ??$_Uninit_move@PAURecord@FileArchive@@PAU12@V?$allocator@URecord@FileArchive@@@std@@U12@@std@@YAPAURecord@FileArchive@@PAU12@00AAV?$allocator@URecord@FileArchive@@@0@0U_Nonscalar_ptr_iterator_tag@0@@Z 1000ae60 f i File.obj
 0001:00009f10       ??$_Uninit_copy@V?$_Vector_const_iterator@V?$_Vector_val@URecord@FileArchive@@V?$allocator@URecord@FileArchive@@@std@@@std@@@std@@PAURecord@FileArchive@@V?$allocator@URecord@FileArchive@@@2@@std@@YAPAURecord@FileArchive@@V?$_Vector_const_iterator@V?$_Vector_val@URecord@FileArchive@@V?$allocator@URecord@FileArchive@@@std@@@std@@@0@0PAU12@AAV?$allocator@URecord@FileArchive@@@0@U_Nonscalar_ptr_iterator_tag@0@@Z 1000af10 f i File.obj
 0001:00009fc0       ?reserve@?$vector@URecord@FileArchive@@V?$allocator@URecord@FileArchive@@@std@@@std@@QAEXI@Z 1000afc0 f i File.obj
 0001:0000a0d0       ?_Reserve@?$vector@URecord@FileArchive@@V?$allocator@URecord@FileArchive@@@std@@@std@@IAEXI@Z 1000b0d0 f i File.obj
 0001:0000a150       ?push_back@?$vector@URecord@FileArchive@@V?$allocator@URecord@FileArchive@@@std@@@std@@QAEXABURecord@FileArchive@@@Z 1000b150 f i File.obj
 0001:0000a200       ?Open@FileArchive@@QAE_NV?$basic_string@DU?$char_traits@D@std@@V?$allocator@D@2@@std@@0@Z 1000b200 f   File.obj
 0001:0000ad30       ?GRID_part1@@YAXXZ         1000bd30 f   grid.obj
 0001:0000ad90       ?GRID_part2@@YAXXZ         1000bd90 f   grid.obj
 0001:0000adf0       ?GRID_part3@@YAXXZ         1000bdf0 f   grid.obj
 0001:0000ae50       ?GRID_part4@@YAXXZ         1000be50 f   grid.obj
 0001:0000aec0       ?GRID_part5@@YAXXZ         1000bec0 f   grid.obj
 0001:0000af20       ?OnGMEnter@@YAKKK@Z        1000bf20 f   gui_bugfix.obj
 0001:0000af60       ?GUI_gmEnter@@YAXXZ        1000bf60 f   gui_bugfix.obj
 0001:0000afb0       ?GUI_textField_MeasurePosition@@YGKK@Z 1000bfb0 f   gui_bugfix.obj
 0001:0000b1c0       ?GUI_softcoreSwitch@@YAXXZ 1000c1c0 f   gui_replace.obj
 0001:0000b220       ?GUI_softcoreResetSwitch@@YAXXZ 1000c220 f   gui_replace.obj
 0001:0000b270       ?GUI_softcoreSaveSwitch@@YAXXZ 1000c270 f   gui_replace.obj
 0001:0000b2c0       ??1Image@@QAE@XZ           1000c2c0 f   Image.obj
 0001:0000b2f0       ?GetWidth@Image@@QAEIXZ    1000c2f0 f   Image.obj
 0001:0000b300       ?GetHeight@Image@@QAEIXZ   1000c300 f   Image.obj
 0001:0000b310       ?GetPixels@Image@@QAEPAIXZ 1000c310 f   Image.obj
 0001:0000b320       ??0Image@@QAE@V?$basic_string@DU?$char_traits@D@std@@V?$allocator@D@2@@std@@@Z 1000c320 f   Image.obj
 0001:0000b710       ?IImage_CopyTo@@YGXHHHH@Z  1000c710 f   itempng.obj
 0001:0000b780       ?IImage_Display@@YGXHHHHH@Z 1000c780 f   itempng.obj
 0001:0000b990       ?IImage_Destruct@@YGXK@Z   1000c990 f   itempng.obj
 0001:0000b9d0       ?IImage_Construct@@YGPAXV?$basic_string@DU?$char_traits@D@std@@V?$allocator@D@2@@std@@@Z 1000c9d0 f   itempng.obj
 0001:0000bad0       ?ITEMPNG_doLoadPngChar@@YGPAXPBD0@Z 1000cad0 f   itempng.obj
 0001:0000bc50       ?ITEMPNG_loadPngChar@@YAXXZ 1000cc50 f   itempng.obj
 0001:0000bc80       ??$?HDU?$char_traits@D@std@@V?$allocator@D@1@@std@@YA?AV?$basic_string@DU?$char_traits@D@std@@V?$allocator@D@2@@0@$$QAV10@PBD@Z 1000cc80 f i itempng.obj
 0001:0000bcd0       ?ITEMPNG_doLoadPng@@YGXPBDH00@Z 1000ccd0 f   itempng.obj
 0001:0000c100       ?ITEMPNG_loadPng@@YAXXZ    1000d100 f   itempng.obj
 0001:0000c160       ?P_UnloadTiles@@YAXXZ      1000d160 f   landscape_renderer.obj
 0001:0000c1d0       ?P_DisplayTileNative@@YGXGHHHHHHIIII@Z 1000d1d0 f   landscape_renderer.obj
 0001:0000c220       ?TILES_displayTile1@@YAXXZ 1000d220 f   landscape_renderer.obj
 0001:0000c270       ?P_LoadTiles@@YAXXZ        1000d270 f   landscape_renderer.obj
 0001:0000c570       ?P_LoadTilesNative@@YGXI@Z 1000d570 f   landscape_renderer.obj
 0001:0000c590       ?TILES_loadTiles@@YAXXZ    1000d590 f   landscape_renderer.obj
 0001:0000c5c0       ?DecideLanguage@@YAXXZ     1000d5c0 f   language.obj
 0001:0000c880       ?LANG_change_43EDEB@@YAXXZ 1000d880 f   language.obj
 0001:0000c8b0       ?LANG_change_474F27@@YAXXZ 1000d8b0 f   language.obj
 0001:0000c8d0       ?LANG_change_48626D@@YAXXZ 1000d8d0 f   language.obj
 0001:0000c9f0       ?LANG_change_48BA07@@YAXXZ 1000d9f0 f   language.obj
 0001:0000ca10       ?LANG_change_48CA55@@YAXXZ 1000da10 f   language.obj
 0001:0000ca30       ?LANG_change_491CDF@@YAXXZ 1000da30 f   language.obj
 0001:0000ca50       ?LANG_change_4939A2@@YAXXZ 1000da50 f   language.obj
 0001:0000ca70       ?LANG_change_493B23@@YAXXZ 1000da70 f   language.obj
 0001:0000ca90       ?LANG_change_4B018F@@YAXXZ 1000da90 f   language.obj
 0001:0000cab0       ?LANG_change_42B3D5@@YAXXZ 1000dab0 f   language.obj
 0001:0000cac0       ?LANG_change_43EEC3@@YAXXZ 1000dac0 f   language.obj
 0001:0000cae0       ?LANG_change_460F9B@@YAXXZ 1000dae0 f   language.obj
 0001:0000caf0       ?LANG_change_474375@@YAXXZ 1000daf0 f   language.obj
 0001:0000cb00       ?LANG_change_4743C9@@YAXXZ 1000db00 f   language.obj
 0001:0000cb10       ?LANG_change_496638@@YAXXZ 1000db10 f   language.obj
 0001:0000cb20       ?LANG_change_4AEE20@@YAXXZ 1000db20 f   language.obj
 0001:0000cb30       ?LANG_change_4AEE6D@@YAXXZ 1000db30 f   language.obj
 0001:0000cb40       ?LANG_change_4AEF2A@@YAXXZ 1000db40 f   language.obj
 0001:0000cb60       ?LANG_change_4AEF9C@@YAXXZ 1000db60 f   language.obj
 0001:0000cb80       ?LANG_change_4AF00E@@YAXXZ 1000db80 f   language.obj
 0001:0000cba0       ?LANG_fix_codepage@@YAXXZ  1000dba0 f   language.obj
 0001:0000cbc0       ?insert@?$basic_string@DU?$char_traits@D@std@@V?$allocator@D@2@@std@@QAEAAV12@IABV12@II@Z 1000dbc0 f i map_location.obj
 0001:0000cd40       ?insert@?$basic_string@DU?$char_traits@D@std@@V?$allocator@D@2@@std@@QAEAAV12@IPBDI@Z 1000dd40 f i map_location.obj
 0001:0000ce90       ??$?HDU?$char_traits@D@std@@V?$allocator@D@1@@std@@YA?AV?$basic_string@DU?$char_traits@D@std@@V?$allocator@D@2@@0@PBD$$QAV10@@Z 1000de90 f i map_location.obj
 0001:0000cee0       ?get_map_name@@YGPBDPBD@Z  1000dee0 f   map_location.obj
 0001:0000cfd0       ?move_map_file@@YGXPBD0@Z  1000dfd0 f   map_location.obj
 0001:0000d170       ?MAP_loadFromServer@@YAXXZ 1000e170 f   map_location.obj
 0001:0000d190       ?MAP_CFileOpen1@@YAXXZ     1000e190 f   map_location.obj
 0001:0000d1b0       ?MAP_CFileOpen2@@YAXXZ     1000e1b0 f   map_location.obj
 0001:0000d1d0       ?SYSTEM_setThreadPriority@@YAXXZ 1000e1d0 f   misc.obj
 0001:0000d1d0       ?logEscape@@YGXKE@Z        1000e1d0 f   chat_history.obj
 0001:0000d1e0       ?crypt@@YAXPAEPBEH@Z       1000e1e0 f   network_crypt.obj
 0001:0000d230       ?NET_cryptPacket@@YAXPAEH@Z 1000e230 f   network_crypt.obj
 0001:0000d250       ?HATENT_url_text@@YAXXZ    1000e250 f   network_hat_enter.obj
 0001:0000d290       ?HATENT_url_connect@@YAXXZ 1000e290 f   network_hat_enter.obj
 0001:0000d2c0       ?crcmain@@YGXPAD@Z         1000e2c0 f   network_protocol.obj
 0001:0000d470       ?NETPROTO_sendAuthorizationPacket@@YAHXZ 1000e470 f   network_protocol.obj
 0001:0000d4e0       ?NETPROTO_createAuthorizationPacket@@YAHXZ 1000e4e0 f   network_protocol.obj
 0001:0000d5d0       ?recv_@@YGHIPADHH@Z        1000e5d0 f   network_protocol.obj
 0001:0000d7e0       ?NETPROTO_enlargeBuffer@@YAXXZ 1000e7e0 f   network_protocol.obj
 0001:0000d810       ?NETPROTO_enlargeBuffer2@@YAXXZ 1000e810 f   network_protocol.obj
 0001:0000d820       ?real_4949CD@@YAHXZ        1000e820 f   network_protocol_ext.obj
 0001:0000d840       ?NETPROTO_showErrorDialog@@YAHPBDH@Z 1000e840 f   network_protocol_ext.obj
 0001:0000d8a0       ?NETPROTO_hhEndReply@@YAXPBVResponse@happyhttp@@PAX@Z 1000e8a0 f   network_protocol_ext.obj
 0001:0000d8c0       ?Cl_ProcessServerPacket@@YA_NAAVBinaryStream@@@Z 1000e8c0 f   network_protocol_ext.obj
 0001:0000d8c0       ?do_always_noconv@codecvt_base@std@@MBE_NXZ 1000e8c0 f   config.obj
 0001:0000d8d0       ??1NETPROTO_fileProgress@@QAE@XZ 1000e8d0 f i network_protocol_ext.obj
 0001:0000d920       ??0NETPROTO_fileProgress@@QAE@XZ 1000e920 f i network_protocol_ext.obj
 0001:0000d9c0       ?NETPROTO_hhStartReply@@YAXPBVResponse@happyhttp@@PAX@Z 1000e9c0 f   network_protocol_ext.obj
 0001:0000dab0       ?NETPROTO_hhReadReply@@YAXPBVResponse@happyhttp@@PAXPBEH@Z 1000eab0 f   network_protocol_ext.obj
 0001:0000de80       ?CurlEscape2@@YA?AV?$basic_string@DU?$char_traits@D@std@@V?$allocator@D@2@@std@@V12@@Z 1000ee80 f   network_protocol_ext.obj
 0001:0000df80       ?NETPROTO_hhGetBlockingReply@@YA?AV?$basic_string@DU?$char_traits@D@std@@V?$allocator@D@2@@std@@V12@00@Z 1000ef80 f   network_protocol_ext.obj
 0001:0000e160       ?NETPROTO_loginToHat@@YGHXZ 1000f160 f   network_protocol_ext.obj
 0001:0000ec00       ?PSCRL_rep@@YGKK@Z         1000fc00 f   pack_scrolling.obj
 0001:0000ecd0       ?PSCRL_gameInventory@@YAXXZ 1000fcd0 f   pack_scrolling.obj
 0001:0000ed60       ?PSCRL_shopShelfOnKeyDown@@YAXXZ 1000fd60 f   pack_scrolling.obj
 0001:0000eda0       ?PSCRL_InitializeInjection@@YAXXZ 1000fda0 f   pack_scrolling.obj
 0001:0000edc0       ?RES_loadException@@YAXXZ  1000fdc0 f   resource_control.obj
 0001:0000edd0       ?RES_loadDirectories@@YAXXZ 1000fdd0 f   resource_control.obj
 0001:0000ee00       ?TestGraphics@@YG_NPBD@Z   1000fe00 f   resource_control.obj
 0001:0000ee20       ?RES_loadFile@@YAHH@Z      1000fe20 f   resource_control.obj
 0001:0000eed0       ?FIL_world0@@YAXXZ         1000fed0 f   resource_files_replace.obj
 0001:0000eef0       ?FIL_world1@@YAXXZ         1000fef0 f   resource_files_replace.obj
 0001:0000ef10       ?FIL_world2@@YAXXZ         1000ff10 f   resource_files_replace.obj
 0001:0000ef30       ?FIL_world3@@YAXXZ         1000ff30 f   resource_files_replace.obj
 0001:0000ef40       ?FIL_world4@@YAXXZ         1000ff40 f   resource_files_replace.obj
 0001:0000ef50       ?FIL_world5@@YAXXZ         1000ff50 f   resource_files_replace.obj
 0001:0000ef60       ?FIL_world6@@YAXXZ         1000ff60 f   resource_files_replace.obj
 0001:0000ef70       ?FIL_world7@@YAXXZ         1000ff70 f   resource_files_replace.obj
 0001:0000ef90       ?FIL_world8@@YAXXZ         1000ff90 f   resource_files_replace.obj
 0001:0000efa0       ?FIL_world9@@YAXXZ         1000ffa0 f   resource_files_replace.obj
 0001:0000efb0       ?FIL_worldA@@YAXXZ         1000ffb0 f   resource_files_replace.obj
 0001:0000efc0       ?FIL_patch0@@YAXXZ         1000ffc0 f   resource_files_replace.obj
 0001:0000efd0       ?FIL_patch1@@YAXXZ         1000ffd0 f   resource_files_replace.obj
 0001:0000eff0       ?a2mgr_CheckValid@@YA_NFF@Z 1000fff0 f   scanrange.obj
 0001:0000f050       ?a2mgr_GetHeight@@YAEFF@Z  10010050 f   scanrange.obj
 0001:0000f0b0       ?CalcVisMapCLIENT@@YGHPAD@Z 100100b0 f   scanrange.obj
 0001:0000f130       ?GetEncoderClsid@@YAHPB_WPAU_GUID@@@Z 10010130 f   screenshot.obj
 0001:0000f210       ?SCREENSHOT_take@@YAXXZ    10010210 f   screenshot.obj
 0001:0000f5c0       ?SCROLL_part1@@YAXXZ       100105c0 f   scrolling.obj
 0001:0000f620       ?SCROLL_part2@@YAXXZ       10010620 f   scrolling.obj
 0001:0000f650       ??1?$basic_ostream@DU?$char_traits@D@std@@@std@@UAE@XZ 10010650 f i serialize.obj
 0001:0000f660       ??1_Sentry_base@?$basic_istream@DU?$char_traits@D@std@@@std@@QAE@XZ 10010660 f i config.obj
 0001:0000f660       ??1sentry@?$basic_istream@DU?$char_traits@D@std@@@std@@QAE@XZ 10010660 f i config.obj
 0001:0000f660       ??1_Sentry_base@?$basic_ostream@DU?$char_traits@D@std@@@std@@QAE@XZ 10010660 f i serialize.obj
 0001:0000f680       ??_E?$basic_ostream@DU?$char_traits@D@std@@@std@@UAEPAXI@Z 10010680 f i serialize.obj
 0001:0000f680       ??_G?$basic_ostream@DU?$char_traits@D@std@@@std@@UAEPAXI@Z 10010680 f i serialize.obj
 0001:0000f6c0       ?allocate@?$allocator@E@std@@QAEPAEI@Z 100106c0 f i serialize.obj
 0001:0000f6c0       ?allocate@?$allocator@D@std@@QAEPADI@Z 100106c0 f i a2mgr.obj
 0001:0000f710       ?_Osfx@?$basic_ostream@DU?$char_traits@D@std@@@std@@QAEXXZ 10010710 f i serialize.obj
 0001:0000f770       ?reserve@?$vector@EV?$allocator@E@std@@@std@@QAEXI@Z 10010770 f i serialize.obj
 0001:0000f7e0       ??1sentry@?$basic_ostream@DU?$char_traits@D@std@@@std@@QAE@XZ 100107e0 f i serialize.obj
 0001:0000f850       ??0?$basic_ofstream@DU?$char_traits@D@std@@@std@@QAE@XZ 10010850 f i serialize.obj
 0001:0000f980       ??1?$basic_ofstream@DU?$char_traits@D@std@@@std@@UAE@XZ 10010980 f i serialize.obj
 0001:0000fa30       ??_G?$basic_ofstream@DU?$char_traits@D@std@@@std@@UAEPAXI@Z 10010a30 f i serialize.obj
 0001:0000fa30       ??_E?$basic_ofstream@DU?$char_traits@D@std@@@std@@UAEPAXI@Z 10010a30 f i serialize.obj
 0001:0000fa70       ?IsWhitespace@@YA_ND@Z     10010a70 f   utils.obj
 0001:0000fba0       ?_call_func@@YAKKKZZ       10010ba0 f   utils.obj
 0001:0000fbd0       ?_call_member_func@@YAKKKKZZ 10010bd0 f   utils.obj
 0001:0000fc00       ?_get_this@@YAKXZ          10010c00 f   utils.obj
 0001:0000fc10       ?StrToInt@@YAKABV?$basic_string@DU?$char_traits@D@std@@V?$allocator@D@2@@std@@@Z 10010c10 f   utils.obj
 0001:0000fc40       ?CheckInteger@@YA_NABV?$basic_string@DU?$char_traits@D@std@@V?$allocator@D@2@@std@@@Z 10010c40 f   utils.obj
 0001:0000fc90       ??$?6U?$char_traits@D@std@@@std@@YAAAV?$basic_ostream@DU?$char_traits@D@std@@@0@AAV10@PBD@Z 10010c90 f i utils.obj
 0001:0000ff50       ?Format@@YA?AV?$basic_string@DU?$char_traits@D@std@@V?$allocator@D@2@@std@@V12@ZZ 10010f50 f   utils.obj
 0001:00010010       ?log_format@@YAXPADZZ      10011010 f   utils.obj
 0001:00010170       ?log_format2@@YAXPADZZ     10011170 f   utils.obj
 0001:00010280       ?TrimLeft@@YA?AV?$basic_string@DU?$char_traits@D@std@@V?$allocator@D@2@@std@@ABV12@P6A_ND@Z@Z 10011280 f   utils.obj
 0001:00010400       ?TrimRight@@YA?AV?$basic_string@DU?$char_traits@D@std@@V?$allocator@D@2@@std@@ABV12@P6A_ND@Z@Z 10011400 f   utils.obj
 0001:00010590       ?Trim@@YA?AV?$basic_string@DU?$char_traits@D@std@@V?$allocator@D@2@@std@@ABV12@P6A_ND@Z@Z 10011590 f   utils.obj
 0001:00010620       ?ToLower@@YA?AV?$basic_string@DU?$char_traits@D@std@@V?$allocator@D@2@@std@@ABV12@@Z 10011620 f   utils.obj
 0001:00010690       ?StrToBoolean@@YA_NABV?$basic_string@DU?$char_traits@D@std@@V?$allocator@D@2@@std@@@Z 10011690 f   utils.obj
 0001:00010820       ?Basename@@YA?AV?$basic_string@DU?$char_traits@D@std@@V?$allocator@D@2@@std@@ABV12@@Z 10011820 f   utils.obj
 0001:00010900       ?Dirname@@YA?AV?$basic_string@DU?$char_traits@D@std@@V?$allocator@D@2@@std@@ABV12@@Z 10011900 f   utils.obj
 0001:000109e0       ?FixSlashes@@YA?AV?$basic_string@DU?$char_traits@D@std@@V?$allocator@D@2@@std@@ABV12@@Z 100119e0 f   utils.obj
 0001:00010a40       ?TruncateSlashes@@YA?AV?$basic_string@DU?$char_traits@D@std@@V?$allocator@D@2@@std@@ABV12@@Z 10011a40 f   utils.obj
 0001:00010b10       ??$_Uninit_def_fill_n@PAV?$basic_string@DU?$char_traits@D@std@@V?$allocator@D@2@@std@@IV12@V?$allocator@V?$basic_string@DU?$char_traits@D@std@@V?$allocator@D@2@@std@@@2@V12@@std@@YAXPAV?$basic_string@DU?$char_traits@D@std@@V?$allocator@D@2@@0@IPBV10@AAV?$allocator@V?$basic_string@DU?$char_traits@D@std@@V?$allocator@D@2@@std@@@0@0U_Nonscalar_ptr_iterator_tag@0@@Z 10011b10 f i utils.obj
 0001:00010c10       ?FileExists@@YA_NABV?$basic_string@DU?$char_traits@D@std@@V?$allocator@D@2@@std@@@Z 10011c10 f   utils.obj
 0001:00010d60       ?resize@?$vector@V?$basic_string@DU?$char_traits@D@std@@V?$allocator@D@2@@std@@V?$allocator@V?$basic_string@DU?$char_traits@D@std@@V?$allocator@D@2@@std@@@2@@std@@QAEXI@Z 10011d60 f i utils.obj
 0001:00010e40       ?ParseCommandLine@@YA?AV?$vector@V?$basic_string@DU?$char_traits@D@std@@V?$allocator@D@2@@std@@V?$allocator@V?$basic_string@DU?$char_traits@D@std@@V?$allocator@D@2@@std@@@2@@std@@V?$basic_string@DU?$char_traits@D@std@@V?$allocator@D@2@@2@@Z 10011e40 f   utils.obj
 0001:000118a0       ?Explode@@YA?AV?$vector@V?$basic_string@DU?$char_traits@D@std@@V?$allocator@D@2@@std@@V?$allocator@V?$basic_string@DU?$char_traits@D@std@@V?$allocator@D@2@@std@@@2@@std@@ABV?$basic_string@DU?$char_traits@D@std@@V?$allocator@D@2@@2@0@Z 100128a0 f   utils.obj
 0001:000119c0       ?get_res@@YGXPAH0@Z        100129c0 f   video_init.obj
 0001:00011d30       ?VIDEO_checkVideoMode@@YAXXZ 10012d30 f   video_init.obj
 0001:00011d50       ?AfxGetMainWnd@zxmgr@@YAKXZ 10012d50 f   zxmgr.obj
 0001:00011d70       ?GetClientRect@GUI@zxmgr@@YAXKPAUtagRECT@@@Z 10012d70 f   zxmgr.obj
 0001:00011da0       ?DrawText@Font@zxmgr@@YAXKHHPBDKKK@Z 10012da0 f   zxmgr.obj
 0001:00011dd0       ?MeasureTextWidth@Font@zxmgr@@YAKKPBD@Z 10012dd0 f   zxmgr.obj
 0001:00011df0       ?WriteChatRaw@zxmgr@@YAXPBD@Z 10012df0 f   zxmgr.obj
 0001:00011e30       ?WriteChat@zxmgr@@YAXPBDZZ 10012e30 f   zxmgr.obj
 0001:00011e80       ?FillRect@zxmgr@@YAXHHHHK@Z 10012e80 f   zxmgr.obj
 0001:00011ea0       ?UpdateScreen@zxmgr@@YAXXZ 10012ea0 f   zxmgr.obj
 0001:00011eb0       ?GetPatchString@zxmgr@@YAPADK@Z 10012eb0 f   zxmgr.obj
 0001:00011ed0       ?LockBuffer@zxmgr@@YAXXZ   10012ed0 f   zxmgr.obj
 0001:00011ee0       ?UnlockBuffer@zxmgr@@YAXXZ 10012ee0 f   zxmgr.obj
 0001:00011ef0       ?DisplayMouse@zxmgr@@YAXXZ 10012ef0 f   zxmgr.obj
 0001:00011f00       ?GetHWND@zxmgr@@YAPAUHWND__@@XZ 10012f00 f   zxmgr.obj
 0001:00011f30       ?DoMessageLoop@zxmgr@@YAXXZ 10012f30 f   zxmgr.obj
 0001:00011f90       ?AfxAbort@zxmgr@@YAXXZ     10012f90 f   zxmgr.obj
 0001:00011fa0       ?sync@?$basic_streambuf@DU?$char_traits@D@std@@@std@@MAEHXZ 10012fa0 f i config.obj
 0001:00011fa0       ?PopulateWindow@CWindow@GUI@zxmgr@@SAKKPAUtagRECT@@@Z 10012fa0 f i zxmgr_gui.obj
 0001:00011fa0       ?OnMessage@CWindow@GUI@zxmgr@@SAKKKK@Z 10012fa0 f i zxmgr_gui.obj
 0001:00011fc0       ?GetWinsockErrorString@happyhttp@@YAPBDH@Z 10012fc0 f   happyhttp.obj
 0001:00012290       ??0Wobbly@happyhttp@@QAA@PBDZZ 10013290 f   happyhttp.obj
 0001:000122c0       ?setcallbacks@Connection@happyhttp@@QAEXP6AXPBVResponse@2@PAX@ZP6AX01PBEH@Z21@Z 100132c0 f   happyhttp.obj
 0001:000122e0       ?getstatus@Response@happyhttp@@QBEHXZ 100132e0 f   happyhttp.obj
 0001:000122f0       ?ProcessDataChunked@Response@happyhttp@@AAEHPBEH@Z 100132f0 f   happyhttp.obj
 0001:00012340       ?_Max@?$_Tree_val@V?$_Tmap_traits@V?$basic_string@DU?$char_traits@D@std@@V?$allocator@D@2@@std@@V12@U?$less@V?$basic_string@DU?$char_traits@D@std@@V?$allocator@D@2@@std@@@2@V?$allocator@U?$pair@$$CBV?$basic_string@DU?$char_traits@D@std@@V?$allocator@D@2@@std@@V12@@std@@@2@$0A@@std@@@std@@SAPAU_Node@?$_Tree_nod@V?$_Tmap_traits@V?$basic_string@DU?$char_traits@D@std@@V?$allocator@D@2@@std@@V12@U?$less@V?$basic_string@DU?$char_traits@D@std@@V?$allocator@D@2@@std@@@2@V?$allocator@U?$pair@$$CBV?$basic_string@DU?$char_traits@D@std@@V?$allocator@D@2@@std@@V12@@std@@@2@$0A@@std@@@2@PAU342@@Z 10013340 f i happyhttp.obj
 0001:00012360       ?_Min@?$_Tree_val@V?$_Tmap_traits@V?$basic_string@DU?$char_traits@D@std@@V?$allocator@D@2@@std@@V12@U?$less@V?$basic_string@DU?$char_traits@D@std@@V?$allocator@D@2@@std@@@2@V?$allocator@U?$pair@$$CBV?$basic_string@DU?$char_traits@D@std@@V?$allocator@D@2@@std@@V12@@std@@@2@$0A@@std@@@std@@SAPAU_Node@?$_Tree_nod@V?$_Tmap_traits@V?$basic_string@DU?$char_traits@D@std@@V?$allocator@D@2@@std@@V12@U?$less@V?$basic_string@DU?$char_traits@D@std@@V?$allocator@D@2@@std@@@2@V?$allocator@U?$pair@$$CBV?$basic_string@DU?$char_traits@D@std@@V?$allocator@D@2@@std@@V12@@std@@@2@$0A@@std@@@2@PAU342@@Z 10013360 f i happyhttp.obj
 0001:00012380       ??E?$_Tree_unchecked_const_iterator@V?$_Tree_val@V?$_Tmap_traits@V?$basic_string@DU?$char_traits@D@std@@V?$allocator@D@2@@std@@V12@U?$less@V?$basic_string@DU?$char_traits@D@std@@V?$allocator@D@2@@std@@@2@V?$allocator@U?$pair@$$CBV?$basic_string@DU?$char_traits@D@std@@V?$allocator@D@2@@std@@V12@@std@@@2@$0A@@std@@@std@@U_Iterator_base0@2@@std@@QAEAAV01@XZ 10013380 f i happyhttp.obj
 0001:000123d0       ??F?$_Tree_unchecked_const_iterator@V?$_Tree_val@V?$_Tmap_traits@V?$basic_string@DU?$char_traits@D@std@@V?$allocator@D@2@@std@@V12@U?$less@V?$basic_string@DU?$char_traits@D@std@@V?$allocator@D@2@@std@@@2@V?$allocator@U?$pair@$$CBV?$basic_string@DU?$char_traits@D@std@@V?$allocator@D@2@@std@@V12@@std@@@2@$0A@@std@@@std@@U_Iterator_base0@2@@std@@QAEAAV01@XZ 100133d0 f i happyhttp.obj
 0001:00012430       ?BailOnSocketError@happyhttp@@YAXPBD@Z 10013430 f   happyhttp.obj
 0001:00012490       ?datawaiting@happyhttp@@YA_NH@Z 10013490 f   happyhttp.obj
 0001:00012510       ?notifyconnectionclosed@Response@happyhttp@@IAEXXZ 10013510 f   happyhttp.obj
 0001:000125a0       ?ProcessDataNonChunked@Response@happyhttp@@AAEHPBEH@Z 100135a0 f   happyhttp.obj
 0001:00012610       ??1?$_Tree_val@V?$_Tmap_traits@KV?$basic_string@DU?$char_traits@D@std@@V?$allocator@D@2@@std@@U?$less@K@2@V?$allocator@U?$pair@$$CBKV?$basic_string@DU?$char_traits@D@std@@V?$allocator@D@2@@std@@@std@@@2@$0A@@std@@@std@@QAE@XZ 10013610 f i debug.obj
 0001:00012610       ??1?$_Tree_val@V?$_Tmap_traits@PAXPAXU?$less@PAX@std@@V?$allocator@U?$pair@QAXPAX@std@@@2@$0A@@std@@@std@@QAE@XZ 10013610 f i class_extend.obj
 0001:00012610       ??1?$_Tree_val@V?$_Tmap_traits@V?$basic_string@DU?$char_traits@D@std@@V?$allocator@D@2@@std@@V12@U?$less@V?$basic_string@DU?$char_traits@D@std@@V?$allocator@D@2@@std@@@2@V?$allocator@U?$pair@$$CBV?$basic_string@DU?$char_traits@D@std@@V?$allocator@D@2@@std@@V12@@std@@@2@$0A@@std@@@std@@QAE@XZ 10013610 f i happyhttp.obj
 0001:00012610       ??1?$_Tree_val@V?$_Tmap_traits@PBDV?$basic_string@DU?$char_traits@D@std@@V?$allocator@D@2@@std@@U?$less@PBD@2@V?$allocator@U?$pair@QBDV?$basic_string@DU?$char_traits@D@std@@V?$allocator@D@2@@std@@@std@@@2@$0A@@std@@@std@@QAE@XZ 10013610 f i debug.obj
 0001:00012620       ?_Lrotate@?$_Tree@V?$_Tmap_traits@V?$basic_string@DU?$char_traits@D@std@@V?$allocator@D@2@@std@@V12@U?$less@V?$basic_string@DU?$char_traits@D@std@@V?$allocator@D@2@@std@@@2@V?$allocator@U?$pair@$$CBV?$basic_string@DU?$char_traits@D@std@@V?$allocator@D@2@@std@@V12@@std@@@2@$0A@@std@@@std@@IAEXPAU_Node@?$_Tree_nod@V?$_Tmap_traits@V?$basic_string@DU?$char_traits@D@std@@V?$allocator@D@2@@std@@V12@U?$less@V?$basic_string@DU?$char_traits@D@std@@V?$allocator@D@2@@std@@@2@V?$allocator@U?$pair@$$CBV?$basic_string@DU?$char_traits@D@std@@V?$allocator@D@2@@std@@V12@@std@@@2@$0A@@std@@@2@@Z 10013620 f i happyhttp.obj
 0001:00012680       ?_Rrotate@?$_Tree@V?$_Tmap_traits@V?$basic_string@DU?$char_traits@D@std@@V?$allocator@D@2@@std@@V12@U?$less@V?$basic_string@DU?$char_traits@D@std@@V?$allocator@D@2@@std@@@2@V?$allocator@U?$pair@$$CBV?$basic_string@DU?$char_traits@D@std@@V?$allocator@D@2@@std@@V12@@std@@@2@$0A@@std@@@std@@IAEXPAU_Node@?$_Tree_nod@V?$_Tmap_traits@V?$basic_string@DU?$char_traits@D@std@@V?$allocator@D@2@@std@@V12@U?$less@V?$basic_string@DU?$char_traits@D@std@@V?$allocator@D@2@@std@@@2@V?$allocator@U?$pair@$$CBV?$basic_string@DU?$char_traits@D@std@@V?$allocator@D@2@@std@@V12@@std@@@2@$0A@@std@@@2@@Z 10013680 f i happyhttp.obj
 0001:000126e0       ?connect@Connection@happyhttp@@QAEXXZ 100136e0 f   happyhttp.obj
 0001:000127e0       ?send@Connection@happyhttp@@QAEXPBEH@Z 100137e0 f   happyhttp.obj
 0001:00012830       ??$_Transform@PADV?$_String_iterator@DU?$char_traits@D@std@@V?$allocator@D@2@@std@@P6AHH@Z@std@@YA?AV?$_String_iterator@DU?$char_traits@D@std@@V?$allocator@D@2@@0@PAD0V10@P6AHH@Z@Z 10013830 f i happyhttp.obj
 0001:00012870       ?pop_front@?$deque@PAVResponse@happyhttp@@V?$allocator@PAVResponse@happyhttp@@@std@@@std@@QAEXXZ 10013870 f i happyhttp.obj
 0001:000128a0       ??1?$pair@$$CBV?$basic_string@DU?$char_traits@D@std@@V?$allocator@D@2@@std@@V12@@std@@QAE@XZ 100138a0 f i happyhttp.obj
 0001:000128f0       ?begin@?$deque@PAVResponse@happyhttp@@V?$allocator@PAVResponse@happyhttp@@@std@@@std@@QAE?AV?$_Deque_iterator@PAVResponse@happyhttp@@V?$allocator@PAVResponse@happyhttp@@@std@@@2@XZ 100138f0 f i happyhttp.obj
 0001:00012910       ?_Growmap@?$deque@PAVResponse@happyhttp@@V?$allocator@PAVResponse@happyhttp@@@std@@@std@@IAEXI@Z 10013910 f i happyhttp.obj
 0001:00012aa0       ??R?$less@V?$basic_string@DU?$char_traits@D@std@@V?$allocator@D@2@@std@@@std@@QBE_NABV?$basic_string@DU?$char_traits@D@std@@V?$allocator@D@2@@1@0@Z 10013aa0 f i happyhttp.obj
 0001:00012ad0       ?_Lbound@?$_Tree@V?$_Tmap_traits@V?$basic_string@DU?$char_traits@D@std@@V?$allocator@D@2@@std@@V12@U?$less@V?$basic_string@DU?$char_traits@D@std@@V?$allocator@D@2@@std@@@2@V?$allocator@U?$pair@$$CBV?$basic_string@DU?$char_traits@D@std@@V?$allocator@D@2@@std@@V12@@std@@@2@$0A@@std@@@std@@IAEPAU_Node@?$_Tree_nod@V?$_Tmap_traits@V?$basic_string@DU?$char_traits@D@std@@V?$allocator@D@2@@std@@V12@U?$less@V?$basic_string@DU?$char_traits@D@std@@V?$allocator@D@2@@std@@@2@V?$allocator@U?$pair@$$CBV?$basic_string@DU?$char_traits@D@std@@V?$allocator@D@2@@std@@V12@@std@@@2@$0A@@std@@@2@ABV?$basic_string@DU?$char_traits@D@std@@V?$allocator@D@2@@2@@Z 10013ad0 f i happyhttp.obj
 0001:00012ad0       ?_Lbound@?$_Tree@V?$_Tmap_traits@V?$basic_string@DU?$char_traits@D@std@@V?$allocator@D@2@@std@@V12@U?$less@V?$basic_string@DU?$char_traits@D@std@@V?$allocator@D@2@@std@@@2@V?$allocator@U?$pair@$$CBV?$basic_string@DU?$char_traits@D@std@@V?$allocator@D@2@@std@@V12@@std@@@2@$0A@@std@@@std@@IBEPAU_Node@?$_Tree_nod@V?$_Tmap_traits@V?$basic_string@DU?$char_traits@D@std@@V?$allocator@D@2@@std@@V12@U?$less@V?$basic_string@DU?$char_traits@D@std@@V?$allocator@D@2@@std@@@2@V?$allocator@U?$pair@$$CBV?$basic_string@DU?$char_traits@D@std@@V?$allocator@D@2@@std@@V12@@std@@@2@$0A@@std@@@2@ABV?$basic_string@DU?$char_traits@D@std@@V?$allocator@D@2@@2@@Z 10013ad0 f i happyhttp.obj
 0001:00012b60       ?front@?$deque@PAVResponse@happyhttp@@V?$allocator@PAVResponse@happyhttp@@@std@@@std@@QAEAAPAVResponse@happyhttp@@XZ 10013b60 f i happyhttp.obj
 0001:00012ba0       ?push_back@?$deque@PAVResponse@happyhttp@@V?$allocator@PAVResponse@happyhttp@@@std@@@std@@QAEXABQAVResponse@happyhttp@@@Z 10013ba0 f i happyhttp.obj
 0001:00012c50       ?_Tidy@?$deque@PAVResponse@happyhttp@@V?$allocator@PAVResponse@happyhttp@@@std@@@std@@IAEXXZ 10013c50 f i happyhttp.obj
 0001:00012cc0       ??1?$deque@PAVResponse@happyhttp@@V?$allocator@PAVResponse@happyhttp@@@std@@@std@@QAE@XZ 10013cc0 f i happyhttp.obj
 0001:00012ce0       ?ProcessStatusLine@Response@happyhttp@@AAEXABV?$basic_string@DU?$char_traits@D@std@@V?$allocator@D@2@@std@@@Z 10013ce0 f   happyhttp.obj
 0001:00013130       ??$_Dest_val@V?$allocator@U?$pair@$$CBV?$basic_string@DU?$char_traits@D@std@@V?$allocator@D@2@@std@@V12@@std@@@std@@U?$pair@$$CBV?$basic_string@DU?$char_traits@D@std@@V?$allocator@D@2@@std@@V12@@2@@std@@YAXAAV?$allocator@U?$pair@$$CBV?$basic_string@DU?$char_traits@D@std@@V?$allocator@D@2@@std@@V12@@std@@@0@PAU?$pair@$$CBV?$basic_string@DU?$char_traits@D@std@@V?$allocator@D@2@@std@@V12@@0@@Z 10014130 f i happyhttp.obj
 0001:00013180       ?_Insert@?$_Tree@V?$_Tmap_traits@V?$basic_string@DU?$char_traits@D@std@@V?$allocator@D@2@@std@@V12@U?$less@V?$basic_string@DU?$char_traits@D@std@@V?$allocator@D@2@@std@@@2@V?$allocator@U?$pair@$$CBV?$basic_string@DU?$char_traits@D@std@@V?$allocator@D@2@@std@@V12@@std@@@2@$0A@@std@@@std@@IAE?AV?$_Tree_iterator@V?$_Tree_val@V?$_Tmap_traits@V?$basic_string@DU?$char_traits@D@std@@V?$allocator@D@2@@std@@V12@U?$less@V?$basic_string@DU?$char_traits@D@std@@V?$allocator@D@2@@std@@@2@V?$allocator@U?$pair@$$CBV?$basic_string@DU?$char_traits@D@std@@V?$allocator@D@2@@std@@V12@@std@@@2@$0A@@std@@@std@@@2@_NPAU_Node@?$_Tree_nod@V?$_Tmap_traits@V?$basic_string@DU?$char_traits@D@std@@V?$allocator@D@2@@std@@V12@U?$less@V?$basic_string@DU?$char_traits@D@std@@V?$allocator@D@2@@std@@@2@V?$allocator@U?$pair@$$CBV?$basic_string@DU?$char_traits@D@std@@V?$allocator@D@2@@std@@V12@@std@@@2@$0A@@std@@@2@1@Z 10014180 f i happyhttp.obj
 0001:000133e0       ?getheader@Response@happyhttp@@QBEPBDPBD@Z 100143e0 f   happyhttp.obj
 0001:00013550       ?erase@?$_Tree@V?$_Tmap_traits@V?$basic_string@DU?$char_traits@D@std@@V?$allocator@D@2@@std@@V12@U?$less@V?$basic_string@DU?$char_traits@D@std@@V?$allocator@D@2@@std@@@2@V?$allocator@U?$pair@$$CBV?$basic_string@DU?$char_traits@D@std@@V?$allocator@D@2@@std@@V12@@std@@@2@$0A@@std@@@std@@QAE?AV?$_Tree_iterator@V?$_Tree_val@V?$_Tmap_traits@V?$basic_string@DU?$char_traits@D@std@@V?$allocator@D@2@@std@@V12@U?$less@V?$basic_string@DU?$char_traits@D@std@@V?$allocator@D@2@@std@@@2@V?$allocator@U?$pair@$$CBV?$basic_string@DU?$char_traits@D@std@@V?$allocator@D@2@@std@@V12@@std@@@2@$0A@@std@@@std@@@2@V?$_Tree_const_iterator@V?$_Tree_val@V?$_Tmap_traits@V?$basic_string@DU?$char_traits@D@std@@V?$allocator@D@2@@std@@V12@U?$less@V?$basic_string@DU?$char_traits@D@std@@V?$allocator@D@2@@std@@@2@V?$allocator@U?$pair@$$CBV?$basic_string@DU?$char_traits@D@std@@V?$allocator@D@2@@std@@V12@@std@@@2@$0A@@std@@@std@@@2@@Z 10014550 f i happyhttp.obj
 0001:000137f0       ?_Erase@?$_Tree@V?$_Tmap_traits@V?$basic_string@DU?$char_traits@D@std@@V?$allocator@D@2@@std@@V12@U?$less@V?$basic_string@DU?$char_traits@D@std@@V?$allocator@D@2@@std@@@2@V?$allocator@U?$pair@$$CBV?$basic_string@DU?$char_traits@D@std@@V?$allocator@D@2@@std@@V12@@std@@@2@$0A@@std@@@std@@IAEXPAU_Node@?$_Tree_nod@V?$_Tmap_traits@V?$basic_string@DU?$char_traits@D@std@@V?$allocator@D@2@@std@@V12@U?$less@V?$basic_string@DU?$char_traits@D@std@@V?$allocator@D@2@@std@@@2@V?$allocator@U?$pair@$$CBV?$basic_string@DU?$char_traits@D@std@@V?$allocator@D@2@@std@@V12@@std@@@2@$0A@@std@@@2@@Z 100147f0 f i happyhttp.obj
 0001:00013870       ??$?HDU?$char_traits@D@std@@V?$allocator@D@1@@std@@YA?AV?$basic_string@DU?$char_traits@D@std@@V?$allocator@D@2@@0@$$QAV10@0@Z 10014870 f i happyhttp.obj
 0001:000138e0       ?_Linsert@?$_Tree@V?$_Tmap_traits@V?$basic_string@DU?$char_traits@D@std@@V?$allocator@D@2@@std@@V12@U?$less@V?$basic_string@DU?$char_traits@D@std@@V?$allocator@D@2@@std@@@2@V?$allocator@U?$pair@$$CBV?$basic_string@DU?$char_traits@D@std@@V?$allocator@D@2@@std@@V12@@std@@@2@$0A@@std@@@std@@QAE?AU?$pair@V?$_Tree_iterator@V?$_Tree_val@V?$_Tmap_traits@V?$basic_string@DU?$char_traits@D@std@@V?$allocator@D@2@@std@@V12@U?$less@V?$basic_string@DU?$char_traits@D@std@@V?$allocator@D@2@@std@@@2@V?$allocator@U?$pair@$$CBV?$basic_string@DU?$char_traits@D@std@@V?$allocator@D@2@@std@@V12@@std@@@2@$0A@@std@@@std@@@std@@_N@2@PAU_Node@?$_Tree_nod@V?$_Tmap_traits@V?$basic_string@DU?$char_traits@D@std@@V?$allocator@D@2@@std@@V12@U?$less@V?$basic_string@DU?$char_traits@D@std@@V?$allocator@D@2@@std@@@2@V?$allocator@U?$pair@$$CBV?$basic_string@DU?$char_traits@D@std@@V?$allocator@D@2@@std@@V12@@std@@@2@$0A@@std@@@2@_N@Z 100148e0 f i happyhttp.obj
 0001:00013a90       ?BeginBody@Response@happyhttp@@AAEXXZ 10014a90 f   happyhttp.obj
 0001:00013be0       ?_Insert@?$_Tree@V?$_Tmap_traits@V?$basic_string@DU?$char_traits@D@std@@V?$allocator@D@2@@std@@V12@U?$less@V?$basic_string@DU?$char_traits@D@std@@V?$allocator@D@2@@std@@@2@V?$allocator@U?$pair@$$CBV?$basic_string@DU?$char_traits@D@std@@V?$allocator@D@2@@std@@V12@@std@@@2@$0A@@std@@@std@@QAE?AV?$_Tree_iterator@V?$_Tree_val@V?$_Tmap_traits@V?$basic_string@DU?$char_traits@D@std@@V?$allocator@D@2@@std@@V12@U?$less@V?$basic_string@DU?$char_traits@D@std@@V?$allocator@D@2@@std@@@2@V?$allocator@U?$pair@$$CBV?$basic_string@DU?$char_traits@D@std@@V?$allocator@D@2@@std@@V12@@std@@@2@$0A@@std@@@std@@@2@V?$_Tree_const_iterator@V?$_Tree_val@V?$_Tmap_traits@V?$basic_string@DU?$char_traits@D@std@@V?$allocator@D@2@@std@@V12@U?$less@V?$basic_string@DU?$char_traits@D@std@@V?$allocator@D@2@@std@@@2@V?$allocator@U?$pair@$$CBV?$basic_string@DU?$char_traits@D@std@@V?$allocator@D@2@@std@@V12@@std@@@2@$0A@@std@@@std@@@2@PAU_Node@?$_Tree_nod@V?$_Tmap_traits@V?$basic_string@DU?$char_traits@D@std@@V?$allocator@D@2@@std@@V12@U?$less@V?$basic_string@DU?$char_traits@D@std@@V?$allocator@D@2@@std@@@2@V?$allocator@U?$pair@$$CBV?$basic_string@DU?$char_traits@D@std@@V?$allocator@D@2@@std@@V12@@std@@@2@$0A@@std@@@2@@Z 10014be0 f i happyhttp.obj
 0001:00013da0       ?erase@?$_Tree@V?$_Tmap_traits@V?$basic_string@DU?$char_traits@D@std@@V?$allocator@D@2@@std@@V12@U?$less@V?$basic_string@DU?$char_traits@D@std@@V?$allocator@D@2@@std@@@2@V?$allocator@U?$pair@$$CBV?$basic_string@DU?$char_traits@D@std@@V?$allocator@D@2@@std@@V12@@std@@@2@$0A@@std@@@std@@QAE?AV?$_Tree_iterator@V?$_Tree_val@V?$_Tmap_traits@V?$basic_string@DU?$char_traits@D@std@@V?$allocator@D@2@@std@@V12@U?$less@V?$basic_string@DU?$char_traits@D@std@@V?$allocator@D@2@@std@@@2@V?$allocator@U?$pair@$$CBV?$basic_string@DU?$char_traits@D@std@@V?$allocator@D@2@@std@@V12@@std@@@2@$0A@@std@@@std@@@2@V?$_Tree_const_iterator@V?$_Tree_val@V?$_Tmap_traits@V?$basic_string@DU?$char_traits@D@std@@V?$allocator@D@2@@std@@V12@U?$less@V?$basic_string@DU?$char_traits@D@std@@V?$allocator@D@2@@std@@@2@V?$allocator@U?$pair@$$CBV?$basic_string@DU?$char_traits@D@std@@V?$allocator@D@2@@std@@V12@@std@@@2@$0A@@std@@@std@@@2@0@Z 10014da0 f i happyhttp.obj
 0001:00013e60       ??0Connection@happyhttp@@QAE@PBDH@Z 10014e60 f   happyhttp.obj
 0001:00013f50       ??$_Buynode@U?$pair@$$CBV?$basic_string@DU?$char_traits@D@std@@V?$allocator@D@2@@std@@V12@@std@@@?$_Tree_val@V?$_Tmap_traits@V?$basic_string@DU?$char_traits@D@std@@V?$allocator@D@2@@std@@V12@U?$less@V?$basic_string@DU?$char_traits@D@std@@V?$allocator@D@2@@std@@@2@V?$allocator@U?$pair@$$CBV?$basic_string@DU?$char_traits@D@std@@V?$allocator@D@2@@std@@V12@@std@@@2@$0A@@std@@@std@@QAEPAU_Node@?$_Tree_nod@V?$_Tmap_traits@V?$basic_string@DU?$char_traits@D@std@@V?$allocator@D@2@@std@@V12@U?$less@V?$basic_string@DU?$char_traits@D@std@@V?$allocator@D@2@@std@@@2@V?$allocator@U?$pair@$$CBV?$basic_string@DU?$char_traits@D@std@@V?$allocator@D@2@@std@@V12@@std@@@2@$0A@@std@@@1@$$QAU?$pair@$$CBV?$basic_string@DU?$char_traits@D@std@@V?$allocator@D@2@@std@@V12@@1@@Z 10014f50 f i happyhttp.obj
 0001:00014050       ??1Response@happyhttp@@QAE@XZ 10015050 f i happyhttp.obj
 0001:00014180       ??0Response@happyhttp@@IAE@PBDAAVConnection@1@@Z 10015180 f   happyhttp.obj
 0001:000142b0       ??A?$map@V?$basic_string@DU?$char_traits@D@std@@V?$allocator@D@2@@std@@V12@U?$less@V?$basic_string@DU?$char_traits@D@std@@V?$allocator@D@2@@std@@@2@V?$allocator@U?$pair@$$CBV?$basic_string@DU?$char_traits@D@std@@V?$allocator@D@2@@std@@V12@@std@@@2@@std@@QAEAAV?$basic_string@DU?$char_traits@D@std@@V?$allocator@D@2@@1@ABV21@@Z 100152b0 f i happyhttp.obj
 0001:000143f0       ?putheader@Connection@happyhttp@@QAEXPBD0@Z 100153f0 f   happyhttp.obj
 0001:00014580       ?endheaders@Connection@happyhttp@@QAEXXZ 10015580 f   happyhttp.obj
 0001:00014770       ?FlushHeader@Response@happyhttp@@AAEXXZ 10015770 f   happyhttp.obj
 0001:00014940       ?ProcessHeaderLine@Response@happyhttp@@AAEXABV?$basic_string@DU?$char_traits@D@std@@V?$allocator@D@2@@std@@@Z 10015940 f   happyhttp.obj
 0001:00014a20       ?close@Connection@happyhttp@@QAEXXZ 10015a20 f   happyhttp.obj
 0001:00014ad0       ??1Connection@happyhttp@@QAE@XZ 10015ad0 f   happyhttp.obj
 0001:00014b80       ?putrequest@Connection@happyhttp@@QAEXPBD0@Z 10015b80 f   happyhttp.obj
 0001:00014d30       ?pump@Response@happyhttp@@IAEHPBEH@Z 10015d30 f   happyhttp.obj
 0001:00014f80       ?request@Connection@happyhttp@@QAEXPBD0QAPBDPBEH@Z 10015f80 f   happyhttp.obj
 0001:00015070       ?pump@Connection@happyhttp@@QAEXXZ 10016070 f   happyhttp.obj
 0001:00015200       ??0CScanrangeCalc@@QAE@XZ  10016200 f   ScanrangeCalc.obj
 0001:00015210       ?InitializeTables@CScanrangeCalc@@QAEXXZ 10016210 f   ScanrangeCalc.obj
 0001:000153b0       ?CalculateVision@CScanrangeCalc@@QAEXHHGP6AEFF@ZP6A_NFF@Z@Z 100163b0 f   ScanrangeCalc.obj
 0001:00016910       _sha1_update               10017910 f   sha1.obj
 0001:000169c0       _sha1_finish               100179c0 f   sha1.obj
 0001:00016b00       _sha1                      10017b00 f   sha1.obj
 0001:00016b90       _sha1_file                 10017b90 f   sha1.obj
 0001:00016cb0       ?Seek@BinaryStream@@QAEII@Z 10017cb0 f   serialize1.obj
 0001:00016cd0       ??$_Rotate@PAEHE@std@@YAXPAE00PAH0@Z 10017cd0 f i serialize1.obj
 0001:00016da0       ??$emplace_back@AAE@?$vector@EV?$allocator@E@std@@@std@@QAEXAAE@Z 10017da0 f i serialize1.obj
 0001:00016e10       ?Reset@BinaryStream@@QAEXXZ 10017e10 f   serialize1.obj
 0001:00016e40       ??0BinaryStream@@QAE@XZ    10017e40 f   serialize1.obj
 0001:00016e60       ??1BinaryStream@@QAE@XZ    10017e60 f   serialize1.obj
 0001:00016eb0       ?WriteUInt8@BinaryStream@@QAEXE@Z 10017eb0 f   serialize1.obj
 0001:00016efa       _SDL_Init                  10017efa f   SDL:SDL.dll
 0001:00016f00       _SDL_ConvertSurface        10017f00 f   SDL:SDL.dll
 0001:00016f06       _SDL_FreeSurface           10017f06 f   SDL:SDL.dll
 0001:00016f0c       _SDL_RWFromMem             10017f0c f   SDL:SDL.dll
 0001:00016f12       _SDL_UpperBlit             10017f12 f   SDL:SDL.dll
 0001:00016f18       _SDL_CreateRGBSurface      10017f18 f   SDL:SDL.dll
 0001:00016f1e       _SDL_LoadBMP_RW            10017f1e f   SDL:SDL.dll
 0001:00016f24       _SDL_RWFromFile            10017f24 f   SDL:SDL.dll
 0001:00016f2a       _IMG_Init                  10017f2a f   SDL_image:SDL_image.dll
 0001:00016f30       _IMG_Load_RW               10017f30 f   SDL_image:SDL_image.dll
 0001:00016f36       ??1out_of_range@std@@UAE@XZ 10017f36 f i libcpmt:xthrow.obj
 0001:00016f36       ??1length_error@std@@UAE@XZ 10017f36 f i libcpmt:xthrow.obj
 0001:00016f3b       ??0logic_error@std@@QAE@ABV01@@Z 10017f3b f i libcpmt:xthrow.obj
 0001:00016f58       ?_Xlength_error@std@@YAXPBD@Z 10017f58 f   libcpmt:xthrow.obj
 0001:00016f88       ??0length_error@std@@QAE@ABV01@@Z 10017f88 f i libcpmt:xthrow.obj
 0001:00016fa5       ?_Xout_of_range@std@@YAXPBD@Z 10017fa5 f   libcpmt:xthrow.obj
 0001:00016fd5       ??0out_of_range@std@@QAE@ABV01@@Z 10017fd5 f i libcpmt:xthrow.obj
 0001:00016ff2       ??_Eout_of_range@std@@UAEPAXI@Z 10017ff2 f i libcpmt:xthrow.obj
 0001:00016ff2       ??_Glogic_error@std@@UAEPAXI@Z 10017ff2 f i libcpmt:xthrow.obj
 0001:00016ff2       ??_Gout_of_range@std@@UAEPAXI@Z 10017ff2 f i libcpmt:xthrow.obj
 0001:00016ff2       ??_Glength_error@std@@UAEPAXI@Z 10017ff2 f i libcpmt:xthrow.obj
 0001:00016ff2       ??_Elength_error@std@@UAEPAXI@Z 10017ff2 f i libcpmt:xthrow.obj
 0001:00016ff2       ??_Elogic_error@std@@UAEPAXI@Z 10017ff2 f i libcpmt:xthrow.obj
 0001:00017013       ??_U@YAPAXI@Z              10018013 f   libcpmt:newaop.obj
 0001:0001701e       __Tolower                  1001801e f   libcpmt:_tolower.obj
 0001:0001712b       __Getctype                 1001812b f   libcpmt:_tolower.obj
 0001:0001718b       ??0_Init_locks@std@@QAE@XZ 1001818b f   libcpmt:xlock.obj
 0001:000171bc       ??1_Init_locks@std@@QAE@XZ 100181bc f   libcpmt:xlock.obj
 0001:000171e5       ??0_Lockit@std@@QAE@H@Z    100181e5 f   libcpmt:xlock.obj
 0001:0001720d       ??1_Lockit@std@@QAE@XZ     1001820d f   libcpmt:xlock.obj
 0001:00017224       ??1_Fac_node@std@@QAE@XZ   10018224 f i libcpmt:locale0.obj
 0001:00017239       ?_Facet_Register@facet@locale@std@@CAXPAV123@@Z 10018239 f   libcpmt:locale0.obj
 0001:00017263       __Deletegloballocale       10018263 f   libcpmt:locale0.obj
 0001:000172b0       ?_Getgloballocale@locale@std@@CAPAV_Locimp@12@XZ 100182b0 f   libcpmt:locale0.obj
 0001:000172b6       ?_Setgloballocale@locale@std@@CAXPAX@Z 100182b6 f   libcpmt:locale0.obj
 0001:000172e0       ?_Locimp_dtor@_Locimp@locale@std@@CAXPAV123@@Z 100182e0 f   libcpmt:locale0.obj
 0001:00017340       ??1_Fac_tidy_reg_t@std@@QAE@XZ 10018340 f i libcpmt:locale0.obj
 0001:0001738e       ?_Locinfo_dtor@_Locinfo@std@@SAXPAV12@@Z 1001838e f   libcpmt:locale0.obj
 0001:000173a9       ??4?$_Yarn@D@std@@QAEAAV01@PBD@Z 100183a9 f i libcpmt:locale0.obj
 0001:00017401       ?_Locinfo_ctor@_Locinfo@std@@SAXPAV12@PBD@Z 10018401 f   libcpmt:locale0.obj
 0001:0001744e       ??0_Locimp@locale@std@@AAE@_N@Z 1001844e f i libcpmt:locale0.obj
 0001:0001748d       ??1_Locimp@locale@std@@MAE@XZ 1001848d f i libcpmt:locale0.obj
 0001:000174d0       ??_G_Locimp@locale@std@@MAEPAXI@Z 100184d0 f i libcpmt:locale0.obj
 0001:000174d0       ??_E_Locimp@locale@std@@MAEPAXI@Z 100184d0 f i libcpmt:locale0.obj
 0001:000174f1       ?_Init@locale@std@@CAPAV_Locimp@12@XZ 100184f1 f   libcpmt:locale0.obj
 0001:00017580       ??8error_condition@std@@QBE_NABV01@@Z 10018580 f i libcpmt:syserror.obj
 0001:000175a1       ?equivalent@error_category@std@@UBE_NHABVerror_condition@2@@Z 100185a1 f i libcpmt:syserror.obj
 0001:000175c2       ?equivalent@error_category@std@@UBE_NABVerror_code@2@H@Z 100185c2 f i libcpmt:syserror.obj
 0001:000175e1       ?name@_Generic_error_category@std@@UBEPBDXZ 100185e1 f i libcpmt:syserror.obj
 0001:000175e1       ?name@_Iostream_error_category@std@@UBEPBDXZ 100185e1 f i libcpmt:syserror.obj
 0001:000175e5       ?name@_System_error_category@std@@UBEPBDXZ 100185e5 f i libcpmt:syserror.obj
 0001:000175e9       ?default_error_condition@_System_error_category@std@@UBE?AVerror_condition@2@H@Z 100185e9 f i libcpmt:syserror.obj
 0001:000175e9       ?default_error_condition@error_category@std@@UBE?AVerror_condition@2@H@Z 100185e9 f i libcpmt:syserror.obj
 0001:000175fd       ?iostream_category@std@@YAABVerror_category@1@XZ 100185fd f   libcpmt:syserror.obj
 0001:00017603       ??_E_System_error_category@std@@UAEPAXI@Z 10018603 f i libcpmt:syserror.obj
 0001:00017603       ??_E_Generic_error_category@std@@UAEPAXI@Z 10018603 f i libcpmt:syserror.obj
 0001:00017603       ??_Eerror_category@std@@UAEPAXI@Z 10018603 f i libcpmt:syserror.obj
 0001:00017603       ??_G_Iostream_error_category@std@@UAEPAXI@Z 10018603 f i libcpmt:syserror.obj
 0001:00017603       ??_G_Generic_error_category@std@@UAEPAXI@Z 10018603 f i libcpmt:syserror.obj
 0001:00017603       ??_E_Iostream_error_category@std@@UAEPAXI@Z 10018603 f i libcpmt:syserror.obj
 0001:00017603       ??_Gerror_category@std@@UAEPAXI@Z 10018603 f i libcpmt:syserror.obj
 0001:00017603       ??_G_System_error_category@std@@UAEPAXI@Z 10018603 f i libcpmt:syserror.obj
 0001:00017625       ?message@_Generic_error_category@std@@UBE?AV?$basic_string@DU?$char_traits@D@std@@V?$allocator@D@2@@2@H@Z 10018625 f i libcpmt:syserror.obj
 0001:00017648       ?message@_Iostream_error_category@std@@UBE?AV?$basic_string@DU?$char_traits@D@std@@V?$allocator@D@2@@2@H@Z 10018648 f i libcpmt:syserror.obj
 0001:00017678       ?_Callfns@ios_base@std@@AAEXW4event@12@@Z 10018678 f i libcpmt:ios.obj
 0001:0001769f       ?_Tidy@ios_base@std@@AAEXXZ 1001869f f i libcpmt:ios.obj
 0001:000176e3       ?_Ios_base_dtor@ios_base@std@@CAXPAV12@@Z 100186e3 f   libcpmt:ios.obj
 0001:00017721       __Toupper                  10018721 f   libcpmt:_toupper.obj
 0001:00017833       ??0_Mutex@std@@QAE@XZ      10018833 f   libcpmt:xmutex.obj
 0001:0001784d       ??1_Mutex@std@@QAE@XZ      1001884d f   libcpmt:xmutex.obj
 0001:00017864       ?_Lock@_Mutex@std@@QAEXXZ  10018864 f   libcpmt:xmutex.obj
 0001:0001786d       ?_Unlock@_Mutex@std@@QAEXXZ 1001886d f   libcpmt:xmutex.obj
 0001:00017876       ?_Xfsopen@std@@YAPAU_iobuf@@PBDHH@Z 10018876 f   libcpmt:fiopen.obj
 0001:00017895       ??$_Xfiopen@D@std@@YAPAU_iobuf@@PBDHH@Z 10018895 f i libcpmt:fiopen.obj
 0001:0001793d       ?_Fiopen@std@@YAPAU_iobuf@@PBDHH@Z 1001893d f   libcpmt:fiopen.obj
 0001:00017948       ?uncaught_exception@std@@YA_NXZ 10018948 f   libcpmt:uncaught.obj
 0001:0001794d       __Mtxinit                  1001894d f   libcpmt:xmtx.obj
 0001:0001795d       __Mtxdst                   1001895d f   libcpmt:xmtx.obj
 0001:0001796d       __Mtxlock                  1001896d f   libcpmt:xmtx.obj
 0001:0001797d       __Mtxunlock                1001897d f   libcpmt:xmtx.obj
 0001:0001798d       ?_Atexit@@YAXP6AXXZ@Z      1001898d f   libcpmt:iosptrs.obj
 0001:000179bf       ??1_Init_atexit@@QAE@XZ    100189bf f i libcpmt:iosptrs.obj
 0001:000179ea       _GetModuleFileNameExA@16   100189ea f   psapi:PSAPI.DLL
 0001:000179f0       _EnumProcesses@12          100189f0 f   psapi:PSAPI.DLL
 0001:000179f6       ??0exception@std@@QAE@ABQBDH@Z 100189f6 f   LIBCMT:stdexcpt.obj
 0001:00017a13       ?what@exception@std@@UBEPBDXZ 10018a13 f   LIBCMT:stdexcpt.obj
 0001:00017a20       ?_Copy_str@exception@std@@AAEXPBD@Z 10018a20 f   LIBCMT:stdexcpt.obj
 0001:00017a60       ?_Tidy@exception@std@@AAEXXZ 10018a60 f   LIBCMT:stdexcpt.obj
 0001:00017a7e       ??0exception@std@@QAE@ABQBD@Z 10018a7e f   LIBCMT:stdexcpt.obj
 0001:00017aa5       ??4exception@std@@QAEAAV01@ABV01@@Z 10018aa5 f   LIBCMT:stdexcpt.obj
 0001:00017ada       ??0bad_cast@std@@QAE@PBD@Z 10018ada f   LIBCMT:stdexcpt.obj
 0001:00017af8       ??1exception@std@@UAE@XZ   10018af8 f   LIBCMT:stdexcpt.obj
 0001:00017af8       ??1bad_cast@std@@UAE@XZ    10018af8 f   LIBCMT:stdexcpt.obj
 0001:00017b03       ??0exception@std@@QAE@ABV01@@Z 10018b03 f   LIBCMT:stdexcpt.obj
 0001:00017b28       ??_Gexception@std@@UAEPAXI@Z 10018b28 f i LIBCMT:stdexcpt.obj
 0001:00017b28       ??_Gbad_cast@std@@UAEPAXI@Z 10018b28 f i LIBCMT:stdexcpt.obj
 0001:00017b28       ??_Eexception@std@@UAEPAXI@Z 10018b28 f i LIBCMT:stdexcpt.obj
 0001:00017b28       ??_Ebad_cast@std@@UAEPAXI@Z 10018b28 f i LIBCMT:stdexcpt.obj
 0001:00017b4f       ??0bad_cast@std@@QAE@ABV01@@Z 10018b4f f   LIBCMT:stdexcpt.obj
 0001:00017b6c       ??1type_info@@UAE@XZ       10018b6c f   LIBCMT:typinfo.obj
 0001:00017b7c       ??_Etype_info@@UAEPAXI@Z   10018b7c f i LIBCMT:typinfo.obj
 0001:00017b7c       ??_Gtype_info@@UAEPAXI@Z   10018b7c f i LIBCMT:typinfo.obj
 0001:00017b9d       ??8type_info@@QBE_NABV0@@Z 10018b9d f   LIBCMT:typinfo.obj
 0001:00017bbd       ??3@YAXPAX@Z               10018bbd f   LIBCMT:delete.obj
 0001:00017bd0       _memcpy                    10018bd0 f   LIBCMT:memcpy.obj
 0001:00017f40       _memchr                    10018f40 f   LIBCMT:memchr.obj
 0001:00017ff0       _memmove                   10018ff0 f   LIBCMT:memmove.obj
 0001:00018351       __localtime64_s            10019351 f   LIBCMT:loctim64.obj
 0001:000185d9       __localtime64              100195d9 f   LIBCMT:loctim64.obj
 0001:00018600       __time64                   10019600 f   LIBCMT:time64.obj
 0001:00018651       ??2@YAPAXI@Z               10019651 f   LIBCMT:new.obj
 0001:000186d1       __CxxThrowException@8      100196d1 f   LIBCMT:throw.obj
 0001:0001871d       ?_JumpToContinuation@@YGXPAXPAUEHRegistrationNode@@@Z 1001971d f   LIBCMT:_trnsctrl_.obj
 0001:0001874f       ?_CallMemberFunction2@@YGXPAX00H@Z 1001974f f   LIBCMT:_trnsctrl_.obj
 0001:0001874f       ?_CallMemberFunction1@@YGXPAX00@Z 1001974f f   LIBCMT:_trnsctrl_.obj
 0001:0001874f       ?_CallMemberFunction0@@YGXPAX0@Z 1001974f f   LIBCMT:_trnsctrl_.obj
 0001:00018756       ?_UnwindNestedFrames@@YGXPAUEHRegistrationNode@@PAUEHExceptionRecord@@@Z 10019756 f   LIBCMT:_trnsctrl_.obj
 0001:000187aa       ___CxxFrameHandler3        100197aa f   LIBCMT:_trnsctrl_.obj
 0001:00018813       ?_CallSETranslator@@YAHPAUEHExceptionRecord@@PAUEHRegistrationNode@@PAX2PBU_s_FuncInfo@@H1@Z 10019813 f   LIBCMT:_trnsctrl_.obj
 0001:00018989       ?_GetRangeOfTrysToCheck@@YAPBU_s_TryBlockMapEntry@@PBU_s_FuncInfo@@HHPAI1@Z 10019989 f   LIBCMT:_trnsctrl_.obj
 0001:000189fc       __CreateFrameInfo          100199fc f   LIBCMT:_trnsctrl_.obj
 0001:00018a28       __IsExceptionObjectToBeDestroyed 10019a28 f   LIBCMT:_trnsctrl_.obj
 0001:00018a4f       __FindAndUnlinkFrame       10019a4f f   LIBCMT:_trnsctrl_.obj
 0001:00018aa1       ?_CallCatchBlock2@@YAPAXPAUEHRegistrationNode@@PBU_s_FuncInfo@@PAXHK@Z 10019aa1 f   LIBCMT:_trnsctrl_.obj
 0001:00018b01       @__security_check_cookie@4 10019b01 f   LIBCMT:secchk.obj
 0001:00018b10       __snprintf                 10019b10 f   LIBCMT:snprintf.obj
 0001:00018bc0       __chkstk                   10019bc0 f   LIBCMT:chkstk.obj
 0001:00018bc0       __alloca_probe             10019bc0     LIBCMT:chkstk.obj
 0001:00018bf0       _memset                    10019bf0 f   LIBCMT:memset.obj
 0001:00018c6a       __difftime64               10019c6a f   LIBCMT:difftm64.obj
 0001:00018cad       __cfltcvt_init             10019cad f   LIBCMT:_fpinit_.obj
 0001:00018d0d       __fpmath                   10019d0d f   LIBCMT:_fpinit_.obj
 0001:00018d26       __gmtime64_s               10019d26 f   LIBCMT:gmtime64.obj
 0001:00018f5f       __gmtime64                 10019f5f f   LIBCMT:gmtime64.obj
 0001:00018f90       __ftol2_sse                10019f90 f   LIBCMT:ftol2.obj
 0001:00018f99       __ftol2_pentium4           10019f99 f   LIBCMT:ftol2.obj
 0001:00018fac       __ftol2_sse_excpt          10019fac f   LIBCMT:ftol2.obj
 0001:00018fc6       __ftol2                    10019fc6 f   LIBCMT:ftol2.obj
 0001:00019040       _strstr                    1001a040 f   LIBCMT:strstr.obj
 0001:000190d0       _strncat                   1001a0d0 f   LIBCMT:strncat.obj
 0001:00019205       __strdup                   1001a205 f   LIBCMT:strdup.obj
 0001:0001930d       ___onexitinit              1001a30d f   LIBCMT:onexit.obj
 0001:0001933e       __onexit                   1001a33e f   LIBCMT:onexit.obj
 0001:0001937a       _atexit                    1001a37a f   LIBCMT:onexit.obj
 0001:00019391       _free                      1001a391 f   LIBCMT:free.obj
 0001:000193cb       ??_V@YAXPAX@Z              1001a3cb f   LIBCMT:delete2.obj
 0001:000193d6       _fgetc                     1001a3d6 f   LIBCMT:fgetc.obj
 0001:000194ca       _fputc                     1001a4ca f   LIBCMT:fputc.obj
 0001:000195c6       __ungetc_nolock            1001a5c6 f   LIBCMT:ungetc.obj
 0001:000196a9       _ungetc                    1001a6a9 f   LIBCMT:ungetc.obj
 0001:00019712       ___iob_func                1001a712 f   LIBCMT:_file.obj
 0001:00019718       ___initstdio               1001a718 f   LIBCMT:_file.obj
 0001:000197c9       ___endstdio                1001a7c9 f   LIBCMT:_file.obj
 0001:000197e9       __lock_file                1001a7e9 f   LIBCMT:_file.obj
 0001:0001982a       __lock_file2               1001a82a f   LIBCMT:_file.obj
 0001:0001985c       __unlock_file              1001a85c f   LIBCMT:_file.obj
 0001:00019898       __unlock_file2             1001a898 f   LIBCMT:_file.obj
 0001:000198c7       __flush                    1001a8c7 f   LIBCMT:fflush.obj
 0001:0001992f       __fflush_nolock            1001a92f f   LIBCMT:fflush.obj
 0001:00019a51       _fflush                    1001aa51 f   LIBCMT:fflush.obj
 0001:00019aa4       __flushall                 1001aaa4 f   LIBCMT:fflush.obj
 0001:00019aad       _setvbuf                   1001aaad f   LIBCMT:setvbuf.obj
 0001:00019ba3       _memcpy_s                  1001aba3 f   LIBCMT:memcpy_s.obj
 0001:00019c18       __fwrite_nolock            1001ac18 f   LIBCMT:fwrite.obj
 0001:00019d6f       _fwrite                    1001ad6f f   LIBCMT:fwrite.obj
 0001:00019de9       _fgetpos                   1001ade9 f   LIBCMT:fgetpos.obj
 0001:00019e44       __fseeki64_nolock          1001ae44 f   LIBCMT:fseeki64.obj
 0001:00019ee0       __fseeki64                 1001aee0 f   LIBCMT:fseeki64.obj
 0001:00019f5f       _fsetpos                   1001af5f f   LIBCMT:fsetpos.obj
 0001:00019f9a       __fclose_nolock            1001af9a f   LIBCMT:fclose.obj
 0001:0001a007       _fclose                    1001b007 f   LIBCMT:fclose.obj
 0001:0001a07b       __close_nolock             1001b07b f   LIBCMT:close.obj
 0001:0001a117       __close                    1001b117 f   LIBCMT:close.obj
 0001:0001a1db       __read_nolock              1001b1db f   LIBCMT:read.obj
 0001:0001a792       __read                     1001b792 f   LIBCMT:read.obj
 0001:0001a888       __lseeki64_nolock          1001b888 f   LIBCMT:lseeki64.obj
 0001:0001a90d       __lseeki64                 1001b90d f   LIBCMT:lseeki64.obj
 0001:0001a9f7       ?_sopen@@YAHPBDHHH@Z       1001b9f7 f   LIBCMT:openo.obj
 0001:0001aa30       _strncpy                   1001ba30 f   LIBCMT:strncpy.obj
 0001:0001ab60       __except_handler4          1001bb60 f   LIBCMT:chandler4.obj
 0001:0001acef       _system                    1001bcef f   LIBCMT:system.obj
 0001:0001adcc       __fsopen                   1001bdcc f   LIBCMT:fopen.obj
 0001:0001ae88       _fopen                     1001be88 f   LIBCMT:fopen.obj
 0001:0001ae9f       _malloc                    1001be9f f   LIBCMT:malloc.obj
 0001:0001af33       ??0_LocaleUpdate@@QAE@PAUlocaleinfo_struct@@@Z 1001bf33 f i LIBCMT:mbstowcs.obj
 0001:0001afba       __mbstowcs_l_helper        1001bfba f   LIBCMT:mbstowcs.obj
 0001:0001b11c       _mbstowcs                  1001c11c f   LIBCMT:mbstowcs.obj
 0001:0001b1b4       _sscanf                    1001c1b4 f   LIBCMT:sscanf.obj
 0001:0001b1d6       _sprintf                   1001c1d6 f   LIBCMT:sprintf.obj
 0001:0001b25a       __vsnprintf_l              1001c25a f   LIBCMT:vsnprint.obj
 0001:0001b306       __vsnprintf                1001c306 f   LIBCMT:vsnprint.obj
 0001:0001b306       _vsnprintf                 1001c306 f   LIBCMT:vsnprint.obj
 0001:0001b323       __tolower_l                1001c323 f   LIBCMT:tolower.obj
 0001:0001b438       _tolower                   1001c438 f   LIBCMT:tolower.obj
 0001:0001b68f       _strtol                    1001c68f f   LIBCMT:strtol.obj
 0001:0001b6ba       _atol                      1001c6ba f   LIBCMT:atox.obj
 0001:0001b6d0       _atoi                      1001c6d0 f   LIBCMT:atox.obj
 0001:0001b6db       ___ascii_stricmp           1001c6db f   LIBCMT:stricmp.obj
 0001:0001b714       __stricmp_l                1001c714 f   LIBCMT:stricmp.obj
 0001:0001b7d4       __stricmp                  1001c7d4 f   LIBCMT:stricmp.obj
 0001:0001b81b       __isupper_l                1001c81b f i LIBCMT:_ctype.obj
 0001:0001b86c       _isupper                   1001c86c f i LIBCMT:_ctype.obj
 0001:0001b89a       __islower_l                1001c89a f i LIBCMT:_ctype.obj
 0001:0001b8eb       _islower                   1001c8eb f i LIBCMT:_ctype.obj
 0001:0001b919       __isdigit_l                1001c919 f i LIBCMT:_ctype.obj
 0001:0001b96a       _isdigit                   1001c96a f i LIBCMT:_ctype.obj
 0001:0001b998       __isxdigit_l               1001c998 f i LIBCMT:_ctype.obj
 0001:0001b9ee       _isxdigit                  1001c9ee f i LIBCMT:_ctype.obj
 0001:0001ba1e       __isspace_l                1001ca1e f i LIBCMT:_ctype.obj
 0001:0001ba6f       _isspace                   1001ca6f f i LIBCMT:_ctype.obj
 0001:0001baa0       __CIsqrt                   1001caa0 f   LIBCMT:_sqrt_.obj
 0001:0001bab4       _sqrt                      1001cab4     LIBCMT:_sqrt_.obj
 0001:0001bb5a       _ferror                    1001cb5a f   LIBCMT:feoferr.obj
 0001:0001bb82       __fread_nolock_s           1001cb82 f   LIBCMT:fread.obj
 0001:0001bd3e       _fread_s                   1001cd3e f   LIBCMT:fread.obj
 0001:0001bdcc       _fread                     1001cdcc f   LIBCMT:fread.obj
 0001:0001bde9       __CRT_INIT@12              1001cde9 f   LIBCMT:dllcrt0.obj
 0001:0001c043       __DllMainCRTStartup@12     1001d043 f   LIBCMT:dllcrt0.obj
 0001:0001c066       __freea                    1001d066 f i LIBCMT:a_map.obj
 0001:0001c26d       ___crtLCMapStringA         1001d26d f   LIBCMT:a_map.obj
 0001:0001c2b3       ___pctype_func             1001d2b3 f   LIBCMT:ctype.obj
 0001:0001c2dc       ___init_ctype              1001d2dc f   LIBCMT:initctyp.obj
 0001:0001c683       ____lc_codepage_func       1001d683 f   LIBCMT:initctyp.obj
 0001:0001c6a9       ____lc_handle_func         1001d6a9 f   LIBCMT:initctyp.obj
 0001:0001c6cf       __malloc_crt               1001d6cf f   LIBCMT:crtheap.obj
 0001:0001c714       __calloc_crt               1001d714 f   LIBCMT:crtheap.obj
 0001:0001c760       __realloc_crt              1001d760 f   LIBCMT:crtheap.obj
 0001:0001c7ae       __recalloc_crt             1001d7ae f   LIBCMT:crtheap.obj
 0001:0001c800       __EH_prolog3               1001d800 f   LIBCMT:ehprolg3.obj
 0001:0001c833       __EH_prolog3_catch         1001d833 f   LIBCMT:ehprolg3.obj
 0001:0001c869       __EH_epilog3               1001d869 f   LIBCMT:ehprolg3.obj
 0001:0001c8a3       __matherr                  1001d8a3 f   LIBCMT:_matherr_.obj
 0001:0001c8a3       ___init_dummy              1001d8a3 f   LIBCMT:setlocal.obj
 0001:0001c8a3       ___init_collate            1001d8a3 f   LIBCMT:initcoll.obj
 0001:0001c8a6       __strcats                  1001d8a6 f   LIBCMT:setlocal.obj
 0001:0001c8e7       ___lc_strtolc              1001d8e7 f   LIBCMT:setlocal.obj
 0001:0001ca06       ___lc_lctostr              1001da06 f   LIBCMT:setlocal.obj
 0001:0001cbd6       __expandlocale             1001dbd6 f   LIBCMT:setlocal.obj
 0001:0001d34d       _setlocale                 1001e34d f   LIBCMT:setlocal.obj
 0001:0001d4c1       __purecall                 1001e4c1 f   LIBCMT:purevirt.obj
 0001:0001d4f0       _strlen                    1001e4f0 f   LIBCMT:strlen.obj
 0001:0001d57b       __get_sys_err_msg          1001e57b f i LIBCMT:strerror.obj
 0001:0001d5a3       _strerror                  1001e5a3 f   LIBCMT:strerror.obj
 0001:0001d60d       __fseek_nolock             1001e60d f   LIBCMT:fseek.obj
 0001:0001d697       _fseek                     1001e697 f   LIBCMT:fseek.obj
 0001:0001d713       ??1bad_exception@std@@UAE@XZ 1001e713 f i LIBCMT:frame.obj
 0001:0001d71e       ??_Ebad_exception@std@@UAEPAXI@Z 1001e71e f i LIBCMT:frame.obj
 0001:0001d71e       ??_Gbad_exception@std@@UAEPAXI@Z 1001e71e f i LIBCMT:frame.obj
 0001:0001d745       ___TypeMatch               1001e745 f   LIBCMT:frame.obj
 0001:0001d7a4       ___FrameUnwindFilter       1001e7a4 f   LIBCMT:frame.obj
 0001:0001d7f3       ___FrameUnwindToState      1001e7f3 f   LIBCMT:frame.obj
 0001:0001d914       ___DestructExceptionObject 1001e914 f   LIBCMT:frame.obj
 0001:0001d969       ___AdjustPointer           1001e969 f   LIBCMT:frame.obj
 0001:0001d992       ?__uncaught_exception@@YA_NXZ 1001e992 f   LIBCMT:frame.obj
 0001:0001dc03       ___BuildCatchObjectHelper  1001ec03 f   LIBCMT:frame.obj
 0001:0001dd82       ___BuildCatchObject        1001ed82 f   LIBCMT:frame.obj
 0001:0001e2fe       ??0bad_exception@std@@QAE@ABV01@@Z 1001f2fe f i LIBCMT:frame.obj
 0001:0001e31b       ___InternalCxxFrameHandler 1001f31b f   LIBCMT:frame.obj
 0001:0001e401       _abort                     1001f401 f   LIBCMT:abort.obj
 0001:0001e434       __set_abort_behavior       1001f434 f   LIBCMT:abort.obj
 0001:0001e455       _strcpy_s                  1001f455 f   LIBCMT:strcpy_s.obj
 0001:0001e4b4       ?_Type_info_dtor@type_info@@CAXPAV1@@Z 1001f4b4 f   LIBCMT:typname.obj
 0001:0001e530       _strcmp                    1001f530 f   LIBCMT:strcmp.obj
 0001:0001e5b8       __VEC_memcpy               1001f5b8 f   LIBCMT:p4_memcpy.obj
 0001:0001e6bb       ___sse2_available_init     1001f6bb f   LIBCMT:cpu_disp.obj
 0001:0001e6cb       __initp_misc_invarg        1001f6cb f   LIBCMT:invarg.obj
 0001:0001e6da       __call_reportfault         1001f6da f   LIBCMT:invarg.obj
 0001:0001e803       __invoke_watson            1001f803 f   LIBCMT:invarg.obj
 0001:0001e828       __invalid_parameter        1001f828 f   LIBCMT:invarg.obj
 0001:0001e855       __invalid_parameter_noinfo 1001f855 f   LIBCMT:invarg.obj
 0001:0001ef46       ___tzset                   1001ff46 f   LIBCMT:tzset.obj
 0001:0001ef95       __isindst                  1001ff95 f   LIBCMT:tzset.obj
 0001:0001efd6       __get_daylight             1001ffd6 f   LIBCMT:timeset.obj
 0001:0001f003       __get_dstbias              10020003 f   LIBCMT:timeset.obj
 0001:0001f030       __get_timezone             10020030 f   LIBCMT:timeset.obj
 0001:0001f05d       ___daylight                1002005d f   LIBCMT:timeset.obj
 0001:0001f063       ___dstbias                 10020063 f   LIBCMT:timeset.obj
 0001:0001f069       ___timezone                10020069 f   LIBCMT:timeset.obj
 0001:0001f06f       ___tzname                  1002006f f   LIBCMT:timeset.obj
 0001:0001f075       __get_errno_from_oserr     10020075 f   LIBCMT:dosmap.obj
 0001:0001f0b7       __errno                    100200b7 f   LIBCMT:dosmap.obj
 0001:0001f0ca       ___doserrno                100200ca f   LIBCMT:dosmap.obj
 0001:0001f0dd       __dosmaperr                100200dd f   LIBCMT:dosmap.obj
 0001:0001f100       __alldiv                   10020100 f   LIBCMT:lldiv.obj
 0001:0001f1b0       __allrem                   100201b0 f   LIBCMT:llrem.obj
 0001:0001f262       ___getgmtimebuf            10020262 f   LIBCMT:gmtime.obj
 0001:0001f2a0       __aulldiv                  100202a0 f   LIBCMT:ulldiv.obj
 0001:0001f308       __initp_heap_handler       10020308 f   LIBCMT:handler.obj
 0001:0001f317       __callnewh                 10020317 f   LIBCMT:handler.obj
 0001:0001f33f       __encoded_null             1002033f f   LIBCMT:tidtable.obj
 0001:0001f348       ___crtTlsAlloc@4           10020348 f   LIBCMT:tidtable.obj
 0001:0001f351       ___set_flsgetvalue         10020351 f   LIBCMT:tidtable.obj
 0001:0001f385       __mtterm                   10020385 f   LIBCMT:tidtable.obj
 0001:0001f3c2       __initptd                  100203c2 f   LIBCMT:tidtable.obj
 0001:0001f476       __getptd_noexit            10020476 f   LIBCMT:tidtable.obj
 0001:0001f4ef       __getptd                   100204ef f   LIBCMT:tidtable.obj
 0001:0001f509       __freefls@4                10020509 f   LIBCMT:tidtable.obj
 0001:0001f638       __freeptd                  10020638 f   LIBCMT:tidtable.obj
 0001:0001f6a6       __mtinit                   100206a6 f   LIBCMT:tidtable.obj
 0001:0001f821       ?terminate@@YAXXZ          10020821 f   LIBCMT:hooks.obj
 0001:0001f85a       ?unexpected@@YAXXZ         1002085a f   LIBCMT:hooks.obj
 0001:0001f86d       ?_inconsistency@@YAXXZ     1002086d f   LIBCMT:hooks.obj
 0001:0001f8a5       __initp_eh_hooks           100208a5 f   LIBCMT:hooks.obj
 0001:0001f8c0       __CallSettingFrame@12      100208c0 f   LIBCMT:lowhelpr.obj
 0001:0001f8e7       __NLG_Return               100208e7     LIBCMT:lowhelpr.obj
 0001:0001f90c       ___report_gsfailure        1002090c f   LIBCMT:gs_report.obj
 0001:0001fa12       __flsbuf                   10020a12 f   LIBCMT:_flsbuf.obj
 0001:0001fc1d       __output_l                 10020c1d f   LIBCMT:output.obj
 0001:000207c9       __VEC_memzero              100217c9 f   LIBCMT:p4_memset.obj
 0001:00020883       __forcdecpt_l              10021883 f   LIBCMT:cvt.obj
 0001:000208f7       __cropzeros_l              100218f7 f   LIBCMT:cvt.obj
 0001:00020979       __positive                 10021979 f   LIBCMT:cvt.obj
 0001:00020995       __fassign_l                10021995 f   LIBCMT:cvt.obj
 0001:000209d7       __fassign                  100219d7 f   LIBCMT:cvt.obj
 0001:00020a10       __forcdecpt                10021a10 f   LIBCMT:cvt.obj
 0001:00020a23       __cropzeros                10021a23 f   LIBCMT:cvt.obj
 0001:00020b97       __cftoe_l                  10021b97 f   LIBCMT:cvt.obj
 0001:00020c5e       __cftoe                    10021c5e f   LIBCMT:cvt.obj
 0001:00020c7e       __cftoa_l                  10021c7e f   LIBCMT:cvt.obj
 0001:000210f7       __cftof_l                  100220f7 f   LIBCMT:cvt.obj
 0001:000211b8       __cftog_l                  100221b8 f   LIBCMT:cvt.obj
 0001:000212a5       __cfltcvt_l                100222a5 f   LIBCMT:cvt.obj
 0001:0002132d       __cfltcvt                  1002232d f   LIBCMT:cvt.obj
 0001:00021350       __initp_misc_cfltcvt_tab   10022350 f   LIBCMT:cmiscdat.obj
 0001:00021373       __setdefaultprecision      10022373 f   LIBCMT:fp8.obj
 0001:000213a0       __allmul                   100223a0 f   LIBCMT:llmul.obj
 0001:000213f0       _strchr                    100223f0 f   LIBCMT:strchr.obj
 0001:000213f6       ___from_strstr_to_strchr   100223f6     LIBCMT:strchr.obj
 0001:000214ae       __msize                    100224ae f   LIBCMT:msize.obj
 0001:000214e1       ___crtCorExitProcess       100224e1 f   LIBCMT:crt0dat.obj
 0001:0002150c       ___crtExitProcess          1002250c f   LIBCMT:crt0dat.obj
 0001:00021524       __lockexit                 10022524 f   LIBCMT:crt0dat.obj
 0001:0002152d       __unlockexit               1002252d f   LIBCMT:crt0dat.obj
 0001:00021536       __init_pointers            10022536 f   LIBCMT:crt0dat.obj
 0001:00021569       __initterm_e               10022569 f   LIBCMT:crt0dat.obj
 0001:0002158d       __cinit                    1002258d f   LIBCMT:crt0dat.obj
 0001:00021764       __exit                     10022764 f   LIBCMT:crt0dat.obj
 0001:0002177a       __cexit                    1002277a f   LIBCMT:crt0dat.obj
 0001:00021789       __amsg_exit                10022789 f   LIBCMT:crt0dat.obj
 0001:000217b0       __SEH_prolog4              100227b0 f   LIBCMT:sehprolg4.obj
 0001:000217f5       __SEH_epilog4              100227f5 f   LIBCMT:sehprolg4.obj
 0001:00021809       __heap_init                10022809 f   LIBCMT:heapinit.obj
 0001:00021827       __heap_term                10022827 f   LIBCMT:heapinit.obj
 0001:0002183b       __filbuf                   1002283b f   LIBCMT:_filbuf.obj
 0001:0002195d       __ioinit                   1002295d f   LIBCMT:ioinit.obj
 0001:00021ba2       __ioterm                   10022ba2 f   LIBCMT:ioinit.obj
 0001:00021bf5       __fileno                   10022bf5 f   LIBCMT:fileno.obj
 0001:00021c1b       __getbuf                   10022c1b f   LIBCMT:_getbuf.obj
 0001:00021c64       __fcloseall                10022c64 f   LIBCMT:closeall.obj
 0001:00021d00       __mtinitlocks              10022d00 f   LIBCMT:mlock.obj
 0001:00021d4a       __mtdeletelocks            10022d4a f   LIBCMT:mlock.obj
 0001:00021da1       __unlock                   10022da1 f   LIBCMT:mlock.obj
 0001:00021db8       __mtinitlocknum            10022db8 f   LIBCMT:mlock.obj
 0001:00021e7a       __lock                     10022e7a f   LIBCMT:mlock.obj
 0001:00021ead       __write_nolock             10022ead f   LIBCMT:write.obj
 0001:000225aa       __write                    100235aa f   LIBCMT:write.obj
 0001:0002267e       __commit                   1002367e f   LIBCMT:commit.obj
 0001:00022757       __freebuf                  10023757 f   LIBCMT:_freebuf.obj
 0001:00022788       __ftelli64_nolock          10023788 f   LIBCMT:ftelli64.obj
 0001:00022ad2       __ftelli64                 10023ad2 f   LIBCMT:ftelli64.obj
 0001:00022b3f       __set_osfhnd               10023b3f f   LIBCMT:osfinfo.obj
 0001:00022bc0       __free_osfhnd              10023bc0 f   LIBCMT:osfinfo.obj
 0001:00022c46       __get_osfhandle            10023c46 f   LIBCMT:osfinfo.obj
 0001:00022caf       ___lock_fhandle            10023caf f   LIBCMT:osfinfo.obj
 0001:00022d4e       __unlock_fhandle           10023d4e f   LIBCMT:osfinfo.obj
 0001:00022d75       __alloc_osfhnd             10023d75 f   LIBCMT:osfinfo.obj
 0001:00023642       __sopen_helper             10024642 f   LIBCMT:open.obj
 0001:00023706       __sopen_s                  10024706 f   LIBCMT:open.obj
 0001:00023730       __local_unwind4            10024730 f   LIBCMT:exsup4.obj
 0001:00023806       __seh_longjmp_unwind4@4    10024806 f   LIBCMT:exsup4.obj
 0001:00023822       @_EH4_CallFilterFunc@8     10024822 f   LIBCMT:exsup4.obj
 0001:00023839       @_EH4_TransferToHandler@8  10024839 f   LIBCMT:exsup4.obj
 0001:00023852       @_EH4_GlobalUnwind2@8      10024852 f   LIBCMT:exsup4.obj
 0001:0002386b       @_EH4_LocalUnwind@16       1002486b f   LIBCMT:exsup4.obj
 0001:00023890       __ValidateImageBase        10024890 f   LIBCMT:pesect.obj
 0001:000238d0       __FindPESection            100248d0 f   LIBCMT:pesect.obj
 0001:00023920       __IsNonwritableInCurrentImage 10024920 f   LIBCMT:pesect.obj
 0001:000239dc       __spawnvpe                 100249dc f   LIBCMT:spawnvpe.obj
 0001:00023cba       __spawnve                  10024cba f   LIBCMT:spawnve.obj
 0001:00023ea3       __access_s                 10024ea3 f   LIBCMT:access.obj
 0001:00023f22       __getenv_helper_nolock     10024f22 f   LIBCMT:getenv.obj
 0001:00023fa9       __dupenv_s                 10024fa9 f   LIBCMT:getenv.obj
 0001:00024080       __openfile                 10025080 f   LIBCMT:_open.obj
 0001:00024317       __getstream                10025317 f   LIBCMT:stream.obj
 0001:0002444a       __GET_RTERRMSG             1002544a f   LIBCMT:crt0msg.obj
 0001:00024470       __NMSG_WRITE               10025470 f   LIBCMT:crt0msg.obj
 0001:0002461f       __FF_MSGBANNER             1002561f f   LIBCMT:crt0msg.obj
 0001:0002487b       ___updatetmbcinfo          1002587b f   LIBCMT:mbctype.obj
 0001:0002499b       __setmbcp_nolock           1002599b f   LIBCMT:mbctype.obj
 0001:00024b84       __setmbcp                  10025b84 f   LIBCMT:mbctype.obj
 0001:00024d1e       ___initmbctable            10025d1e f   LIBCMT:mbctype.obj
 0001:00024d3c       ___addlocaleref            10025d3c f   LIBCMT:localref.obj
 0001:00024dcb       ___removelocaleref         10025dcb f   LIBCMT:localref.obj
 0001:00024e64       ___freetlocinfo            10025e64 f   LIBCMT:localref.obj
 0001:00024faf       __updatetlocinfoEx_nolock  10025faf f   LIBCMT:localref.obj
 0001:00024ffd       ___updatetlocinfo          10025ffd f   LIBCMT:localref.obj
 0001:00025076       __isleadbyte_l             10026076 f i LIBCMT:_wctype.obj
 0001:000250ae       _isleadbyte                100260ae f i LIBCMT:_wctype.obj
 0001:00025178       __input_l                  10026178 f   LIBCMT:input.obj
 0001:0002617c       __isctype_l                1002717c f   LIBCMT:isctype.obj
 0001:00026240       __trandisp1                10027240 f   LIBCMT:_87disp_.obj
 0001:000262a7       __trandisp2                100272a7 f   LIBCMT:_87disp_.obj
 0001:00026333       __rttospopde               10027333     LIBCMT:_87disp_.obj
 0001:00026338       __rttospop                 10027338     LIBCMT:_87disp_.obj
 0001:0002633a       __rtnospop                 1002733a     LIBCMT:_87disp_.obj
 0001:0002633c       __rttosnpop                1002733c     LIBCMT:_87disp_.obj
 0001:0002633d       __rtnospopde               1002733d     LIBCMT:_87disp_.obj
 0001:00026344       __rtzeropop                10027344     LIBCMT:_87disp_.obj
 0001:00026346       __rtzeronpop               10027346     LIBCMT:_87disp_.obj
 0001:0002634b       __rtonepop                 1002734b     LIBCMT:_87disp_.obj
 0001:0002634d       __rtonenpop                1002734d     LIBCMT:_87disp_.obj
 0001:00026352       __tosnan1                  10027352     LIBCMT:_87disp_.obj
 0001:0002637d       __nosnan2                  1002737d     LIBCMT:_87disp_.obj
 0001:0002637f       __tosnan2                  1002737f     LIBCMT:_87disp_.obj
 0001:000263a7       __nan2                     100273a7     LIBCMT:_87disp_.obj
 0001:000263e6       __rtindfpop                100273e6     LIBCMT:_87disp_.obj
 0001:000263e8       __rtindfnpop               100273e8     LIBCMT:_87disp_.obj
 0001:000263f9       __rttosnpopde              100273f9     LIBCMT:_87disp_.obj
 0001:00026403       __rtchsifneg               10027403     LIBCMT:_87disp_.obj
 0001:00026410       __startTwoArgErrorHandling 10027410 f   LIBCMT:_genexcep_.obj
 0001:00026427       __startOneArgErrorHandling 10027427 f   LIBCMT:_genexcep_.obj
 0001:00026470       __twoToTOS                 10027470 f   LIBCMT:_common_.obj
 0001:00026485       __load_CW                  10027485 f   LIBCMT:_common_.obj
 0001:0002649c       __convertTOStoQNaN         1002749c f   LIBCMT:_common_.obj
 0001:000264b5       __fload_withFB             100274b5 f   LIBCMT:_common_.obj
 0001:000264f8       __checkTOS_withFB          100274f8 f   LIBCMT:_common_.obj
 0001:0002650e       __fast_exit                1002750e f   LIBCMT:_common_.obj
 0001:0002651b       __math_exit                1002751b f   LIBCMT:_common_.obj
 0001:00026545       __check_overflow_exit      10027545 f   LIBCMT:_common_.obj
 0001:00026559       __check_range_exit         10027559 f   LIBCMT:_common_.obj
 0001:000265fc       __setenvp                  100275fc f   LIBCMT:stdenvp.obj
 0001:00026872       __setargv                  10027872 f   LIBCMT:stdargv.obj
 0001:0002692d       ___crtGetEnvironmentStringsA 1002792d f   LIBCMT:a_env.obj
 0001:000269c4       __RTC_Initialize           100279c4 f   LIBCMT:_initsect_.obj
 0001:000269ea       __RTC_Terminate            100279ea f   LIBCMT:_initsect_.obj
 0001:00026a10       __XcptFilter               10027a10 f   LIBCMT:winxfltr.obj
 0001:00026b5a       ___CppXcptFilter           10027b5a f   LIBCMT:winxfltr.obj
 0001:00026b7a       ___security_init_cookie    10027b7a f   LIBCMT:gs_support.obj
 0001:00026c20       __alloca_probe_16          10027c20 f   LIBCMT:alloca16.obj
 0001:00026c36       __alloca_probe_8           10027c36     LIBCMT:alloca16.obj
 0001:00026d33       ___crtGetStringTypeA       10027d33 f   LIBCMT:a_str.obj
 0001:00026d73       ___getlocaleinfo           10027d73 f   LIBCMT:inithelp.obj
 0001:00026f1f       __initp_misc_purevirt      10027f1f f   LIBCMT:inithelp.obj
 0001:00026f2e       __calloc_impl              10027f2e f   LIBCMT:calloc_impl.obj
 0001:00026fb3       _realloc                   10027fb3 f   LIBCMT:realloc.obj
 0001:00027060       __recalloc                 10028060 f   LIBCMT:recalloc.obj
 0001:000278cd       ___free_lc_time            100288cd f   LIBCMT:inittime.obj
 0001:00027c44       ___init_time               10028c44 f   LIBCMT:inittime.obj
 0001:00027cc1       ___free_lconv_num          10028cc1 f   LIBCMT:initnum.obj
 0001:00027d2a       ___init_numeric            10028d2a f   LIBCMT:initnum.obj
 0001:00027f1a       ___free_lconv_mon          10028f1a f   LIBCMT:initmon.obj
 0001:00028018       ___init_monetary           10029018 f   LIBCMT:initmon.obj
 0001:00028378       _strcat_s                  10029378 f   LIBCMT:strcat_s.obj
 0001:000283f0       _strcspn                   100293f0 f   LIBCMT:strcspn.obj
 0001:00028436       _strncpy_s                 10029436 f   LIBCMT:strncpy_s.obj
 0001:00028a78       ___get_qualified_locale    10029a78 f   LIBCMT:getqloc.obj
 0001:00028c69       _memcmp                    10029c69 f   LIBCMT:memcmp.obj
 0001:0002a1bd       _strncmp                   1002b1bd f   LIBCMT:strncmp.obj
 0001:0002a280       _strpbrk                   1002b280 f   LIBCMT:strpbrk.obj
 0001:0002a2c0       ___sys_nerr                1002b2c0 f   LIBCMT:syserr.obj
 0001:0002a2c6       ___sys_errlist             1002b2c6 f   LIBCMT:syserr.obj
 0001:0002a2cc       __lseek_nolock             1002b2cc f   LIBCMT:lseek.obj
 0001:0002a341       __lseek                    1002b341 f   LIBCMT:lseek.obj
 0001:0002a415       __ftell_nolock             1002b415 f   LIBCMT:ftell.obj
 0001:0002a5a9       ?_ValidateRead@@YAHPBXI@Z  1002b5a9 f   LIBCMT:validate.obj
 0001:0002a5a9       ?_ValidateExecute@@YAHP6GHXZ@Z 1002b5a9 f   LIBCMT:validate.obj
 0001:0002a5a9       ?_ValidateWrite@@YAHPAXI@Z 1002b5a9 f   LIBCMT:validate.obj
 0001:0002a5bb       __initp_misc_winsig        1002b5bb f   LIBCMT:winsig.obj
 0001:0002a610       ___get_sigabrt             1002b610 f   LIBCMT:winsig.obj
 0001:0002a61d       _raise                     1002b61d f   LIBCMT:winsig.obj
 0001:0002a7c0       __crt_debugger_hook        1002b7c0 f   LIBCMT:dbghook.obj
 0001:0002a7d0       __global_unwind2           1002b7d0 f   LIBCMT:exsup.obj
 0001:0002a835       __local_unwind2            1002b835 f   LIBCMT:exsup.obj
 0001:0002a8b9       __abnormal_termination     1002b8b9 f   LIBCMT:exsup.obj
 0001:0002a8dc       __NLG_Notify1              1002b8dc f   LIBCMT:exsup.obj
 0001:0002a8e5       __NLG_Notify               1002b8e5 f   LIBCMT:exsup.obj
 0001:0002a8fc       __NLG_Dispatch             1002b8fc     LIBCMT:exsup.obj
 0001:0002a8fc       __NLG_Dispatch2            1002b8fc     LIBCMT:exsup.obj
 0001:0002a904       __NLG_Call                 1002b904 f   LIBCMT:exsup.obj
 0001:0002a906       __NLG_Return2              1002b906     LIBCMT:exsup.obj
 0001:0002a907       __isatty                   1002b907 f   LIBCMT:isatty.obj
 0001:0002a95d       __get_printf_count_output  1002b95d f   LIBCMT:printf.obj
 0001:0002a973       __wctomb_s_l               1002b973 f   LIBCMT:wctomb.obj
 0001:0002aac8       _wctomb_s                  1002bac8 f   LIBCMT:wctomb.obj
 0001:0002aaf0       __aulldvrm                 1002baf0 f   LIBCMT:ulldvrm.obj
 0001:0002ab90       _strrchr                   1002bb90 f   LIBCMT:strrchr.obj
 0001:0002abbd       __atodbl_l                 1002bbbd f   LIBCMT:atodbl.obj
 0001:0002ac65       __atoflt_l                 1002bc65 f   LIBCMT:atodbl.obj
 0001:0002ad0d       __fptostr                  1002bd0d f   LIBCMT:_fptostr.obj
 0001:0002adc0       ___dtold                   1002bdc0 f   LIBCMT:_cfout_.obj
 0001:0002ae73       __fltout2                  1002be73 f   LIBCMT:_cfout_.obj
 0001:0002af10       __alldvrm                  1002bf10 f   LIBCMT:lldvrm.obj
 0001:0002aff0       __aullshr                  1002bff0 f   LIBCMT:ullshr.obj
 0001:0002b00f       __fptrap                   1002c00f f   LIBCMT:crt0fp.obj
 0001:0002b018       __controlfp_s              1002c018 f   LIBCMT:_contrlfp_.obj
 0001:0002b077       __initp_misc_rand_s        1002c077 f   LIBCMT:rand_s.obj
 0001:0002b086       __putwch_nolock            1002c086 f   LIBCMT:putwch.obj
 0001:0002b0c8       __mbtowc_l                 1002c0c8 f   LIBCMT:mbtowc.obj
 0001:0002b1de       _mbtowc                    1002c1de f   LIBCMT:mbtowc.obj
 0001:0002b1f8       __chsize_nolock            1002c1f8 f   LIBCMT:chsize.obj
 0001:0002b3ae       __setmode_nolock           1002c3ae f   LIBCMT:setmode.obj
 0001:0002b469       __get_fmode                1002c469 f   LIBCMT:setmode.obj
 0001:0002b496       __mbsrchr_l                1002c496 f   LIBCMT:mbsrchr.obj
 0001:0002b540       __mbsrchr                  1002c540 f   LIBCMT:mbsrchr.obj
 0001:0002b557       __getpath                  1002c557 f   LIBCMT:getpath.obj
 0001:0002b5ec       __mbschr_l                 1002c5ec f   LIBCMT:mbschr.obj
 0001:0002b69c       __mbschr                   1002c69c f   LIBCMT:mbschr.obj
 0001:0002b6b3       __dospawn                  1002c6b3 f   LIBCMT:dospawn.obj
 0001:0002b8b7       __cenvarg                  1002c8b7 f   LIBCMT:cenvarg.obj
 0001:0002bc53       __mbsnbicoll_l             1002cc53 f   LIBCMT:mbsnbico.obj
 0001:0002bd31       __mbsnbicoll               1002cd31 f   LIBCMT:mbsnbico.obj
 0001:0002bd4b       ___wtomb_environ           1002cd4b f   LIBCMT:wtombenv.obj
 0001:0002bde2       _calloc                    1002cde2 f   LIBCMT:calloc.obj
 0001:0002be22       __mbsnbicmp_l              1002ce22 f   LIBCMT:mbsnbicm.obj
 0001:0002c026       __mbsnbicmp                1002d026 f   LIBCMT:mbsnbicm.obj
 0001:0002c040       __mbsnbcmp_l               1002d040 f   LIBCMT:mbsnbcmp.obj
 0001:0002c18c       __mbsnbcmp                 1002d18c f   LIBCMT:mbsnbcmp.obj
 0001:0002c1a6       ___crtMessageBoxW          1002d1a6 f   LIBCMT:crtmboxw.obj
 0001:0002c312       _wcscat_s                  1002d312 f   LIBCMT:wcscat_s.obj
 0001:0002c387       _wcsncpy_s                 1002d387 f   LIBCMT:wcsncpy_s.obj
 0001:0002c454       _wcslen                    1002d454 f   LIBCMT:wcslen.obj
 0001:0002c46f       _wcscpy_s                  1002d46f f   LIBCMT:wcscpy_s.obj
 0001:0002c4d2       __set_error_mode           1002d4d2 f   LIBCMT:errmode.obj
 0001:0002c511       __87except                 1002d511 f   LIBCMT:_87except_.obj
 0001:0002c6a3       __ismbblead                1002d6a3 f   LIBCMT:ismbbyte.obj
 0001:0002c795       ___crtGetLocaleInfoA       1002d795 f   LIBCMT:a_loc.obj
 0001:0002c7cf       __strnicmp_l               1002d7cf f   LIBCMT:strnicmp.obj
 0001:0002c8b1       __strnicmp                 1002d8b1 f   LIBCMT:strnicmp.obj
 0001:0002c9be       __itoa_s                   1002d9be f   LIBCMT:xtoas.obj
 0001:0002c9e8       __ld12tod                  1002d9e8 f   LIBCMT:_intrncvt_.obj
 0001:0002cf39       __ld12tof                  1002df39 f   LIBCMT:_intrncvt_.obj
 0001:0002d48a       ___strgtold12_l            1002e48a f   LIBCMT:_strgtold_.obj
 0001:0002db66       _$I10_OUTPUT               1002eb66 f   LIBCMT:_x10fout_.obj
 0001:0002e58c       __control87                1002f58c f i LIBCMT:_ieee87_.obj
 0001:0002e89e       ___initconout              1002f89e f   LIBCMT:initcon.obj
 0001:0002e8bd       ___termconout              1002f8bd f   LIBCMT:initcon.obj
 0001:0002e8d4       __mbsnicmp_l               1002f8d4 f   LIBCMT:mbsnicmp.obj
 0001:0002ea9f       __mbsnicmp                 1002fa9f f   LIBCMT:mbsnicmp.obj
 0001:0002ed27       ___crtCompareStringA       1002fd27 f   LIBCMT:a_cmp.obj
 0001:0002ed69       __strnicoll_l              1002fd69 f   LIBCMT:strnicol.obj
 0001:0002ef05       ___crtsetenv               1002ff05 f   LIBCMT:setenv.obj
 0001:0002f147       __raise_exc_ex             10030147 f   LIBCMT:_fpexcept_.obj
 0001:0002f423       __raise_exc                10030423 f   LIBCMT:_fpexcept_.obj
 0001:0002f446       __handle_exc               10030446 f   LIBCMT:_fpexcept_.obj
 0001:0002f62a       __set_errno_from_matherr   1003062a f   LIBCMT:_fpexcept_.obj
 0001:0002f657       __statfp                   10030657 f   LIBCMT:_fpctrl_.obj
 0001:0002f667       __clrfp                    10030667 f   LIBCMT:_fpctrl_.obj
 0001:0002f678       __ctrlfp                   10030678 f   LIBCMT:_fpctrl_.obj
 0001:0002f6a3       __set_statfp               100306a3 f   LIBCMT:_fpctrl_.obj
 0001:0002f6fb       ___set_fpsr_sse2           100306fb f   LIBCMT:_fpctrl_.obj
 0001:0002f770       ___ascii_strnicmp          10030770 f   LIBCMT:_strnicm.obj
 0001:0002f7d1       ___mtold12                 100307d1 f   LIBCMT:_mantold_.obj
 0001:0002f9b5       __set_exp                  100309b5 f   LIBCMT:_util_.obj
 0001:0002f9e2       __decomp                   100309e2 f   LIBCMT:_util_.obj
 0001:0002faa6       ___WSAFDIsSet@8            10030aa6 f   ws2_32:WS2_32.dll
 0001:0002faac       _GdipDisposeImage@4        10030aac f   gdiplus:gdiplus.dll
 0001:0002fab2       _GdipSaveImageToFile@16    10030ab2 f   gdiplus:gdiplus.dll
 0001:0002fab8       _GdipCreateBitmapFromHBITMAP@12 10030ab8 f   gdiplus:gdiplus.dll
 0001:0002fabe       _GdipGetImageEncodersSize@8 10030abe f   gdiplus:gdiplus.dll
 0001:0002fac4       _GdipGetImageEncoders@12   10030ac4 f   gdiplus:gdiplus.dll
 0001:0002faca       _GdiplusShutdown@4         10030aca f   gdiplus:gdiplus.dll
 0001:0002fad0       _GdiplusStartup@12         10030ad0 f   gdiplus:gdiplus.dll
 0001:0002fad6       _RtlUnwind@16              10030ad6 f   kernel32:KERNEL32.dll
 0002:00000000       __imp__RegSetValueExA@24   10033000     advapi32:ADVAPI32.dll
 0002:00000004       \177ADVAPI32_NULL_THUNK_DATA 10033004     advapi32:ADVAPI32.dll
 0002:00000008       __imp__CreateCompatibleBitmap@12 10033008     gdi32:GDI32.dll
 0002:0000000c       __imp__SelectObject@8      1003300c     gdi32:GDI32.dll
 0002:00000010       __imp__BitBlt@36           10033010     gdi32:GDI32.dll
 0002:00000014       __imp__DeleteObject@4      10033014     gdi32:GDI32.dll
 0002:00000018       __imp__CreateCompatibleDC@4 10033018     gdi32:GDI32.dll
 0002:0000001c       \177GDI32_NULL_THUNK_DATA  1003301c     gdi32:GDI32.dll
 0002:00000020       __imp__LCMapStringW@24     10033020     kernel32:KERNEL32.dll
 0002:00000024       __imp__CompareStringW@24   10033024     kernel32:KERNEL32.dll
 0002:00000028       __imp__CreateProcessA@40   10033028     kernel32:KERNEL32.dll
 0002:0000002c       __imp__GetExitCodeProcess@8 1003302c     kernel32:KERNEL32.dll
 0002:00000030       __imp__GetFileAttributesA@4 10033030     kernel32:KERNEL32.dll
 0002:00000034       __imp__SetCurrentDirectoryA@4 10033034     kernel32:KERNEL32.dll
 0002:00000038       __imp__FindVolumeClose@4   10033038     kernel32:KERNEL32.dll
 0002:0000003c       __imp__FindFirstVolumeA@8  1003303c     kernel32:KERNEL32.dll
 0002:00000040       __imp__CloseHandle@4       10033040     kernel32:KERNEL32.dll
 0002:00000044       __imp__OpenProcess@12      10033044     kernel32:KERNEL32.dll
 0002:00000048       __imp__GetProcessId@4      10033048     kernel32:KERNEL32.dll
 0002:0000004c       __imp__GetCurrentProcess@0 1003304c     kernel32:KERNEL32.dll
 0002:00000050       __imp__CreateDirectoryA@8  10033050     kernel32:KERNEL32.dll
 0002:00000054       __imp__GetModuleFileNameA@12 10033054     kernel32:KERNEL32.dll
 0002:00000058       __imp__WaitForSingleObject@8 10033058     kernel32:KERNEL32.dll
 0002:0000005c       __imp__IsBadReadPtr@8      1003305c     kernel32:KERNEL32.dll
 0002:00000060       __imp__IsBadWritePtr@8     10033060     kernel32:KERNEL32.dll
 0002:00000064       __imp__ResumeThread@4      10033064     kernel32:KERNEL32.dll
 0002:00000068       __imp__CreateThread@24     10033068     kernel32:KERNEL32.dll
 0002:0000006c       __imp__TerminateProcess@8  1003306c     kernel32:KERNEL32.dll
 0002:00000070       __imp__GetCPInfo@8         10033070     kernel32:KERNEL32.dll
 0002:00000074       __imp__GetSystemDefaultUILanguage@0 10033074     kernel32:KERNEL32.dll
 0002:00000078       __imp__MoveFileA@8         10033078     kernel32:KERNEL32.dll
 0002:0000007c       __imp__DeleteFileA@4       1003307c     kernel32:KERNEL32.dll
 0002:00000080       __imp__GetCommandLineA@0   10033080     kernel32:KERNEL32.dll
 0002:00000084       __imp__GetTickCount@0      10033084     kernel32:KERNEL32.dll
 0002:00000088       __imp__ExitProcess@4       10033088     kernel32:KERNEL32.dll
 0002:0000008c       __imp__GetLocalTime@4      1003308c     kernel32:KERNEL32.dll
 0002:00000090       __imp__GetProcessHeap@0    10033090     kernel32:KERNEL32.dll
 0002:00000094       __imp__SetEndOfFile@4      10033094     kernel32:KERNEL32.dll
 0002:00000098       __imp__WriteConsoleW@20    10033098     kernel32:KERNEL32.dll
 0002:0000009c       __imp__LoadLibraryW@4      1003309c     kernel32:KERNEL32.dll
 0002:000000a0       __imp__IsValidLocale@8     100330a0     kernel32:KERNEL32.dll
 0002:000000a4       __imp__EnumSystemLocalesA@8 100330a4     kernel32:KERNEL32.dll
 0002:000000a8       __imp__GetLocaleInfoA@16   100330a8     kernel32:KERNEL32.dll
 0002:000000ac       __imp__GetUserDefaultLCID@0 100330ac     kernel32:KERNEL32.dll
 0002:000000b0       __imp__HeapReAlloc@16      100330b0     kernel32:KERNEL32.dll
 0002:000000b4       __imp__GetLocaleInfoW@16   100330b4     kernel32:KERNEL32.dll
 0002:000000b8       __imp__GetStringTypeW@16   100330b8     kernel32:KERNEL32.dll
 0002:000000bc       __imp__GetCurrentProcessId@0 100330bc     kernel32:KERNEL32.dll
 0002:000000c0       __imp__QueryPerformanceCounter@4 100330c0     kernel32:KERNEL32.dll
 0002:000000c4       __imp__IsProcessorFeaturePresent@4 100330c4     kernel32:KERNEL32.dll
 0002:000000c8       __imp__UnhandledExceptionFilter@4 100330c8     kernel32:KERNEL32.dll
 0002:000000cc       __imp__IsDebuggerPresent@0 100330cc     kernel32:KERNEL32.dll
 0002:000000d0       __imp__GetTimeZoneInformation@4 100330d0     kernel32:KERNEL32.dll
 0002:000000d4       __imp__TlsGetValue@4       100330d4     kernel32:KERNEL32.dll
 0002:000000d8       __imp__TlsAlloc@0          100330d8     kernel32:KERNEL32.dll
 0002:000000dc       __imp__SetUnhandledExceptionFilter@4 100330dc     kernel32:KERNEL32.dll
 0002:000000e0       __imp__SetEnvironmentVariableA@8 100330e0     kernel32:KERNEL32.dll
 0002:000000e4       __imp__WideCharToMultiByte@32 100330e4     kernel32:KERNEL32.dll
 0002:000000e8       __imp__GetCurrentThreadId@0 100330e8     kernel32:KERNEL32.dll
 0002:000000ec       __imp__HeapAlloc@12        100330ec     kernel32:KERNEL32.dll
 0002:000000f0       __imp__GetEnvironmentStringsW@0 100330f0     kernel32:KERNEL32.dll
 0002:000000f4       __imp__FreeEnvironmentStringsW@4 100330f4     kernel32:KERNEL32.dll
 0002:000000f8       __imp__IsValidCodePage@4   100330f8     kernel32:KERNEL32.dll
 0002:000000fc       __imp__GetOEMCP@0          100330fc     kernel32:KERNEL32.dll
 0002:00000100       __imp__GetACP@0            10033100     kernel32:KERNEL32.dll
 0002:00000104       __imp__GetModuleFileNameW@12 10033104     kernel32:KERNEL32.dll
 0002:00000108       __imp__CreateFileW@28      10033108     kernel32:KERNEL32.dll
 0002:0000010c       __imp__CreateFileA@28      1003310c     kernel32:KERNEL32.dll
 0002:00000110       __imp__SetStdHandle@8      10033110     kernel32:KERNEL32.dll
 0002:00000114       __imp__FlushFileBuffers@4  10033114     kernel32:KERNEL32.dll
 0002:00000118       __imp__GetConsoleMode@8    10033118     kernel32:KERNEL32.dll
 0002:0000011c       __imp__GetConsoleCP@0      1003311c     kernel32:KERNEL32.dll
 0002:00000120       __imp__WriteFile@20        10033120     kernel32:KERNEL32.dll
 0002:00000124       __imp__GetStartupInfoW@4   10033124     kernel32:KERNEL32.dll
 0002:00000128       __imp__GetFileType@4       10033128     kernel32:KERNEL32.dll
 0002:0000012c       __imp__InitializeCriticalSectionAndSpinCount@8 1003312c     kernel32:KERNEL32.dll
 0002:00000130       __imp__GetStdHandle@4      10033130     kernel32:KERNEL32.dll
 0002:00000134       __imp__SetHandleCount@4    10033134     kernel32:KERNEL32.dll
 0002:00000138       __imp__SetFilePointer@16   10033138     kernel32:KERNEL32.dll
 0002:0000013c       __imp__HeapDestroy@4       1003313c     kernel32:KERNEL32.dll
 0002:00000140       __imp__HeapCreate@12       10033140     kernel32:KERNEL32.dll
 0002:00000144       __imp__HeapSize@12         10033144     kernel32:KERNEL32.dll
 0002:00000148       __imp__GetProcAddress@8    10033148     kernel32:KERNEL32.dll
 0002:0000014c       __imp__SetLastError@4      1003314c     kernel32:KERNEL32.dll
 0002:00000150       __imp__GetModuleHandleW@4  10033150     kernel32:KERNEL32.dll
 0002:00000154       __imp__TlsFree@4           10033154     kernel32:KERNEL32.dll
 0002:00000158       __imp__InterlockedIncrement@4 10033158     kernel32:KERNEL32.dll
 0002:0000015c       __imp__InterlockedDecrement@4 1003315c     kernel32:KERNEL32.dll
 0002:00000160       __imp__Sleep@4             10033160     kernel32:KERNEL32.dll
 0002:00000164       __imp__InitializeCriticalSection@4 10033164     kernel32:KERNEL32.dll
 0002:00000168       __imp__DeleteCriticalSection@4 10033168     kernel32:KERNEL32.dll
 0002:0000016c       __imp__EnterCriticalSection@4 1003316c     kernel32:KERNEL32.dll
 0002:00000170       __imp__LeaveCriticalSection@4 10033170     kernel32:KERNEL32.dll
 0002:00000174       __imp__EncodePointer@4     10033174     kernel32:KERNEL32.dll
 0002:00000178       __imp__DecodePointer@4     10033178     kernel32:KERNEL32.dll
 0002:0000017c       __imp__GetSystemTimeAsFileTime@4 1003317c     kernel32:KERNEL32.dll
 0002:00000180       __imp__RaiseException@16   10033180     kernel32:KERNEL32.dll
 0002:00000184       __imp__RtlUnwind@16        10033184     kernel32:KERNEL32.dll
 0002:00000188       __imp__GetLastError@0      10033188     kernel32:KERNEL32.dll
 0002:0000018c       __imp__HeapFree@12         1003318c     kernel32:KERNEL32.dll
 0002:00000190       __imp__MultiByteToWideChar@24 10033190     kernel32:KERNEL32.dll
 0002:00000194       __imp__ReadFile@20         10033194     kernel32:KERNEL32.dll
 0002:00000198       __imp__TlsSetValue@8       10033198     kernel32:KERNEL32.dll
 0002:0000019c       \177KERNEL32_NULL_THUNK_DATA 1003319c     kernel32:KERNEL32.dll
 0002:000001a0       __imp__EnumProcesses@12    100331a0     psapi:PSAPI.DLL
 0002:000001a4       __imp__GetModuleFileNameExA@16 100331a4     psapi:PSAPI.DLL
 0002:000001a8       \177PSAPI_NULL_THUNK_DATA  100331a8     psapi:PSAPI.DLL
 0002:000001ac       __imp__SDL_RWFromFile      100331ac     SDL:SDL.dll
 0002:000001b0       __imp__SDL_LoadBMP_RW      100331b0     SDL:SDL.dll
 0002:000001b4       __imp__SDL_CreateRGBSurface 100331b4     SDL:SDL.dll
 0002:000001b8       __imp__SDL_UpperBlit       100331b8     SDL:SDL.dll
 0002:000001bc       __imp__SDL_RWFromMem       100331bc     SDL:SDL.dll
 0002:000001c0       __imp__SDL_FreeSurface     100331c0     SDL:SDL.dll
 0002:000001c4       __imp__SDL_ConvertSurface  100331c4     SDL:SDL.dll
 0002:000001c8       __imp__SDL_Init            100331c8     SDL:SDL.dll
 0002:000001cc       \177SDL_NULL_THUNK_DATA    100331cc     SDL:SDL.dll
 0002:000001d0       __imp__IMG_Load_RW         100331d0     SDL_image:SDL_image.dll
 0002:000001d4       __imp__IMG_Init            100331d4     SDL_image:SDL_image.dll
 0002:000001d8       \177SDL_image_NULL_THUNK_DATA 100331d8     SDL_image:SDL_image.dll
 0002:000001dc       __imp__MapVirtualKeyA@8    100331dc     user32:USER32.dll
 0002:000001e0       __imp__GetAsyncKeyState@4  100331e0     user32:USER32.dll
 0002:000001e4       __imp__GetParent@4         100331e4     user32:USER32.dll
 0002:000001e8       __imp__PostMessageA@16     100331e8     user32:USER32.dll
 0002:000001ec       __imp__IsWindow@4          100331ec     user32:USER32.dll
 0002:000001f0       __imp__MessageBoxA@16      100331f0     user32:USER32.dll
 0002:000001f4       __imp__ReleaseDC@8         100331f4     user32:USER32.dll
 0002:000001f8       __imp__EnumDisplaySettingsA@12 100331f8     user32:USER32.dll
 0002:000001fc       __imp__TranslateMessage@4  100331fc     user32:USER32.dll
 0002:00000200       __imp__DispatchMessageA@4  10033200     user32:USER32.dll
 0002:00000204       __imp__PeekMessageA@20     10033204     user32:USER32.dll
 0002:00000208       __imp__GetDC@4             10033208     user32:USER32.dll
 0002:0000020c       __imp__OemToCharA@8        1003320c     user32:USER32.dll
 0002:00000210       \177USER32_NULL_THUNK_DATA 10033210     user32:USER32.dll
 0002:00000214       __imp__socket@12           10033214     ws2_32:WS2_32.dll
 0002:00000218       __imp__connect@12          10033218     ws2_32:WS2_32.dll
 0002:0000021c       __imp__select@20           1003321c     ws2_32:WS2_32.dll
 0002:00000220       __imp____WSAFDIsSet@8      10033220     ws2_32:WS2_32.dll
 0002:00000224       __imp__WSAGetLastError@0   10033224     ws2_32:WS2_32.dll
 0002:00000228       __imp__send@16             10033228     ws2_32:WS2_32.dll
 0002:0000022c       __imp__gethostbyname@4     1003322c     ws2_32:WS2_32.dll
 0002:00000230       __imp__WSAStartup@8        10033230     ws2_32:WS2_32.dll
 0002:00000234       __imp__recv@16             10033234     ws2_32:WS2_32.dll
 0002:00000238       __imp__closesocket@4       10033238     ws2_32:WS2_32.dll
 0002:0000023c       __imp__htons@4             1003323c     ws2_32:WS2_32.dll
 0002:00000240       __imp__inet_addr@4         10033240     ws2_32:WS2_32.dll
 0002:00000244       \177WS2_32_NULL_THUNK_DATA 10033244     ws2_32:WS2_32.dll
 0002:00000248       __imp__GdipSaveImageToFile@16 10033248     gdiplus:gdiplus.dll
 0002:0000024c       __imp__GdipCreateBitmapFromHBITMAP@12 1003324c     gdiplus:gdiplus.dll
 0002:00000250       __imp__GdipGetImageEncodersSize@8 10033250     gdiplus:gdiplus.dll
 0002:00000254       __imp__GdipGetImageEncoders@12 10033254     gdiplus:gdiplus.dll
 0002:00000258       __imp__GdiplusShutdown@4   10033258     gdiplus:gdiplus.dll
 0002:0000025c       __imp__GdiplusStartup@12   1003325c     gdiplus:gdiplus.dll
 0002:00000260       __imp__GdipDisposeImage@4  10033260     gdiplus:gdiplus.dll
 0002:00000264       \177gdiplus_NULL_THUNK_DATA 10033264     gdiplus:gdiplus.dll
 0002:00000268       ___xc_a                    10033268     LIBCMT:crt0init.obj
 0002:000002c4       ___xc_z                    100332c4     LIBCMT:crt0init.obj
 0002:000002c8       ___xi_a                    100332c8     LIBCMT:crt0init.obj
 0002:000002dc       ___xi_z                    100332dc     LIBCMT:crt0init.obj
 0002:000002e0       ___xp_a                    100332e0     LIBCMT:crt0init.obj
 0002:000002ec       ___xp_z                    100332ec     LIBCMT:crt0init.obj
 0002:000002f0       ___xt_a                    100332f0     LIBCMT:crt0init.obj
 0002:000002f4       ___xt_z                    100332f4     LIBCMT:crt0init.obj
 0002:00000304       ??_7bad_alloc@std@@6B@     10033304     a2mgr.obj
 0002:0000030c       ??_C@_0P@FKBPGFLA@a2mgr?5closed?4?6?$AA@ 1003330c     a2mgr.obj
 0002:0000031c       ??_C@_0BI@CFPLBAOH@invalid?5string?5position?$AA@ 1003331c     a2mgr.obj
 0002:00000334       ??_C@_0BA@JFNIOLAK@string?5too?5long?$AA@ 10033334     a2mgr.obj
 0002:00000344       ??_C@_01KICIPPFI@?2?$AA@   10033344     a2mgr.obj
 0002:00000346       ??_C@_00CNPNBAHC@?$AA@     10033346     a2mgr.obj
 0002:00000348       ??_C@_0M@FODFMELB@?4?1patch?4res?$AA@ 10033348     a2mgr.obj
 0002:00000354       ??_C@_05OCKFKOHN@patch?$AA@ 10033354     a2mgr.obj
 0002:0000035c       ??_C@_0L@JGLAMJNJ@?4?1main?4res?$AA@ 1003335c     a2mgr.obj
 0002:00000368       ??_C@_04GHJNJNPO@main?$AA@ 10033368     a2mgr.obj
 0002:00000370       ??_C@_0P@OALGHCGH@?4?1graphics?4res?$AA@ 10033370     a2mgr.obj
 0002:00000380       ??_C@_08EIINAAAI@graphics?$AA@ 10033380     a2mgr.obj
 0002:0000038c       ??_C@_0BD@OBJDALAH@?$CF?$CFsallods?9?$CFu?9?$CK?4$$$?$AA@ 1003338c     a2mgr.obj
 0002:000003a0       ??_C@_0BC@JGGACLFD@allods?9?$CFu?9?$CF?$CFu?4$$$?$AA@ 100333a0     a2mgr.obj
 0002:000003b4       ??_C@_0CF@IBGGDHNF@a2mgr?5?$CIv1?413?$CJ?1zxmgr?5?$CIv2?40?$CJ?5start@ 100333b4     a2mgr.obj
 0002:000003dc       ??_C@_0BK@NJMHDGAG@Rage?5of?5Mages?5II?5?$CIv1?407?$CJ?6?$AA@ 100333dc     a2mgr.obj
 0002:000003f8       ??_C@_01EEMJAFIK@?6?$AA@   100333f8     a2mgr.obj
 0002:000003fc       ??_C@_04FPOLKAEB@?4log?$AA@ 100333fc     a2mgr.obj
 0002:00000404       ??_C@_03PCJIPBFG@?4?$CFu?$AA@ 10033404     a2mgr.obj
 0002:00000408       ??_C@_0N@PFHDGNMG@logs?2allods2?$AA@ 10033408     a2mgr.obj
 0002:00000418       ??_C@_0BM@ELLNADKP@logs?2allods2_?$CF02u?9?$CF02u?9?$CF04u?$AA@ 10033418     a2mgr.obj
 0002:00000434       ??_C@_07KBFNGLLD@allods2?$AA@ 10033434     a2mgr.obj
 0002:0000043c       ??_C@_0M@KJFJNMIL@screenshots?$AA@ 1003343c     a2mgr.obj
 0002:00000448       ??_C@_04ILAGGJBN@maps?$AA@ 10033448     a2mgr.obj
 0002:00000450       ??_C@_04EPNAICGL@logs?$AA@ 10033450     a2mgr.obj
 0002:00000458       ??_C@_09EPPFGAKB@world?4res?$AA@ 10033458     a2mgr.obj
 0002:00000464       ??_C@_09CCAOBJFP@patch?4res?$AA@ 10033464     a2mgr.obj
 0002:00000470       ??_C@_01LFCBOECM@?4?$AA@   10033470     a2mgr.obj
 0002:00000474       ??_C@_05OIFFPMNL@time?3?$AA@ 10033474     add_info.obj
 0002:0000047c       ??_C@_0P@POAAOGDI@?$CF02u?3?$CF02u?3?$CF02u?$AA@ 1003347c     add_info.obj
 0002:0000048c       ??_C@_04DHIOCCOD@fps?3?$AA@ 1003348c     add_info.obj
 0002:00000494       ??_C@_05KJDOJDAE@?$CF3?41f?$AA@ 10033494     add_info.obj
 0002:0000049c       ??_C@_0BB@DOOHHMIF@TournamentMaster?$AA@ 1003349c     administrat_fix.obj
 0002:000004b0       ??_C@_0BC@IGILEHB@TournamentMaster?5?$AA@ 100334b0     administrat_fix.obj
 0002:000004c4       ??_C@_0L@IPEHJCDA@GameMaster?$AA@ 100334c4     administrat_fix.obj
 0002:000004d0       ??_C@_0M@LDNCFDJM@GameMaster?5?$AA@ 100334d0     administrat_fix.obj
 0002:000004dc       ??_C@_0O@PMKNNGMO@Administrator?$AA@ 100334dc     administrat_fix.obj
 0002:000004ec       ??_C@_0P@OJKEGGMD@Administrator?5?$AA@ 100334ec     administrat_fix.obj
 0002:000004fc       ??_C@_05KJDPJACP@?$FL?$CFs?$FN?5?$AA@ 100334fc     chat.obj
 0002:00000504       ??_C@_0BD@HKLAFPKI@window?5open?3?5?$CF08X?6?$AA@ 10033504     chat_history.obj
 0002:00000518       ??_C@_0BD@OLBABOEK@vector?$DMT?$DO?5too?5long?$AA@ 10033518     chat_history.obj
 0002:0000052c       ??_C@_0BE@JONHPENG@map?1set?$DMT?$DO?5too?5long?$AA@ 1003352c     class_extend.obj
 0002:00000540       ??_C@_0BM@PAPJHAGI@invalid?5map?1set?$DMT?$DO?5iterator?$AA@ 10033540     class_extend.obj
 0002:00000560       ??_7runtime_error@std@@6B@ 10033560     config.obj
 0002:0000056c       ??_7facet@locale@std@@6B@  1003356c     config.obj
 0002:00000574       ??_7ios_base@std@@6B@      10033574     config.obj
 0002:0000057c       ??_7?$basic_istream@DU?$char_traits@D@std@@@std@@6B@ 1003357c     config.obj
 0002:00000584       ??_7?$basic_ios@DU?$char_traits@D@std@@@std@@6B@ 10033584     config.obj
 0002:0000058c       ??_7?$ctype@D@std@@6B@     1003358c     config.obj
 0002:000005b4       ??_7system_error@std@@6B@  100335b4     config.obj
 0002:000005c0       ??_7failure@ios_base@std@@6B@ 100335c0     config.obj
 0002:000005c8       ??_C@_0BF@OOHOMBOF@ios_base?3?3eofbit?5set?$AA@ 100335c8     config.obj
 0002:000005e0       ??_C@_0BG@FMKFHCIL@ios_base?3?3failbit?5set?$AA@ 100335e0     config.obj
 0002:000005f8       ??_C@_0BF@PHHKMMFD@ios_base?3?3badbit?5set?$AA@ 100335f8     config.obj
 0002:00000614       ??_7?$basic_streambuf@DU?$char_traits@D@std@@@std@@6B@ 10033614     config.obj
 0002:00000654       ??_7?$codecvt@DDH@std@@6B@ 10033654     config.obj
 0002:00000674       ??_C@_0BA@ELKIONDK@bad?5locale?5name?$AA@ 10033674     config.obj
 0002:00000684       ??_C@_08EPJLHIJG@bad?5cast?$AA@ 10033684     config.obj
 0002:00000694       ??_7?$basic_filebuf@DU?$char_traits@D@std@@@std@@6B@ 10033694     config.obj
 0002:000006d4       ??_7?$basic_ifstream@DU?$char_traits@D@std@@@std@@6B@ 100336d4     config.obj
 0002:000006d8       ??_8?$basic_ifstream@DU?$char_traits@D@std@@@std@@7B@ 100336d8     config.obj
 0002:000006e0       ??_C@_08BCBDEKMM@alt_chat?$AA@ 100336e0     config.obj
 0002:000006ec       ??_C@_0N@NCFAKAPJ@show_watches?$AA@ 100336ec     config.obj
 0002:000006fc       ??_C@_08EMOCBMJK@show_fps?$AA@ 100336fc     config.obj
 0002:00000708       ??_C@_0BA@EJJCLDG@scroll_inverval?$AA@ 10033708     config.obj
 0002:00000718       ??_C@_01NEMOKFLO@?$DN?$AA@ 10033718     config.obj
 0002:00000720       __real@404f800000000000    10033720     config.obj
 0002:00000728       __real@403f000000000000    10033728     config.obj
 0002:00000730       __real@406fe00000000000    10033730     config.obj
 0002:00000738       __real@4f800000            10033738     config.obj
 0002:0000073c       ??_C@_01JLIPDDHJ@?3?$AA@   1003373c     config.obj
 0002:00000740       ??_C@_0N@CEBDCBIL@r_grid_color?$AA@ 10033740     config.obj
 0002:00000750       ??_C@_06EIAPMGOH@r_grid?$AA@ 10033750     config.obj
 0002:00000758       ??_C@_07CNNBJDHA@english?$AA@ 10033758     config.obj
 0002:00000760       ??_C@_03LKLGDMJI@eng?$AA@  10033760     config.obj
 0002:00000764       ??_C@_07NHJPDDA@russian?$AA@ 10033764     config.obj
 0002:0000076c       ??_C@_03EJKFMIHK@rus?$AA@  1003376c     config.obj
 0002:00000770       ??_C@_0L@EPDOPOPA@z_language?$AA@ 10033770     config.obj
 0002:0000077c       ??_C@_0M@HOAKNDPI@z_screendir?$AA@ 1003377c     config.obj
 0002:00000788       ??_C@_09OPIHKLPF@z_logsdir?$AA@ 10033788     config.obj
 0002:00000794       ??_C@_08JEIBIBOP@r_height?$AA@ 10033794     config.obj
 0002:000007a0       ??_C@_07GJKIEGBH@r_width?$AA@ 100337a0     config.obj
 0002:000007a8       ??_C@_09GAAHAANA@g_altchat?$AA@ 100337a8     config.obj
 0002:000007b4       ??_C@_0M@EDBCABPO@r_stopwatch?$AA@ 100337b4     config.obj
 0002:000007c0       ??_C@_06PGEFGCLG@r_time?$AA@ 100337c0     config.obj
 0002:000007c8       ??_C@_05PMDKEADG@r_fps?$AA@ 100337c8     config.obj
 0002:000007d0       ??_C@_0O@POGJFFOE@g_scrollspeed?$AA@ 100337d0     config.obj
 0002:000007e0       ??_C@_03MOLNDNH@gif?$AA@   100337e0     config.obj
 0002:000007e4       ??_C@_03CAKEDOOO@bmp?$AA@  100337e4     config.obj
 0002:000007e8       ??_C@_03PEGNKCLE@jpg?$AA@  100337e8     config.obj
 0002:000007ec       ??_C@_03NNHBJLDF@png?$AA@  100337ec     config.obj
 0002:000007f0       ??_C@_0N@CFFECJH@v_screentype?$AA@ 100337f0     config.obj
 0002:00000800       ??_C@_02CBLDBPFN@?1?1?$AA@ 10033800     config.obj
 0002:00000804       ??_C@_02GAHDBGM@?$CD?$DL?$AA@ 10033804     config.obj
 0002:00000808       ??_C@_0N@JJKHJGAI@allods2?4conf?$AA@ 10033808     config.obj
 0002:00000818       ??_C@_0M@NEAFPGKI@allods2?4cfg?$AA@ 10033818     config.obj
 0002:00000828       __real@4059000000000000    10033828     CRC_32.obj
 0002:00000830       __real@41f0000000000000    10033830     CRC_32.obj
 0002:00000838       ??_C@_0CF@PJHMIKCH@string?3?5?$CC?$CFs?$CC?$DL?5return?5address?50x?$CF@ 10033838     debug.obj
 0002:00000860       ??_C@_0BH@BLBIDMEH@a2mgr?5crashed?5TWICE?4?6?6?$AA@ 10033860     debug.obj
 0002:00000878       ??_C@_0BB@EIFIKMAB@a2mgr?5crashed?4?6?6?$AA@ 10033878     debug.obj
 0002:0000088c       ??_C@_0BB@KGHABLLC@END?5STACK?5TRACE?6?$AA@ 1003388c     debug.obj
 0002:000008a0       ??_C@_0CF@FJMKCPNO@BEGIN?5STACK?5TRACE?3?5?$CF08Xh?5?$FL?$CF08Xh?$FN@ 100338a0     debug.obj
 0002:000008c8       ??_C@_0JA@BBNPFOEE@EXCEPTION?5DUMP?3?6eax?$DN?$CF08Xh?0ebx?$DN?$CF0@ 100338c8     debug.obj
 0002:00000958       ??_C@_0BB@CLCNBNMA@idle?3?5frame?3?5?$CFu?6?$AA@ 10033958     debug.obj
 0002:0000096c       ??_C@_0CG@NOENENEA@?4256?5displayed?5?$CI?$CC?$CFs?$CC?0?5?$FLebp?$CL4?$FN?$DN?$CF0@ 1003396c     debug.obj
 0002:00000994       ??_C@_03HPADHAHE@N?1A?$AA@ 10033994     debug.obj
 0002:00000998       ??_C@_0BM@NMJKDPPO@invalid?5vector?$DMT?$DO?5subscript?$AA@ 10033998     File.obj
 0002:000009b4       ??_C@_01KMDKNFGN@?1?$AA@   100339b4     File.obj
 0002:000009b8       ??_C@_06DMEKJAEC@patch?1?$AA@ 100339b8     File.obj
 0002:000009c0       ??_C@_0BL@GEFCLJN@FATAL?5ERROR?3?5can?8t?5load?5?$CFs?$AA@ 100339c0     Image.obj
 0002:000009dc       ??_C@_07FICLAJOF@Allods2?$AA@ 100339dc     Image.obj
 0002:000009e4       ??_C@_08HCMAPGPI@?$CFs?$CFd?4256?$AA@ 100339e4     itempng.obj
 0002:000009f0       ??_C@_08IAJEMLAK@?$CFs?$CFd?4png?$AA@ 100339f0     itempng.obj
 0002:000009fc       ??_C@_04LGLCBPKD@?4256?$AA@ 100339fc     itempng.obj
 0002:00000a04       ??_C@_04EEOGCCFB@?4png?$AA@ 10033a04     itempng.obj
 0002:00000a0c       ??_C@_0DK@BCCILJGI@?5?5?5?5?5?5?5?5?5?5?5?5?5unk1?5?$DN?5?$CFu?0?5unk2?5?$DN?5?$CF@ 10033a0c     landscape_renderer.obj
 0002:00000a48       ??_C@_0EE@EDKKNONK@tile?5?$DN?5?$CF04X?$DL?5x1?5?$DN?5?$CFd?0?5x2?5?$DN?5?$CFd?0?5h@ 10033a48     landscape_renderer.obj
 0002:00000a8c       ??_C@_0DA@JKGDLLDN@?5?5Error?5converting?5image?0?5file?5?$CC@ 10033a8c     landscape_renderer.obj
 0002:00000abc       ??_C@_0CG@BAKBACJI@?5?5Error?5converting?5image?0?5file?5?$CC@ 10033abc     landscape_renderer.obj
 0002:00000ae4       ??_C@_0CG@MNPECLFI@?5?5Error?5image?5dimensions?0?5file?5?$CC@ 10033ae4     landscape_renderer.obj
 0002:00000b0c       ??_C@_0BM@BPLKEJNG@?5?5Error?5loading?5file?5?$CC?$CFs?$CC?$CB?6?$AA@ 10033b0c     landscape_renderer.obj
 0002:00000b28       ??_C@_02JDPG@rb?$AA@       10033b28     landscape_renderer.obj
 0002:00000b2c       ??_C@_0CB@MIMCBPBE@graphics?1terrain?1tile?$CFu?9?$CF02u?4bmp@ 10033b2c     landscape_renderer.obj
 0002:00000b50       ??_C@_0BP@HBBABJFP@P_LoadTiles?3?5Loading?5tiles?4?4?4?6?$AA@ 10033b50     landscape_renderer.obj
 0002:00000b70       ??_C@_0CH@MFIMKAAL@locale?2ru?2graphics?2MainMenu?2text@ 10033b70     language.obj
 0002:00000b98       ??_C@_0CJ@NLAIOHKG@locale?2ru?2graphics?2MainMenu?2butt@ 10033b98     language.obj
 0002:00000bc4       ??_C@_0CK@PHELILHG@locale?2ru?2graphics?2MainMenu?2butt@ 10033bc4     language.obj
 0002:00000bf0       ??_C@_0CG@GBAOEBGH@locale?2ru?2graphics?2MainMenu?2menu@ 10033bf0     language.obj
 0002:00000c18       ??_C@_0CJ@OMHLGEAE@locale?2ru?2graphics?2MainMenu?2Menu@ 10033c18     language.obj
 0002:00000c44       ??_C@_0CD@KJEIBEAL@locale?2ru?2graphics?2logo?2allods?4b@ 10033c44     language.obj
 0002:00000c68       ??_C@_0CH@MBEAFIKB@locale?2ru?2graphics?2Global?4Map?2GM@ 10033c68     language.obj
 0002:00000c90       ??_C@_0CI@GCJLOPDI@locale?2ru?2graphics?2Global?4Map?2Um@ 10033c90     language.obj
 0002:00000cb8       ??_C@_0CF@LDMKPACD@locale?2ru?2graphics?2famehall?2hall@ 10033cb8     language.obj
 0002:00000ce0       ??_C@_0BJ@NOMLHOBP@locale?2ru?2graphics?2logo?2?$AA@ 10033ce0     language.obj
 0002:00000cfc       ??_C@_0CF@JMEDDIJE@locale?2ru?2graphics?2chrgen?2leftup@ 10033cfc     language.obj
 0002:00000d24       ??_C@_0BG@DPMMMIOE@locale?2ru?2docs?2?$CFd?4txt?$AA@ 10033d24     language.obj
 0002:00000d3c       ??_C@_0BE@NGFOMDGA@locale?2ru?2quest?4txt?$AA@ 10033d3c     language.obj
 0002:00000d50       ??_C@_0BI@FOJDLLPK@locale?2ru?2mission?$CFd?4txt?$AA@ 10033d50     language.obj
 0002:00000d68       ??_C@_0BD@EEFBEHEP@locale?2ru?2town?4txt?$AA@ 10033d68     language.obj
 0002:00000d7c       ??_C@_0BE@GLGLNELI@locale?2ru?2patch?4txt?$AA@ 10033d7c     language.obj
 0002:00000d90       ??_C@_0BE@HEBGINDO@locale?2ru?2tunes?4txt?$AA@ 10033d90     language.obj
 0002:00000da4       ??_C@_0BH@BLIAALOD@locale?2ru?2cutpaths?4txt?$AA@ 10033da4     language.obj
 0002:00000dbc       ??_C@_0BH@NIAPHNGP@locale?2ru?2cutscene?4txt?$AA@ 10033dbc     language.obj
 0002:00000dd4       ??_C@_0BH@HIIGDHFO@locale?2ru?2npcnames?4txt?$AA@ 10033dd4     language.obj
 0002:00000dec       ??_C@_0BH@GLAHAOEG@locale?2ru?2itemname?4txt?$AA@ 10033dec     language.obj
 0002:00000e04       ??_C@_0BH@MIFICOMO@locale?2ru?2building?4txt?$AA@ 10033e04     language.obj
 0002:00000e1c       ??_C@_0BH@HCDECMBP@locale?2ru?2unitname?4txt?$AA@ 10033e1c     language.obj
 0002:00000e34       ??_C@_0BG@GGPAFNNH@locale?2ru?2dialogs?4txt?$AA@ 10033e34     language.obj
 0002:00000e4c       ??_C@_0BE@OGCPDKMD@locale?2ru?2spell?4txt?$AA@ 10033e4c     language.obj
 0002:00000e60       ??_C@_0BF@MIKHIKFN@locale?2ru?2spells?4txt?$AA@ 10033e60     language.obj
 0002:00000e78       ??_C@_0BE@JJDIAHNC@locale?2ru?2stats?4txt?$AA@ 10033e78     language.obj
 0002:00000e8c       ??_C@_0BK@ONCBKIJH@locale?2ru?2heropicture?4txt?$AA@ 10033e8c     language.obj
 0002:00000ea8       ??_C@_0BD@GGFJEGME@locale?2ru?2main?4txt?$AA@ 10033ea8     language.obj
 0002:00000ebc       ??_C@_0BD@MDGAEBDN@locale?2ru?2help?4txt?$AA@ 10033ebc     language.obj
 0002:00000ed0       ??_C@_0BI@HLDHADDB@locale?2ru?2globalmap?4txt?$AA@ 10033ed0     language.obj
 0002:00000ee8       ??_C@_0BG@LNNFHKGB@locale?2ru?2credits?4txt?$AA@ 10033ee8     language.obj
 0002:00000f00       ??_C@_0CH@OKCJCOJM@locale?2en?2graphics?2MainMenu?2text@ 10033f00     language.obj
 0002:00000f28       ??_C@_0CJ@OPAIHKPJ@locale?2en?2graphics?2MainMenu?2butt@ 10033f28     language.obj
 0002:00000f54       ??_C@_0CK@MKLMHIO@locale?2en?2graphics?2MainMenu?2butt@ 10033f54     language.obj
 0002:00000f80       ??_C@_0CG@KLPMFBFL@locale?2en?2graphics?2MainMenu?2menu@ 10033f80     language.obj
 0002:00000fa8       ??_C@_0CJ@NIHLPJFL@locale?2en?2graphics?2MainMenu?2Menu@ 10033fa8     language.obj
 0002:00000fd4       ??_C@_0CD@JJHMGGJE@locale?2en?2graphics?2logo?2allods?4b@ 10033fd4     language.obj
 0002:00000ff8       ??_C@_0CH@OOOFNGDG@locale?2en?2graphics?2Global?4Map?2GM@ 10033ff8     language.obj
 0002:00001020       ??_C@_0CI@MNPEMFB@locale?2en?2graphics?2Global?4Map?2Um@ 10034020     language.obj
 0002:00001048       ??_C@_0CF@PLBIEGNC@locale?2en?2graphics?2famehall?2hall@ 10034048     language.obj
 0002:00001070       ??_C@_0BJ@LDJNKFAE@locale?2en?2graphics?2logo?2?$AA@ 10034070     language.obj
 0002:0000108c       ??_C@_0CF@NEJBIOGF@locale?2en?2graphics?2chrgen?2leftup@ 1003408c     language.obj
 0002:000010b4       ??_C@_0BG@MJCFFPDA@locale?2en?2docs?2?$CFd?4txt?$AA@ 100340b4     language.obj
 0002:000010cc       ??_C@_0BE@GCKACKBA@locale?2en?2quest?4txt?$AA@ 100340cc     language.obj
 0002:000010e0       ??_C@_0BI@NFKMELOP@locale?2en?2mission?$CFd?4txt?$AA@ 100340e0     language.obj
 0002:000010f8       ??_C@_0BD@LBAGAALD@locale?2en?2town?4txt?$AA@ 100340f8     language.obj
 0002:0000110c       ??_C@_0BE@NPJFDNMI@locale?2en?2patch?4txt?$AA@ 1003410c     language.obj
 0002:00001120       ??_C@_0BE@MAOIGEEO@locale?2en?2tunes?4txt?$AA@ 10034120     language.obj
 0002:00001134       ??_C@_0BH@JKMIPELJ@locale?2en?2cutpaths?4txt?$AA@ 10034134     language.obj
 0002:0000114c       ??_C@_0BH@FJEHICDF@locale?2en?2cutscene?4txt?$AA@ 1003414c     language.obj
 0002:00001164       ??_C@_0BH@PJMOMIAE@locale?2en?2npcnames?4txt?$AA@ 10034164     language.obj
 0002:0000117c       ??_C@_0BH@OKEPPBBM@locale?2en?2itemname?4txt?$AA@ 1003417c     language.obj
 0002:00001194       ??_C@_0BH@EJBANBJE@locale?2en?2building?4txt?$AA@ 10034194     language.obj
 0002:000011ac       ??_C@_0BH@PDHMNDEF@locale?2en?2unitname?4txt?$AA@ 100341ac     language.obj
 0002:000011c4       ??_C@_0BG@JABJMKAD@locale?2en?2dialogs?4txt?$AA@ 100341c4     language.obj
 0002:000011dc       ??_C@_0BE@FCNBNDLD@locale?2en?2spell?4txt?$AA@ 100341dc     language.obj
 0002:000011f0       ??_C@_0BF@JIBGAFII@locale?2en?2spells?4txt?$AA@ 100341f0     language.obj
 0002:00001208       ??_C@_0BE@CNMGOOKC@locale?2en?2stats?4txt?$AA@ 10034208     language.obj
 0002:0000121c       ??_C@_0BK@GHCJDHKA@locale?2en?2heropicture?4txt?$AA@ 1003421c     language.obj
 0002:00001238       ??_C@_0BD@JDAOABDI@locale?2en?2main?4txt?$AA@ 10034238     language.obj
 0002:0000124c       ??_C@_0BD@DGDHAGMB@locale?2en?2help?4txt?$AA@ 1003424c     language.obj
 0002:00001260       ??_C@_0BI@PAAIPDCE@locale?2en?2globalmap?4txt?$AA@ 10034260     language.obj
 0002:00001278       ??_C@_0BG@ELDMONLF@locale?2en?2credits?4txt?$AA@ 10034278     language.obj
 0002:00001290       ??_C@_05HFIDHIOI@maps?2?$AA@ 10034290     map_location.obj
 0002:000013d8       __real@0000000000000000    100343d8     network_protocol_ext.obj
 0002:000013e0       ??_C@_01GBGANLPD@0?$AA@    100343e0     network_protocol_ext.obj
 0002:000013e4       ??_C@_0P@HOJGPHBA@Content?9Length?$AA@ 100343e4     network_protocol_ext.obj
 0002:000013f8       __real@3f50000000000000    100343f8     network_protocol_ext.obj
 0002:00001400       __real@3eb0000000000000    10034400     network_protocol_ext.obj
 0002:00001408       ??_C@_06EPABMEI@?$CF?$CF?$CF02X?$AA@ 10034408     network_protocol_ext.obj
 0002:00001410       ??_C@_0L@NPNLKGOJ@text?1plain?$AA@ 10034410     network_protocol_ext.obj
 0002:0000141c       ??_C@_06MDEHPNLG@Accept?$AA@ 1003441c     network_protocol_ext.obj
 0002:00001424       ??_C@_0CC@FLKANKNI@application?1x?9www?9form?9urlencode@ 10034424     network_protocol_ext.obj
 0002:00001448       ??_C@_0N@HBJEOFKE@Content?9type?$AA@ 10034448     network_protocol_ext.obj
 0002:00001458       ??_C@_05LBOHBHFK@close?$AA@ 10034458     network_protocol_ext.obj
 0002:00001460       ??_C@_0L@PJJKMLL@Connection?$AA@ 10034460     network_protocol_ext.obj
 0002:0000146c       ??_C@_0O@HDLLGOIB@unblock_error?$AA@ 1003446c     network_protocol_ext.obj
 0002:0000147c       ??_C@_08KMKJOBJG@fuck_off?$AA@ 1003447c     network_protocol_ext.obj
 0002:00001488       ??_C@_09CANFPFML@ip_banned?$AA@ 10034488     network_protocol_ext.obj
 0002:00001494       ??_C@_0O@OOBKCKLH@login_invalid?$AA@ 10034494     network_protocol_ext.obj
 0002:000014a4       ??_C@_0BB@OCMFILPG@login_banned_fvr?$AA@ 100344a4     network_protocol_ext.obj
 0002:000014b8       ??_C@_0N@BPEJFBLL@login_banned?$AA@ 100344b8     network_protocol_ext.obj
 0002:000014c8       ??_C@_0BM@PGIMAKHD@start?5patch_setup?4exe?5?1D?$DN?$CFs?$AA@ 100344c8     network_protocol_ext.obj
 0002:000014e4       ??_C@_0BO@MPIBEDFP@action?$DNget_latest?$CGlanguage?$DN?$CFs?$AA@ 100344e4     network_protocol_ext.obj
 0002:00001504       ??_C@_0BA@BEIGIHGL@patch_setup?4exe?$AA@ 10034504     network_protocol_ext.obj
 0002:00001514       ??_C@_02GMLFBBN@wb?$AA@    10034514     network_protocol_ext.obj
 0002:00001518       ??_C@_0N@PHDGFFIC@patch_update?$AA@ 10034518     network_protocol_ext.obj
 0002:00001528       ??_C@_07GHAGJAEE@string?$HM?$AA@ 10034528     network_protocol_ext.obj
 0002:00001530       ??_C@_04HCJEIHPL@POST?$AA@ 10034530     network_protocol_ext.obj
 0002:00001538       ??_C@_0M@LMMJOIKI@?1redhat?4php?$AA@ 10034538     network_protocol_ext.obj
 0002:00001548       ??_C@_0HJ@JMCMDCNB@action?$DNcheck_version?$CGlanguage?$DN?$CFs@ 10034548     network_protocol_ext.obj
 0002:000015c4       ??_C@_0P@NNOKMEKN@api?4allods2?4eu?$AA@ 100345c4     network_protocol_ext.obj
 0002:000015d4       ??_C@_0BA@GLEIDBIN@patch?2patch?4txt?$AA@ 100345d4     resource_files_replace.obj
 0002:000015e4       ??_C@_0BI@JLANLLPG@world?2data?2itemname?4pkt?$AA@ 100345e4     resource_files_replace.obj
 0002:000015fc       ??_C@_0BI@NCLEAKFH@world?2data?2itemname?4bin?$AA@ 100345fc     resource_files_replace.obj
 0002:00001614       ??_C@_0BD@MPAHKJEF@world?2mission?2scr_?$AA@ 10034614     resource_files_replace.obj
 0002:00001628       ??_C@_0BD@MCILJEMP@world?2data?2map?4reg?$AA@ 10034628     resource_files_replace.obj
 0002:0000163c       ??_C@_0BC@IJOJGCJJ@world?2data?2ai?4reg?$AA@ 1003463c     resource_files_replace.obj
 0002:00001650       ??_C@_0BE@DMCPAPBE@world?2data?2data?4bin?$AA@ 10034650     resource_files_replace.obj
 0002:00001664       ??_C@_0M@GDJKKOLH@world?2data?2?$AA@ 10034664     resource_files_replace.obj
 0002:00001670       ??_C@_1BG@BIJOLBJP@?$AAi?$AAm?$AAa?$AAg?$AAe?$AA?1?$AAj?$AAp?$AAe?$AAg?$AA?$AA@ 10034670     screenshot.obj
 0002:00001688       ??_C@_1BE@OPHBPEE@?$AAi?$AAm?$AAa?$AAg?$AAe?$AA?1?$AAb?$AAm?$AAp?$AA?$AA@ 10034688     screenshot.obj
 0002:0000169c       ??_C@_1BE@KIPEFLHF@?$AAi?$AAm?$AAa?$AAg?$AAe?$AA?1?$AAg?$AAi?$AAf?$AA?$AA@ 1003469c     screenshot.obj
 0002:000016b0       ??_C@_1BE@HLDDDEJK@?$AAi?$AAm?$AAa?$AAg?$AAe?$AA?1?$AAp?$AAn?$AAg?$AA?$AA@ 100346b0     screenshot.obj
 0002:000016c4       ??_C@_0N@GMMNBBCM@screenshots?2?$AA@ 100346c4     screenshot.obj
 0002:000016d4       ??_C@_0CJ@MEKLPEEG@screenshot_?$CF02u?9?$CF02u?9?$CF04u_?$CF02u?9?$CF@ 100346d4     screenshot.obj
 0002:00001700       ??_C@_0L@CMHOPIGK@screenshot?$AA@ 10034700     screenshot.obj
 0002:00001710       ??_7?$basic_ostream@DU?$char_traits@D@std@@@std@@6B@ 10034710     serialize.obj
 0002:00001718       ??_7?$basic_ofstream@DU?$char_traits@D@std@@@std@@6B@ 10034718     serialize.obj
 0002:0000171c       ??_8?$basic_ofstream@DU?$char_traits@D@std@@@std@@7B@ 1003471c     serialize.obj
 0002:00001724       ??_C@_02GMHACPFF@?$CFu?$AA@ 10034724     utils.obj
 0002:00001728       ??_C@_0BP@EDOKPPAO@?$FL?$CFd?4?$CF?42d?4?$CF?44d?5?$CFd?3?$CF?42d?3?$CF?42d?$FN?5?$CFs?$AA@ 10034728     utils.obj
 0002:00001748       ??_C@_01EANLCPLP@y?$AA@    10034748     utils.obj
 0002:0000174c       ??_C@_01HIHLOKLC@1?$AA@    1003474c     utils.obj
 0002:00001750       ??_C@_04LOAJBDKD@true?$AA@ 10034750     utils.obj
 0002:00001758       ??_C@_03ICICOMAL@yes?$AA@  10034758     utils.obj
 0002:0000175c       ??_C@_02CFKBDFGI@?1?2?$AA@ 1003475c     utils.obj
 0002:00001760       ??_C@_0M@CPHHDLKE@?9?9res?3?$CFdx?$CFd?$AA@ 10034760     video_init.obj
 0002:0000176c       ??_C@_06ILDPNCNL@?9?9res?3?$AA@ 1003476c     video_init.obj
 0002:00001774       ??_C@_05FKAODCK@?91024?$AA@ 10034774     video_init.obj
 0002:0000177c       ??_C@_04MODOOAHK@?9800?$AA@ 1003477c     video_init.obj
 0002:00001784       ??_C@_04CJOIDPJF@?9640?$AA@ 10034784     video_init.obj
 0002:0000178c       ??_C@_0CE@NLAMLJKD@No?5host?5data?5of?5that?5type?5was?5fo@ 1003478c     happyhttp.obj
 0002:000017b0       ??_C@_07CIFAGBMG@unknown?$AA@ 100347b0     happyhttp.obj
 0002:000017b8       ??_C@_0P@CAFMJNJH@Host?5not?5found?$AA@ 100347b8     happyhttp.obj
 0002:000017c8       ??_C@_0BO@ILFFGILJ@Graceful?5shutdown?5in?5progress?$AA@ 100347c8     happyhttp.obj
 0002:000017e8       ??_C@_0BK@IOEFHAOC@WSAStartup?5not?5yet?5called?$AA@ 100347e8     happyhttp.obj
 0002:00001804       ??_C@_0BN@NCBCBEJJ@Winsock?5version?5out?5of?5range?$AA@ 10034804     happyhttp.obj
 0002:00001824       ??_C@_0BO@IEFFGCLJ@Network?5system?5is?5unavailable?$AA@ 10034824     happyhttp.obj
 0002:00001844       ??_C@_0CC@DBGGHIAG@Too?5many?5levels?5of?5remote?5in?5pat@ 10034844     happyhttp.obj
 0002:00001868       ??_C@_0BG@KNCBNNDC@Stale?5NFS?5file?5handle?$AA@ 10034868     happyhttp.obj
 0002:00001880       ??_C@_0BE@KMAIMPL@Disc?5quota?5exceeded?$AA@ 10034880     happyhttp.obj
 0002:00001894       ??_C@_0P@DAFGFIDC@Too?5many?5users?$AA@ 10034894     happyhttp.obj
 0002:000018a4       ??_C@_0BD@LPHIGPM@Too?5many?5processes?$AA@ 100348a4     happyhttp.obj
 0002:000018b8       ??_C@_0BE@ICMCHPHH@Directory?5not?5empty?$AA@ 100348b8     happyhttp.obj
 0002:000018cc       ??_C@_0BB@PFBILCPA@No?5route?5to?5host?$AA@ 100348cc     happyhttp.obj
 0002:000018e0       ??_C@_0N@OHOPOBEF@Host?5is?5down?$AA@ 100348e0     happyhttp.obj
 0002:000018f0       ??_C@_0BD@CGPKCNP@File?5name?5too?5long?$AA@ 100348f0     happyhttp.obj
 0002:00001904       ??_C@_0CC@CPDHMANB@Too?5many?5levels?5of?5symbolic?5link@ 10034904     happyhttp.obj
 0002:00001928       ??_C@_0BD@NPDMPPFP@Connection?5refused?$AA@ 10034928     happyhttp.obj
 0002:0000193c       ??_C@_0BF@IBBHAGLD@Connection?5timed?5out?$AA@ 1003493c     happyhttp.obj
 0002:00001954       ??_C@_0CC@BICDPOAJ@Too?5many?5references?0?5can?8t?5splic@ 10034954     happyhttp.obj
 0002:00001978       ??_C@_0CB@IOOOMFJJ@Can?8t?5send?5after?5socket?5shutdown@ 10034978     happyhttp.obj
 0002:0000199c       ??_C@_0BI@ILAOGBJJ@Socket?5is?5not?5connected?$AA@ 1003499c     happyhttp.obj
 0002:000019b4       ??_C@_0BM@CCONNCKE@Socket?5is?5already?5connected?$AA@ 100349b4     happyhttp.obj
 0002:000019d0       ??_C@_0BK@OCAHGMEA@No?5buffer?5space?5available?$AA@ 100349d0     happyhttp.obj
 0002:000019ec       ??_C@_0BJ@FJAMCHKE@Connection?5reset?5by?5peer?$AA@ 100349ec     happyhttp.obj
 0002:00001a08       ??_C@_0CB@DJAOADN@Software?5caused?5connection?5abort@ 10034a08     happyhttp.obj
 0002:00001a2c       ??_C@_0BF@ODIGNMHJ@Net?5connection?5reset?$AA@ 10034a2c     happyhttp.obj
 0002:00001a44       ??_C@_0BH@CIEOBPFM@Network?5is?5unreachable?$AA@ 10034a44     happyhttp.obj
 0002:00001a5c       ??_C@_0BA@LPIEBGEK@Network?5is?5down?$AA@ 10034a5c     happyhttp.obj
 0002:00001a6c       ??_C@_0BP@OKMOKAIP@Can?8t?5assign?5requested?5address?$AA@ 10034a6c     happyhttp.obj
 0002:00001a8c       ??_C@_0BH@LOKACPE@Address?5already?5in?5use?$AA@ 10034a8c     happyhttp.obj
 0002:00001aa4       ??_C@_0BN@GMEBDOHK@Address?5family?5not?5supported?$AA@ 10034aa4     happyhttp.obj
 0002:00001ac4       ??_C@_0BO@EBCCBLCJ@Protocol?5family?5not?5supported?$AA@ 10034ac4     happyhttp.obj
 0002:00001ae4       ??_C@_0CC@GKIJMEBA@Operation?5not?5supported?5on?5socke@ 10034ae4     happyhttp.obj
 0002:00001b08       ??_C@_0BK@LMAIHBL@Socket?5type?5not?5supported?$AA@ 10034b08     happyhttp.obj
 0002:00001b24       ??_C@_0BH@JNBKLLAJ@Protocol?5not?5supported?$AA@ 10034b24     happyhttp.obj
 0002:00001b3c       ??_C@_0BE@NEGCDJON@Bad?5protocol?5option?$AA@ 10034b3c     happyhttp.obj
 0002:00001b50       ??_C@_0BP@PDKJLOAE@Protocol?5wrong?5type?5for?5socket?$AA@ 10034b50     happyhttp.obj
 0002:00001b70       ??_C@_0BB@NDAKHOCP@Message?5too?5long?$AA@ 10034b70     happyhttp.obj
 0002:00001b84       ??_C@_0BN@HFCIEIME@Destination?5address?5required?$AA@ 10034b84     happyhttp.obj
 0002:00001ba4       ??_C@_0BP@MCCLAMPH@Socket?5operation?5on?5non?9socket?$AA@ 10034ba4     happyhttp.obj
 0002:00001bc4       ??_C@_0BO@BMABNIPB@Operation?5already?5in?5progress?$AA@ 10034bc4     happyhttp.obj
 0002:00001be4       ??_C@_0BK@LBMNDGCG@Operation?5now?5in?5progress?$AA@ 10034be4     happyhttp.obj
 0002:00001c00       ??_C@_0BG@GMFMDOIH@Operation?5would?5block?$AA@ 10034c00     happyhttp.obj
 0002:00001c18       ??_C@_0BG@HDGDIOKN@Too?5many?5open?5sockets?$AA@ 10034c18     happyhttp.obj
 0002:00001c30       ??_C@_0BB@HMGGCEBG@Invalid?5argument?$AA@ 10034c30     happyhttp.obj
 0002:00001c44       ??_C@_0M@LOEHLCJD@Bad?5address?$AA@ 10034c44     happyhttp.obj
 0002:00001c50       ??_C@_0BC@HFNFNKAI@Permission?5denied?$AA@ 10034c50     happyhttp.obj
 0002:00001c64       ??_C@_0BA@IMABKEOI@Bad?5file?5number?$AA@ 10034c64     happyhttp.obj
 0002:00001c74       ??_C@_0BI@EAGLFFDI@Interrupted?5system?5call?$AA@ 10034c74     happyhttp.obj
 0002:00001c8c       ??_C@_08INEPGKHH@No?5error?$AA@ 10034c8c     happyhttp.obj
 0002:00001c98       ??_C@_0BC@KBDMBKEH@deque?$DMT?$DO?5too?5long?$AA@ 10034c98     happyhttp.obj
 0002:00001cac       ??_C@_06DJHOIPC@?$CFs?3?5?$CFs?$AA@ 10034cac     happyhttp.obj
 0002:00001cb4       ??_C@_06LGNCCACI@select?$AA@ 10034cb4     happyhttp.obj
 0002:00001cbc       ??_C@_0BP@HGOHPAK@Connection?5closed?5unexpectedly?$AA@ 10034cbc     happyhttp.obj
 0002:00001cdc       ??_C@_09KLHJMPLC@connect?$CI?$CJ?$AA@ 10034cdc     happyhttp.obj
 0002:00001ce8       ??_C@_0BI@LFNHBFK@Invalid?5network?5address?$AA@ 10034ce8     happyhttp.obj
 0002:00001d00       ??_C@_08MGOJEIPC@socket?$CI?$CJ?$AA@ 10034d00     happyhttp.obj
 0002:00001d0c       ??_C@_06HHEFFBF@send?$CI?$CJ?$AA@ 10034d0c     happyhttp.obj
 0002:00001d14       ??_C@_0BD@NCJBNNDM@BadStatusLine?5?$CI?$CFs?$CJ?$AA@ 10034d14     happyhttp.obj
 0002:00001d28       ??_C@_0BF@CHEICBID@UnknownProtocol?5?$CI?$CFs?$CJ?$AA@ 10034d28     happyhttp.obj
 0002:00001d40       ??_C@_07MOMMIIKD@HTTP?11?4?$AA@ 10034d40     happyhttp.obj
 0002:00001d48       ??_C@_09PGNIKOP@HTTP?3?11?40?$AA@ 10034d48     happyhttp.obj
 0002:00001d54       ??_C@_0L@FFDPOIEG@keep?9alive?$AA@ 10034d54     happyhttp.obj
 0002:00001d60       ??_C@_0L@IJAFCDGM@connection?$AA@ 10034d60     happyhttp.obj
 0002:00001d6c       ??_C@_04BINJNOJD@HEAD?$AA@ 10034d6c     happyhttp.obj
 0002:00001d74       ??_C@_0P@DJOOPABC@content?9length?$AA@ 10034d74     happyhttp.obj
 0002:00001d84       ??_C@_07KCKHAHHI@chunked?$AA@ 10034d84     happyhttp.obj
 0002:00001d8c       ??_C@_0BC@JEMMGIEE@transfer?9encoding?$AA@ 10034d8c     happyhttp.obj
 0002:00001da0       ??_C@_02LMMGGCAJ@?3?5?$AA@ 10034da0     happyhttp.obj
 0002:00001da4       ??_C@_0BD@JPOEAGON@putheader?$CI?$CJ?5failed?$AA@ 10034da4     happyhttp.obj
 0002:00001db8       ??_C@_02DPKJAMEF@?$CFd?$AA@ 10034db8     happyhttp.obj
 0002:00001dbc       ??_C@_02PCIJFNDE@?$AN?6?$AA@ 10034dbc     happyhttp.obj
 0002:00001dc0       ??_C@_0BD@FINKFIPP@Cannot?5send?5header?$AA@ 10034dc0     happyhttp.obj
 0002:00001dd4       ??_C@_0BA@KDJCHKHJ@Accept?9Encoding?$AA@ 10034dd4     happyhttp.obj
 0002:00001de4       ??_C@_08LBJOIDDC@identity?$AA@ 10034de4     happyhttp.obj
 0002:00001df0       ??_C@_04CPPPJGME@Host?$AA@ 10034df0     happyhttp.obj
 0002:00001df8       ??_C@_0P@IOKLOIJF@?$CFs?5?$CFs?5HTTP?11?41?$AA@ 10034df8     happyhttp.obj
 0002:00001e08       ??_C@_0BH@KNAPNMIJ@Request?5already?5issued?$AA@ 10034e08     happyhttp.obj
 0002:00001e20       ??_C@_06KDIDAFAE@recv?$CI?$CJ?$AA@ 10034e20     happyhttp.obj
 0002:00001e28       ?key_08@@3QBEB             10034e28     packet.obj
 0002:00001e78       ?key_10@@3QBEB             10034e78     packet.obj
 0002:00001ec8       ?key_11@@3QBEB             10034ec8     packet.obj
 0002:00001f18       ?key_15@@3QBEB             10034f18     packet.obj
 0002:00001f68       ?key_20@@3QBEB             10034f68     packet.obj
 0002:00001ffc       ??_7logic_error@std@@6B@   10034ffc     libcpmt:xthrow.obj
 0002:00002008       ??_7length_error@std@@6B@  10035008     libcpmt:xthrow.obj
 0002:00002014       ??_7out_of_range@std@@6B@  10035014     libcpmt:xthrow.obj
 0002:0000201c       ??_C@_01NBENCBCI@?$CK?$AA@ 1003501c     libcpmt:locale0.obj
 0002:00002024       ??_7_Locimp@locale@std@@6B@ 10035024     libcpmt:locale0.obj
 0002:00002028       ??_C@_01GFHCPBMG@C?$AA@    10035028     libcpmt:locale0.obj
 0002:00002030       ??_7error_category@std@@6B@ 10035030     libcpmt:syserror.obj
 0002:00002048       ??_C@_07DCLBNMLN@generic?$AA@ 10035048     libcpmt:syserror.obj
 0002:00002054       ??_7_Generic_error_category@std@@6B@ 10035054     libcpmt:syserror.obj
 0002:0000206c       ??_C@_08LLGCOLLL@iostream?$AA@ 1003506c     libcpmt:syserror.obj
 0002:0000207c       ??_7_Iostream_error_category@std@@6B@ 1003507c     libcpmt:syserror.obj
 0002:00002094       ??_C@_06FHFOAHML@system?$AA@ 10035094     libcpmt:syserror.obj
 0002:000020a0       ??_7_System_error_category@std@@6B@ 100350a0     libcpmt:syserror.obj
 0002:000020b8       ??_C@_0BG@PADBLCHM@iostream?5stream?5error?$AA@ 100350b8     libcpmt:syserror.obj
 0002:000020d0       ?_BADOFF@std@@3_JB         100350d0     libcpmt:ios.obj
 0002:00002114       ??_C@_01KDCPPGHE@r?$AA@    10035114     libcpmt:fiopen.obj
 0002:00002118       ??_C@_01NOFIACDB@w?$AA@    10035118     libcpmt:fiopen.obj
 0002:0000211c       ??_C@_01MCMALHOG@a?$AA@    1003511c     libcpmt:fiopen.obj
 0002:00002120       ??_C@_02BOGAIONP@ab?$AA@   10035120     libcpmt:fiopen.obj
 0002:00002124       ??_C@_02CBLLGHLK@r?$CL?$AA@ 10035124     libcpmt:fiopen.obj
 0002:00002128       ??_C@_02CHHAKFFB@w?$CL?$AA@ 10035128     libcpmt:fiopen.obj
 0002:0000212c       ??_C@_02DPNLHKJD@a?$CL?$AA@ 1003512c     libcpmt:fiopen.obj
 0002:00002130       ??_C@_03HMFOOINA@r?$CLb?$AA@ 10035130     libcpmt:fiopen.obj
 0002:00002134       ??_C@_03ELIABIOC@w?$CLb?$AA@ 10035134     libcpmt:fiopen.obj
 0002:00002138       ??_C@_03DOPCBAKB@a?$CLb?$AA@ 10035138     libcpmt:fiopen.obj
 0002:0000213c       ?valid@?1???$_Xfiopen@D@std@@YAPAU_iobuf@@PBDHH@Z@4QBHB 1003513c     libcpmt:fiopen.obj
 0002:0000217c       ??_7exception@std@@6B@     1003517c     LIBCMT:stdexcpt.obj
 0002:00002184       ??_C@_0BC@EOODALEL@Unknown?5exception?$AA@ 10035184     LIBCMT:stdexcpt.obj
 0002:0000219c       ??_7bad_cast@std@@6B@      1003519c     LIBCMT:stdexcpt.obj
 0002:000021a8       ??_7type_info@@6B@         100351a8     LIBCMT:typinfo.obj
 0002:000021ac       ??_C@_0P@GHFPNOJB@bad?5allocation?$AA@ 100351ac     LIBCMT:new.obj
 0002:000021dc       __FPinit                   100351dc     LIBCMT:_fpinit_.obj
 0002:000021e0       ??_C@_07INNMNHPJ@cmd?4exe?$AA@ 100351e0     LIBCMT:system.obj
 0002:000021e8       ??_C@_02HNHPBPFE@?1c?$AA@  100351e8     LIBCMT:system.obj
 0002:000021ec       ??_C@_07CFPBBAOO@COMSPEC?$AA@ 100351ec     LIBCMT:system.obj
 0002:000021f4       __pDefaultRawDllMain       100351f4     LIBCMT:dllcrt0.obj
 0002:000021f4       __pRawDllMain              100351f4     LIBCMT:dllcrt0.obj
 0002:000021f8       ___newctype                100351f8     LIBCMT:ctype.obj
 0002:000024f8       __wctype                   100354f8     LIBCMT:ctype.obj
 0002:00002700       ___newclmap                10035700     LIBCMT:ctype.obj
 0002:00002880       ___newcumap                10035880     LIBCMT:ctype.obj
 0002:00002a00       ??_C@_07LCBHPJJN@LC_TIME?$AA@ 10035a00     LIBCMT:setlocal.obj
 0002:00002a08       ??_C@_0L@DLHIECNL@LC_NUMERIC?$AA@ 10035a08     LIBCMT:setlocal.obj
 0002:00002a14       ??_C@_0M@MIENIKLA@LC_MONETARY?$AA@ 10035a14     LIBCMT:setlocal.obj
 0002:00002a20       ??_C@_08EADHIDAD@LC_CTYPE?$AA@ 10035a20     LIBCMT:setlocal.obj
 0002:00002a2c       ??_C@_0L@KFJHEKIK@LC_COLLATE?$AA@ 10035a2c     LIBCMT:setlocal.obj
 0002:00002a38       ??_C@_06NEFDFEKB@LC_ALL?$AA@ 10035a38     LIBCMT:setlocal.obj
 0002:00002a40       ___lc_category             10035a40     LIBCMT:setlocal.obj
 0002:00002b08       ??_C@_03EGDHDPFD@_?4?0?$AA@ 10035b08     LIBCMT:setlocal.obj
 0002:00002b0c       ??_C@_01IDAFKMJL@_?$AA@    10035b0c     LIBCMT:setlocal.obj
 0002:00002b10       ??_C@_01ICJEACDI@?$DL?$AA@ 10035b10     LIBCMT:setlocal.obj
 0002:00002b14       ??_C@_02BALPLPBG@?$DN?$DL?$AA@ 10035b14     LIBCMT:setlocal.obj
 0002:00002b18       ??_C@_0EA@FCLIIPNN@Visual?5C?$CL?$CL?5CRT?3?5Not?5enough?5memor@ 10035b18     LIBCMT:strerror.obj
 0002:00002b58       __pDestructExceptionObject 10035b58     LIBCMT:frame.obj
 0002:00002b60       ??_7bad_exception@std@@6B@ 10035b60     LIBCMT:frame.obj
 0002:00002b68       ??_C@_0O@DPKOEFFH@bad?5exception?$AA@ 10035b68     LIBCMT:frame.obj
 0002:00002b78       ??_C@_02CLFPBFFP@TZ?$AA@   10035b78     LIBCMT:tzset.obj
 0002:00002b7c       ___dnames                  10035b7c     LIBCMT:timeset.obj
 0002:00002b94       ___mnames                  10035b94     LIBCMT:timeset.obj
 0002:00002bbc       ??_C@_1BK@DBDEIDLH@?$AAK?$AAE?$AAR?$AAN?$AAE?$AAL?$AA3?$AA2?$AA?4?$AAD?$AAL?$AAL?$AA?$AA@ 10035bbc     LIBCMT:tidtable.obj
 0002:00002bd8       ??_C@_07PEJMOBNF@FlsFree?$AA@ 10035bd8     LIBCMT:tidtable.obj
 0002:00002be0       ??_C@_0M@JCPCPOEF@FlsSetValue?$AA@ 10035be0     LIBCMT:tidtable.obj
 0002:00002bec       ??_C@_0M@GDNOONDI@FlsGetValue?$AA@ 10035bec     LIBCMT:tidtable.obj
 0002:00002bf8       ??_C@_08KNHFBNJ@FlsAlloc?$AA@ 10035bf8     LIBCMT:tidtable.obj
 0002:00002c0c       ??_C@_1O@CEDCILHN@?$AA?$CI?$AAn?$AAu?$AAl?$AAl?$AA?$CJ?$AA?$AA@ 10035c0c     LIBCMT:output.obj
 0002:00002c1c       ??_C@_06OJHGLDPL@?$CInull?$CJ?$AA@ 10035c1c     LIBCMT:output.obj
 0002:00002c28       ___lookuptable             10035c28     LIBCMT:output.obj
 0002:00002c84       ??_C@_05KLBDPFGC@e?$CL000?$AA@ 10035c84     LIBCMT:cvt.obj
 0002:00002c8c       ??_C@_0P@MIGLKIOC@CorExitProcess?$AA@ 10035c8c     LIBCMT:crt0dat.obj
 0002:00002c9c       ??_C@_1BI@BGOHAHKC@?$AAm?$AAs?$AAc?$AAo?$AAr?$AAe?$AAe?$AA?4?$AAd?$AAl?$AAl?$AA?$AA@ 10035c9c     LIBCMT:crt0dat.obj
 0002:00002cb4       ??_C@_04HBHDLLBA@PATH?$AA@ 10035cb4     LIBCMT:spawnvpe.obj
 0002:00002cbc       ??_C@_04PNGHFIJN@?4com?$AA@ 10035cbc     LIBCMT:spawnve.obj
 0002:00002cc4       ??_C@_04JLMDILM@?4exe?$AA@ 10035cc4     LIBCMT:spawnve.obj
 0002:00002ccc       ??_C@_04NEEFLLOK@?4bat?$AA@ 10035ccc     LIBCMT:spawnve.obj
 0002:00002cd4       ??_C@_04CPCBDHLK@?4cmd?$AA@ 10035cd4     LIBCMT:spawnve.obj
 0002:00002cdc       ??_C@_02CEGDFPFP@?4?2?$AA@ 10035cdc     LIBCMT:spawnve.obj
 0002:00002d00       ??_C@_1BO@BKOMIGKJ@?$AAr?$AAu?$AAn?$AAt?$AAi?$AAm?$AAe?$AA?5?$AAe?$AAr?$AAr?$AAo?$AAr?$AA?5?$AA?$AA@ 10035d00     LIBCMT:crt0msg.obj
 0002:00002d20       ??_C@_15JNBOKNOG@?$AA?$AN?$AA?6?$AA?$AA@ 10035d20     LIBCMT:crt0msg.obj
 0002:00002d28       ??_C@_1BM@JBBEPPHI@?$AAT?$AAL?$AAO?$AAS?$AAS?$AA?5?$AAe?$AAr?$AAr?$AAo?$AAr?$AA?$AN?$AA?6?$AA?$AA@ 10035d28     LIBCMT:crt0msg.obj
 0002:00002d44       ??_C@_1BK@KMOMNAAI@?$AAS?$AAI?$AAN?$AAG?$AA?5?$AAe?$AAr?$AAr?$AAo?$AAr?$AA?$AN?$AA?6?$AA?$AA@ 10035d44     LIBCMT:crt0msg.obj
 0002:00002d60       ??_C@_1BO@BFCDCGC@?$AAD?$AAO?$AAM?$AAA?$AAI?$AAN?$AA?5?$AAe?$AAr?$AAr?$AAo?$AAr?$AA?$AN?$AA?6?$AA?$AA@ 10035d60     LIBCMT:crt0msg.obj
 0002:00002d80       ??_C@_1BOO@KGEDBGAJ@?$AAR?$AA6?$AA0?$AA3?$AA3?$AA?$AN?$AA?6?$AA?9?$AA?5?$AAA?$AAt?$AAt?$AAe?$AAm?$AAp?$AAt?$AA?5?$AAt?$AAo?$AA?5?$AAu?$AAs?$AAe?$AA?5?$AAM?$AAS?$AAI?$AAL?$AA?5?$AAc?$AAo?$AAd@ 10035d80     LIBCMT:crt0msg.obj
 0002:00002f70       ??_C@_1GG@GOPILAJP@?$AAR?$AA6?$AA0?$AA3?$AA2?$AA?$AN?$AA?6?$AA?9?$AA?5?$AAn?$AAo?$AAt?$AA?5?$AAe?$AAn?$AAo?$AAu?$AAg?$AAh?$AA?5?$AAs?$AAp?$AAa?$AAc?$AAe?$AA?5?$AAf?$AAo?$AAr?$AA?5?$AAl?$AAo@ 10035f70     LIBCMT:crt0msg.obj
 0002:00002fd8       ??_C@_1MG@ENCOOIDF@?$AAR?$AA6?$AA0?$AA3?$AA1?$AA?$AN?$AA?6?$AA?9?$AA?5?$AAA?$AAt?$AAt?$AAe?$AAm?$AAp?$AAt?$AA?5?$AAt?$AAo?$AA?5?$AAi?$AAn?$AAi?$AAt?$AAi?$AAa?$AAl?$AAi?$AAz?$AAe?$AA?5?$AAt@ 10035fd8     LIBCMT:crt0msg.obj
 0002:000030a0       ??_C@_1DO@BMFCDCD@?$AAR?$AA6?$AA0?$AA3?$AA0?$AA?$AN?$AA?6?$AA?9?$AA?5?$AAC?$AAR?$AAT?$AA?5?$AAn?$AAo?$AAt?$AA?5?$AAi?$AAn?$AAi?$AAt?$AAi?$AAa?$AAl?$AAi?$AAz?$AAe?$AAd?$AA?$AN?$AA?6?$AA?$AA@ 100360a0     LIBCMT:crt0msg.obj
 0002:000030e0       ??_C@_1EK@HHFLMAOL@?$AAR?$AA6?$AA0?$AA2?$AA8?$AA?$AN?$AA?6?$AA?9?$AA?5?$AAu?$AAn?$AAa?$AAb?$AAl?$AAe?$AA?5?$AAt?$AAo?$AA?5?$AAi?$AAn?$AAi?$AAt?$AAi?$AAa?$AAl?$AAi?$AAz?$AAe?$AA?5?$AAh?$AAe@ 100360e0     LIBCMT:crt0msg.obj
 0002:00003130       ??_C@_1GK@MFGOKLAG@?$AAR?$AA6?$AA0?$AA2?$AA7?$AA?$AN?$AA?6?$AA?9?$AA?5?$AAn?$AAo?$AAt?$AA?5?$AAe?$AAn?$AAo?$AAu?$AAg?$AAh?$AA?5?$AAs?$AAp?$AAa?$AAc?$AAe?$AA?5?$AAf?$AAo?$AAr?$AA?5?$AAl?$AAo@ 10036130     LIBCMT:crt0msg.obj
 0002:000031a0       ??_C@_1GK@MCAAGJMO@?$AAR?$AA6?$AA0?$AA2?$AA6?$AA?$AN?$AA?6?$AA?9?$AA?5?$AAn?$AAo?$AAt?$AA?5?$AAe?$AAn?$AAo?$AAu?$AAg?$AAh?$AA?5?$AAs?$AAp?$AAa?$AAc?$AAe?$AA?5?$AAf?$AAo?$AAr?$AA?5?$AAs?$AAt@ 100361a0     LIBCMT:crt0msg.obj
 0002:00003210       ??_C@_1EM@MAADIHMB@?$AAR?$AA6?$AA0?$AA2?$AA5?$AA?$AN?$AA?6?$AA?9?$AA?5?$AAp?$AAu?$AAr?$AAe?$AA?5?$AAv?$AAi?$AAr?$AAt?$AAu?$AAa?$AAl?$AA?5?$AAf?$AAu?$AAn?$AAc?$AAt?$AAi?$AAo?$AAn?$AA?5?$AAc@ 10036210     LIBCMT:crt0msg.obj
 0002:00003260       ??_C@_1GK@FHCKBEFA@?$AAR?$AA6?$AA0?$AA2?$AA4?$AA?$AN?$AA?6?$AA?9?$AA?5?$AAn?$AAo?$AAt?$AA?5?$AAe?$AAn?$AAo?$AAu?$AAg?$AAh?$AA?5?$AAs?$AAp?$AAa?$AAc?$AAe?$AA?5?$AAf?$AAo?$AAr?$AA?5?$AA_?$AAo@ 10036260     LIBCMT:crt0msg.obj
 0002:000032d0       ??_C@_1FC@ECHBIFBC@?$AAR?$AA6?$AA0?$AA1?$AA9?$AA?$AN?$AA?6?$AA?9?$AA?5?$AAu?$AAn?$AAa?$AAb?$AAl?$AAe?$AA?5?$AAt?$AAo?$AA?5?$AAo?$AAp?$AAe?$AAn?$AA?5?$AAc?$AAo?$AAn?$AAs?$AAo?$AAl?$AAe?$AA?5@ 100362d0     LIBCMT:crt0msg.obj
 0002:00003328       ??_C@_1EC@JIBHAOPH@?$AAR?$AA6?$AA0?$AA1?$AA8?$AA?$AN?$AA?6?$AA?9?$AA?5?$AAu?$AAn?$AAe?$AAx?$AAp?$AAe?$AAc?$AAt?$AAe?$AAd?$AA?5?$AAh?$AAe?$AAa?$AAp?$AA?5?$AAe?$AAr?$AAr?$AAo?$AAr?$AA?$AN?$AA?6@ 10036328     LIBCMT:crt0msg.obj
 0002:00003370       ??_C@_1FK@BEOGODMC@?$AAR?$AA6?$AA0?$AA1?$AA7?$AA?$AN?$AA?6?$AA?9?$AA?5?$AAu?$AAn?$AAe?$AAx?$AAp?$AAe?$AAc?$AAt?$AAe?$AAd?$AA?5?$AAm?$AAu?$AAl?$AAt?$AAi?$AAt?$AAh?$AAr?$AAe?$AAa?$AAd?$AA?5@ 10036370     LIBCMT:crt0msg.obj
 0002:000033d0       ??_C@_1FI@LOGNIKDM@?$AAR?$AA6?$AA0?$AA1?$AA6?$AA?$AN?$AA?6?$AA?9?$AA?5?$AAn?$AAo?$AAt?$AA?5?$AAe?$AAn?$AAo?$AAu?$AAg?$AAh?$AA?5?$AAs?$AAp?$AAa?$AAc?$AAe?$AA?5?$AAf?$AAo?$AAr?$AA?5?$AAt?$AAh@ 100363d0     LIBCMT:crt0msg.obj
 0002:00003428       ??_C@_1EG@BEHAGFJD@?$AAR?$AA6?$AA0?$AA1?$AA0?$AA?$AN?$AA?6?$AA?9?$AA?5?$AAa?$AAb?$AAo?$AAr?$AAt?$AA?$CI?$AA?$CJ?$AA?5?$AAh?$AAa?$AAs?$AA?5?$AAb?$AAe?$AAe?$AAn?$AA?5?$AAc?$AAa?$AAl?$AAl?$AAe?$AAd@ 10036428     LIBCMT:crt0msg.obj
 0002:00003470       ??_C@_1FI@HONFMGBI@?$AAR?$AA6?$AA0?$AA0?$AA9?$AA?$AN?$AA?6?$AA?9?$AA?5?$AAn?$AAo?$AAt?$AA?5?$AAe?$AAn?$AAo?$AAu?$AAg?$AAh?$AA?5?$AAs?$AAp?$AAa?$AAc?$AAe?$AA?5?$AAf?$AAo?$AAr?$AA?5?$AAe?$AAn@ 10036470     LIBCMT:crt0msg.obj
 0002:000034c8       ??_C@_1FE@LLNEDJMD@?$AAR?$AA6?$AA0?$AA0?$AA8?$AA?$AN?$AA?6?$AA?9?$AA?5?$AAn?$AAo?$AAt?$AA?5?$AAe?$AAn?$AAo?$AAu?$AAg?$AAh?$AA?5?$AAs?$AAp?$AAa?$AAc?$AAe?$AA?5?$AAf?$AAo?$AAr?$AA?5?$AAa?$AAr@ 100364c8     LIBCMT:crt0msg.obj
 0002:00003520       ??_C@_1FK@PGACCAFB@?$AAR?$AA6?$AA0?$AA0?$AA2?$AA?$AN?$AA?6?$AA?9?$AA?5?$AAf?$AAl?$AAo?$AAa?$AAt?$AAi?$AAn?$AAg?$AA?5?$AAp?$AAo?$AAi?$AAn?$AAt?$AA?5?$AAs?$AAu?$AAp?$AAp?$AAo?$AAr?$AAt?$AA?5@ 10036520     LIBCMT:crt0msg.obj
 0002:00003630       ??_C@_1EK@MBDPDCGA@?$AAM?$AAi?$AAc?$AAr?$AAo?$AAs?$AAo?$AAf?$AAt?$AA?5?$AAV?$AAi?$AAs?$AAu?$AAa?$AAl?$AA?5?$AAC?$AA?$CL?$AA?$CL?$AA?5?$AAR?$AAu?$AAn?$AAt?$AAi?$AAm?$AAe?$AA?5?$AAL?$AAi?$AAb@ 10036630     LIBCMT:crt0msg.obj
 0002:0000367c       ??_C@_15IABLJNFO@?$AA?6?$AA?6?$AA?$AA@ 1003667c     LIBCMT:crt0msg.obj
 0002:00003684       ??_C@_17LGKOMLJ@?$AA?4?$AA?4?$AA?4?$AA?$AA@ 10036684     LIBCMT:crt0msg.obj
 0002:0000368c       ??_C@_1CO@EAEJAADC@?$AA?$DM?$AAp?$AAr?$AAo?$AAg?$AAr?$AAa?$AAm?$AA?5?$AAn?$AAa?$AAm?$AAe?$AA?5?$AAu?$AAn?$AAk?$AAn?$AAo?$AAw?$AAn?$AA?$DO?$AA?$AA@ 1003668c     LIBCMT:crt0msg.obj
 0002:000036bc       ??_C@_1DE@JNGNBFGO@?$AAR?$AAu?$AAn?$AAt?$AAi?$AAm?$AAe?$AA?5?$AAE?$AAr?$AAr?$AAo?$AAr?$AA?$CB?$AA?6?$AA?6?$AAP?$AAr?$AAo?$AAg?$AAr?$AAa?$AAm?$AA?3?$AA?5?$AA?$AA@ 100366bc     LIBCMT:crt0msg.obj
 0002:000036f0       ??_C@_1BC@GDGBMEMK@?$AAH?$AAH?$AA?3?$AAm?$AAm?$AA?3?$AAs?$AAs?$AA?$AA@ 100366f0     LIBCMT:nlsdata2.obj
 0002:00003704       ??_C@_1CI@KNAKOEBC@?$AAd?$AAd?$AAd?$AAd?$AA?0?$AA?5?$AAM?$AAM?$AAM?$AAM?$AA?5?$AAd?$AAd?$AA?0?$AA?5?$AAy?$AAy?$AAy?$AAy?$AA?$AA@ 10036704     LIBCMT:nlsdata2.obj
 0002:0000372c       ??_C@_1BC@IEBCMHCM@?$AAM?$AAM?$AA?1?$AAd?$AAd?$AA?1?$AAy?$AAy?$AA?$AA@ 1003672c     LIBCMT:nlsdata2.obj
 0002:00003740       ??_C@_15CLMNNGEL@?$AAP?$AAM?$AA?$AA@ 10036740     LIBCMT:nlsdata2.obj
 0002:00003748       ??_C@_15ODEHAHHF@?$AAA?$AAM?$AA?$AA@ 10036748     LIBCMT:nlsdata2.obj
 0002:00003750       ??_C@_1BC@FEMKIFH@?$AAD?$AAe?$AAc?$AAe?$AAm?$AAb?$AAe?$AAr?$AA?$AA@ 10036750     LIBCMT:nlsdata2.obj
 0002:00003764       ??_C@_1BC@BGLIFPF@?$AAN?$AAo?$AAv?$AAe?$AAm?$AAb?$AAe?$AAr?$AA?$AA@ 10036764     LIBCMT:nlsdata2.obj
 0002:00003778       ??_C@_1BA@EPANDLNG@?$AAO?$AAc?$AAt?$AAo?$AAb?$AAe?$AAr?$AA?$AA@ 10036778     LIBCMT:nlsdata2.obj
 0002:00003788       ??_C@_1BE@DKAAMBJL@?$AAS?$AAe?$AAp?$AAt?$AAe?$AAm?$AAb?$AAe?$AAr?$AA?$AA@ 10036788     LIBCMT:nlsdata2.obj
 0002:0000379c       ??_C@_1O@PAHLKOAC@?$AAA?$AAu?$AAg?$AAu?$AAs?$AAt?$AA?$AA@ 1003679c     LIBCMT:nlsdata2.obj
 0002:000037ac       ??_C@_19BIFMLPCD@?$AAJ?$AAu?$AAl?$AAy?$AA?$AA@ 100367ac     LIBCMT:nlsdata2.obj
 0002:000037b8       ??_C@_19EPFLPGAP@?$AAJ?$AAu?$AAn?$AAe?$AA?$AA@ 100367b8     LIBCMT:nlsdata2.obj
 0002:000037c4       ??_C@_1M@GJNLMHFD@?$AAA?$AAp?$AAr?$AAi?$AAl?$AA?$AA@ 100367c4     LIBCMT:nlsdata2.obj
 0002:000037d0       ??_C@_1M@IKEENEDF@?$AAM?$AAa?$AAr?$AAc?$AAh?$AA?$AA@ 100367d0     LIBCMT:nlsdata2.obj
 0002:000037dc       ??_C@_1BC@JGDDFFAM@?$AAF?$AAe?$AAb?$AAr?$AAu?$AAa?$AAr?$AAy?$AA?$AA@ 100367dc     LIBCMT:nlsdata2.obj
 0002:000037f0       ??_C@_1BA@EFMEIEBA@?$AAJ?$AAa?$AAn?$AAu?$AAa?$AAr?$AAy?$AA?$AA@ 100367f0     LIBCMT:nlsdata2.obj
 0002:00003800       ??_C@_17EGKACKIF@?$AAD?$AAe?$AAc?$AA?$AA@ 10036800     LIBCMT:nlsdata2.obj
 0002:00003808       ??_C@_17BBDMLCIG@?$AAN?$AAo?$AAv?$AA?$AA@ 10036808     LIBCMT:nlsdata2.obj
 0002:00003810       ??_C@_17FNLKOI@?$AAO?$AAc?$AAt?$AA?$AA@ 10036810     LIBCMT:nlsdata2.obj
 0002:00003818       ??_C@_17HCHCOKMG@?$AAS?$AAe?$AAp?$AA?$AA@ 10036818     LIBCMT:nlsdata2.obj
 0002:00003820       ??_C@_17ICPELBCN@?$AAA?$AAu?$AAg?$AA?$AA@ 10036820     LIBCMT:nlsdata2.obj
 0002:00003828       ??_C@_17IJPCKHK@?$AAJ?$AAu?$AAl?$AA?$AA@ 10036828     LIBCMT:nlsdata2.obj
 0002:00003830       ??_C@_17KCJGOCPB@?$AAJ?$AAu?$AAn?$AA?$AA@ 10036830     LIBCMT:nlsdata2.obj
 0002:00003838       ??_C@_17PNNKMEED@?$AAM?$AAa?$AAy?$AA?$AA@ 10036838     LIBCMT:nlsdata2.obj
 0002:00003840       ??_C@_17LFPOIHDD@?$AAA?$AAp?$AAr?$AA?$AA@ 10036840     LIBCMT:nlsdata2.obj
 0002:00003848       ??_C@_17CKNLEDEC@?$AAM?$AAa?$AAr?$AA?$AA@ 10036848     LIBCMT:nlsdata2.obj
 0002:00003850       ??_C@_17LMDJEKJN@?$AAF?$AAe?$AAb?$AA?$AA@ 10036850     LIBCMT:nlsdata2.obj
 0002:00003858       ??_C@_17DKNBKCHM@?$AAJ?$AAa?$AAn?$AA?$AA@ 10036858     LIBCMT:nlsdata2.obj
 0002:00003860       ??_C@_1BC@ENMNNPAJ@?$AAS?$AAa?$AAt?$AAu?$AAr?$AAd?$AAa?$AAy?$AA?$AA@ 10036860     LIBCMT:nlsdata2.obj
 0002:00003874       ??_C@_1O@PDICJHAG@?$AAF?$AAr?$AAi?$AAd?$AAa?$AAy?$AA?$AA@ 10036874     LIBCMT:nlsdata2.obj
 0002:00003884       ??_C@_1BC@HHMNLIHE@?$AAT?$AAh?$AAu?$AAr?$AAs?$AAd?$AAa?$AAy?$AA?$AA@ 10036884     LIBCMT:nlsdata2.obj
 0002:00003898       ??_C@_1BE@EBOGMDOH@?$AAW?$AAe?$AAd?$AAn?$AAe?$AAs?$AAd?$AAa?$AAy?$AA?$AA@ 10036898     LIBCMT:nlsdata2.obj
 0002:000038ac       ??_C@_1BA@ENFBFFEK@?$AAT?$AAu?$AAe?$AAs?$AAd?$AAa?$AAy?$AA?$AA@ 100368ac     LIBCMT:nlsdata2.obj
 0002:000038bc       ??_C@_1O@MMNBFLIA@?$AAM?$AAo?$AAn?$AAd?$AAa?$AAy?$AA?$AA@ 100368bc     LIBCMT:nlsdata2.obj
 0002:000038cc       ??_C@_1O@IHNHDHPB@?$AAS?$AAu?$AAn?$AAd?$AAa?$AAy?$AA?$AA@ 100368cc     LIBCMT:nlsdata2.obj
 0002:000038dc       ??_C@_17GGIBDPIH@?$AAS?$AAa?$AAt?$AA?$AA@ 100368dc     LIBCMT:nlsdata2.obj
 0002:000038e4       ??_C@_17HFOLPPLP@?$AAF?$AAr?$AAi?$AA?$AA@ 100368e4     LIBCMT:nlsdata2.obj
 0002:000038ec       ??_C@_17PDPHAADD@?$AAT?$AAh?$AAu?$AA?$AA@ 100368ec     LIBCMT:nlsdata2.obj
 0002:000038f4       ??_C@_17CJEDCEPE@?$AAW?$AAe?$AAd?$AA?$AA@ 100368f4     LIBCMT:nlsdata2.obj
 0002:000038fc       ??_C@_17BMKGEGOJ@?$AAT?$AAu?$AAe?$AA?$AA@ 100368fc     LIBCMT:nlsdata2.obj
 0002:00003904       ??_C@_17KBOMKBF@?$AAM?$AAo?$AAn?$AA?$AA@ 10036904     LIBCMT:nlsdata2.obj
 0002:0000390c       ??_C@_17MBGCMIPB@?$AAS?$AAu?$AAn?$AA?$AA@ 1003690c     LIBCMT:nlsdata2.obj
 0002:00003914       ??_C@_08JCCMCCIL@HH?3mm?3ss?$AA@ 10036914     LIBCMT:nlsdata2.obj
 0002:00003920       ??_C@_0BE@CKGJFCPC@dddd?0?5MMMM?5dd?0?5yyyy?$AA@ 10036920     LIBCMT:nlsdata2.obj
 0002:00003934       ??_C@_08BPBNCDIB@MM?1dd?1yy?$AA@ 10036934     LIBCMT:nlsdata2.obj
 0002:00003940       ??_C@_02CJNFDJBF@PM?$AA@   10036940     LIBCMT:nlsdata2.obj
 0002:00003944       ??_C@_02DEDBPAFC@AM?$AA@   10036944     LIBCMT:nlsdata2.obj
 0002:00003948       ??_C@_08EDHMEBNP@December?$AA@ 10036948     LIBCMT:nlsdata2.obj
 0002:00003954       ??_C@_08HCHEGEOA@November?$AA@ 10036954     LIBCMT:nlsdata2.obj
 0002:00003960       ??_C@_07JJNFCEND@October?$AA@ 10036960     LIBCMT:nlsdata2.obj
 0002:00003968       ??_C@_09BHHEALKD@September?$AA@ 10036968     LIBCMT:nlsdata2.obj
 0002:00003974       ??_C@_06LBBHFDDG@August?$AA@ 10036974     LIBCMT:nlsdata2.obj
 0002:0000397c       ??_C@_04MIEPOIFP@July?$AA@ 1003697c     LIBCMT:nlsdata2.obj
 0002:00003984       ??_C@_04CNLMGBGM@June?$AA@ 10036984     LIBCMT:nlsdata2.obj
 0002:0000398c       ??_C@_05DMJDNLEJ@April?$AA@ 1003698c     LIBCMT:nlsdata2.obj
 0002:00003994       ??_C@_05HPCKOFNC@March?$AA@ 10036994     LIBCMT:nlsdata2.obj
 0002:0000399c       ??_C@_08GNJGEPFN@February?$AA@ 1003699c     LIBCMT:nlsdata2.obj
 0002:000039a8       ??_C@_07CGJPFGJA@January?$AA@ 100369a8     LIBCMT:nlsdata2.obj
 0002:000039b0       ??_C@_03MKABNOCG@Dec?$AA@  100369b0     LIBCMT:nlsdata2.obj
 0002:000039b4       ??_C@_03JPJOFNIA@Nov?$AA@  100369b4     LIBCMT:nlsdata2.obj
 0002:000039b8       ??_C@_03BMAOKBAD@Oct?$AA@  100369b8     LIBCMT:nlsdata2.obj
 0002:000039bc       ??_C@_03GGCAPAJC@Sep?$AA@  100369bc     LIBCMT:nlsdata2.obj
 0002:000039c0       ??_C@_03IFJFEIGA@Aug?$AA@  100369c0     LIBCMT:nlsdata2.obj
 0002:000039c4       ??_C@_03LBGABGKK@Jul?$AA@  100369c4     LIBCMT:nlsdata2.obj
 0002:000039c8       ??_C@_03IDFGHECI@Jun?$AA@  100369c8     LIBCMT:nlsdata2.obj
 0002:000039cc       ??_C@_03CNMDKL@May?$AA@    100369cc     LIBCMT:nlsdata2.obj
 0002:000039d0       ??_C@_03LEOLGMJP@Apr?$AA@  100369d0     LIBCMT:nlsdata2.obj
 0002:000039d4       ??_C@_03ODNJBKGA@Mar?$AA@  100369d4     LIBCMT:nlsdata2.obj
 0002:000039d8       ??_C@_03HJBDCHOM@Feb?$AA@  100369d8     LIBCMT:nlsdata2.obj
 0002:000039dc       ??_C@_03JIHJHPIE@Jan?$AA@  100369dc     LIBCMT:nlsdata2.obj
 0002:000039e0       ??_C@_08INBOOONO@Saturday?$AA@ 100369e0     LIBCMT:nlsdata2.obj
 0002:000039ec       ??_C@_06JECMNKMI@Friday?$AA@ 100369ec     LIBCMT:nlsdata2.obj
 0002:000039f4       ??_C@_08HACCIKIA@Thursday?$AA@ 100369f4     LIBCMT:nlsdata2.obj
 0002:00003a00       ??_C@_09DLIGFAKA@Wednesday?$AA@ 10036a00     LIBCMT:nlsdata2.obj
 0002:00003a0c       ??_C@_07BAAGCFCM@Tuesday?$AA@ 10036a0c     LIBCMT:nlsdata2.obj
 0002:00003a14       ??_C@_06JLEDEDGH@Monday?$AA@ 10036a14     LIBCMT:nlsdata2.obj
 0002:00003a1c       ??_C@_06OOPIFAJ@Sunday?$AA@ 10036a1c     LIBCMT:nlsdata2.obj
 0002:00003a24       ??_C@_03FEFJNEK@Sat?$AA@   10036a24     LIBCMT:nlsdata2.obj
 0002:00003a28       ??_C@_03IDIOELNC@Fri?$AA@  10036a28     LIBCMT:nlsdata2.obj
 0002:00003a2c       ??_C@_03IOFIKPDN@Thu?$AA@  10036a2c     LIBCMT:nlsdata2.obj
 0002:00003a30       ??_C@_03MHOMLAJA@Wed?$AA@  10036a30     LIBCMT:nlsdata2.obj
 0002:00003a34       ??_C@_03NAGEINEP@Tue?$AA@  10036a34     LIBCMT:nlsdata2.obj
 0002:00003a38       ??_C@_03PDAGKDH@Mon?$AA@   10036a38     LIBCMT:nlsdata2.obj
 0002:00003a3c       ??_C@_03KOEHGMDN@Sun?$AA@  10036a3c     LIBCMT:nlsdata2.obj
 0002:00003a40       __indefinite               10036a40     LIBCMT:_87disp_.obj
 0002:00003a4a       __piby2                    10036a4a     LIBCMT:_87disp_.obj
 0002:00003a78       __DEFAULT_CW_in_mem        10036a78     LIBCMT:_common_.obj
 0002:00003a7a       __pi_by_2_to_61            10036a7a     LIBCMT:_common_.obj
 0002:00003ab8       __XcptActTab               10036ab8     LIBCMT:winxfltr.obj
 0002:00003b48       __First_FPE_Indx           10036b48     LIBCMT:winxfltr.obj
 0002:00003b4c       __Num_FPE                  10036b4c     LIBCMT:winxfltr.obj
 0002:00003b50       __XcptActTabSize           10036b50     LIBCMT:winxfltr.obj
 0002:00003b54       __XcptActTabCount          10036b54     LIBCMT:winxfltr.obj
 0002:00003b58       ??_C@_0O@FMJNFNKE@united?9states?$AA@ 10036b58     LIBCMT:getqloc.obj
 0002:00003b68       ??_C@_0P@NDHFFKCA@united?9kingdom?$AA@ 10036b68     LIBCMT:getqloc.obj
 0002:00003b78       ??_C@_0BC@HHDADLGF@trinidad?5?$CG?5tobago?$AA@ 10036b78     LIBCMT:getqloc.obj
 0002:00003b8c       ??_C@_0M@IOAEBDAC@south?9korea?$AA@ 10036b8c     LIBCMT:getqloc.obj
 0002:00003b98       ??_C@_0N@FIELFKIJ@south?9africa?$AA@ 10036b98     LIBCMT:getqloc.obj
 0002:00003ba8       ??_C@_0M@OPNDHCMC@south?5korea?$AA@ 10036ba8     LIBCMT:getqloc.obj
 0002:00003bb4       ??_C@_0N@MDEOEPFI@south?5africa?$AA@ 10036bb4     LIBCMT:getqloc.obj
 0002:00003bc4       ??_C@_06FKAPCJLB@slovak?$AA@ 10036bc4     LIBCMT:getqloc.obj
 0002:00003bcc       ??_C@_0M@EFJANOAL@puerto?9rico?$AA@ 10036bcc     LIBCMT:getqloc.obj
 0002:00003bd8       ??_C@_08PGOJKDAI@pr?9china?$AA@ 10036bd8     LIBCMT:getqloc.obj
 0002:00003be4       ??_C@_08JHDOMCMI@pr?5china?$AA@ 10036be4     LIBCMT:getqloc.obj
 0002:00003bf0       ??_C@_02JHCHFBLL@nz?$AA@   10036bf0     LIBCMT:getqloc.obj
 0002:00003bf4       ??_C@_0M@LINHDHKP@new?9zealand?$AA@ 10036bf4     LIBCMT:getqloc.obj
 0002:00003c00       ??_C@_09IIIPPBDB@hong?9kong?$AA@ 10036c00     LIBCMT:getqloc.obj
 0002:00003c0c       ??_C@_07HJLCKBG@holland?$AA@ 10036c0c     LIBCMT:getqloc.obj
 0002:00003c14       ??_C@_0O@LEHGMHAG@great?5britain?$AA@ 10036c14     LIBCMT:getqloc.obj
 0002:00003c24       ??_C@_07FACOMELA@england?$AA@ 10036c24     LIBCMT:getqloc.obj
 0002:00003c2c       ??_C@_05JIHCEICB@czech?$AA@ 10036c2c     LIBCMT:getqloc.obj
 0002:00003c34       ??_C@_05BBJOBLGB@china?$AA@ 10036c34     LIBCMT:getqloc.obj
 0002:00003c3c       ??_C@_07GPKPHICP@britain?$AA@ 10036c3c     LIBCMT:getqloc.obj
 0002:00003c44       ??_C@_07MHIPBHMG@america?$AA@ 10036c44     LIBCMT:getqloc.obj
 0002:00003c4c       ??_C@_03KIALPMKC@usa?$AA@  10036c4c     LIBCMT:getqloc.obj
 0002:00003c50       ??_C@_02FGJGKGGD@us?$AA@   10036c50     LIBCMT:getqloc.obj
 0002:00003c54       ??_C@_02NEINDODK@uk?$AA@   10036c54     LIBCMT:getqloc.obj
 0002:00003c58       ??_C@_05JMPCFJFJ@swiss?$AA@ 10036c58     LIBCMT:getqloc.obj
 0002:00003c60       ??_C@_0BA@HLOCPIOD@swedish?9finland?$AA@ 10036c60     LIBCMT:getqloc.obj
 0002:00003c70       ??_C@_0BC@PKCNIABK@spanish?9venezuela?$AA@ 10036c70     LIBCMT:getqloc.obj
 0002:00003c84       ??_C@_0BA@GBHHMIJI@spanish?9uruguay?$AA@ 10036c84     LIBCMT:getqloc.obj
 0002:00003c94       ??_C@_0BE@BHDOHPMC@spanish?9puerto?5rico?$AA@ 10036c94     LIBCMT:getqloc.obj
 0002:00003ca8       ??_C@_0N@KMOIDGGN@spanish?9peru?$AA@ 10036ca8     LIBCMT:getqloc.obj
 0002:00003cb8       ??_C@_0BB@HMHLPGPH@spanish?9paraguay?$AA@ 10036cb8     LIBCMT:getqloc.obj
 0002:00003ccc       ??_C@_0P@MCPKNGFD@spanish?9panama?$AA@ 10036ccc     LIBCMT:getqloc.obj
 0002:00003cdc       ??_C@_0BC@IHOHGAIL@spanish?9nicaragua?$AA@ 10036cdc     LIBCMT:getqloc.obj
 0002:00003cf0       ??_C@_0P@KLMJDNFJ@spanish?9modern?$AA@ 10036cf0     LIBCMT:getqloc.obj
 0002:00003d00       ??_C@_0BA@BPAPGBCM@spanish?9mexican?$AA@ 10036d00     LIBCMT:getqloc.obj
 0002:00003d10       ??_C@_0BB@PDECHHHE@spanish?9honduras?$AA@ 10036d10     LIBCMT:getqloc.obj
 0002:00003d24       ??_C@_0BC@KLHKFGDB@spanish?9guatemala?$AA@ 10036d24     LIBCMT:getqloc.obj
 0002:00003d38       ??_C@_0BE@MFOOKJAI@spanish?9el?5salvador?$AA@ 10036d38     LIBCMT:getqloc.obj
 0002:00003d4c       ??_C@_0BA@FCOKFPFC@spanish?9ecuador?$AA@ 10036d4c     LIBCMT:getqloc.obj
 0002:00003d5c       ??_C@_0BL@PLMGIMOO@spanish?9dominican?5republic?$AA@ 10036d5c     LIBCMT:getqloc.obj
 0002:00003d78       ??_C@_0BD@HLGDNMHB@spanish?9costa?5rica?$AA@ 10036d78     LIBCMT:getqloc.obj
 0002:00003d8c       ??_C@_0BB@PKCBKCPE@spanish?9colombia?$AA@ 10036d8c     LIBCMT:getqloc.obj
 0002:00003da0       ??_C@_0O@MCBIJGNE@spanish?9chile?$AA@ 10036da0     LIBCMT:getqloc.obj
 0002:00003db0       ??_C@_0BA@BEFEIGJJ@spanish?9bolivia?$AA@ 10036db0     LIBCMT:getqloc.obj
 0002:00003dc0       ??_C@_0BC@EMECMPD@spanish?9argentina?$AA@ 10036dc0     LIBCMT:getqloc.obj
 0002:00003dd4       ??_C@_0BF@EALFLENP@portuguese?9brazilian?$AA@ 10036dd4     LIBCMT:getqloc.obj
 0002:00003dec       ??_C@_0BC@HBLEBLNN@norwegian?9nynorsk?$AA@ 10036dec     LIBCMT:getqloc.obj
 0002:00003e00       ??_C@_0BB@HMACDDCK@norwegian?9bokmal?$AA@ 10036e00     LIBCMT:getqloc.obj
 0002:00003e14       ??_C@_09BAFFPPHE@norwegian?$AA@ 10036e14     LIBCMT:getqloc.obj
 0002:00003e20       ??_C@_0O@EAJFJDFG@italian?9swiss?$AA@ 10036e20     LIBCMT:getqloc.obj
 0002:00003e30       ??_C@_0O@CNOMPGD@irish?9english?$AA@ 10036e30     LIBCMT:getqloc.obj
 0002:00003e40       ??_C@_0N@EDHBGCKG@german?9swiss?$AA@ 10036e40     LIBCMT:getqloc.obj
 0002:00003e50       ??_C@_0BC@JACMHNBP@german?9luxembourg?$AA@ 10036e50     LIBCMT:getqloc.obj
 0002:00003e64       ??_C@_0BE@HBGMGFEG@german?9lichtenstein?$AA@ 10036e64     LIBCMT:getqloc.obj
 0002:00003e78       ??_C@_0BA@HKKBIBKL@german?9austrian?$AA@ 10036e78     LIBCMT:getqloc.obj
 0002:00003e88       ??_C@_0N@GCAEPEBK@french?9swiss?$AA@ 10036e88     LIBCMT:getqloc.obj
 0002:00003e98       ??_C@_0BC@DJFJJCK@french?9luxembourg?$AA@ 10036e98     LIBCMT:getqloc.obj
 0002:00003eac       ??_C@_0BA@NNCEDFIC@french?9canadian?$AA@ 10036eac     LIBCMT:getqloc.obj
 0002:00003ebc       ??_C@_0P@CMPOCLM@french?9belgian?$AA@ 10036ebc     LIBCMT:getqloc.obj
 0002:00003ecc       ??_C@_0M@GHHDJOK@english?9usa?$AA@ 10036ecc     LIBCMT:getqloc.obj
 0002:00003ed8       ??_C@_0L@PLDJKEIL@english?9us?$AA@ 10036ed8     LIBCMT:getqloc.obj
 0002:00003ee4       ??_C@_0L@HJCCDMNC@english?9uk?$AA@ 10036ee4     LIBCMT:getqloc.obj
 0002:00003ef0       ??_C@_0BK@CKLIAGJB@english?9trinidad?5y?5tobago?$AA@ 10036ef0     LIBCMT:getqloc.obj
 0002:00003f0c       ??_C@_0BF@JMJMGNNF@english?9south?5africa?$AA@ 10036f0c     LIBCMT:getqloc.obj
 0002:00003f24       ??_C@_0L@DKIIFDFD@english?9nz?$AA@ 10036f24     LIBCMT:getqloc.obj
 0002:00003f30       ??_C@_0BA@ONHGJCLH@english?9jamaica?$AA@ 10036f30     LIBCMT:getqloc.obj
 0002:00003f40       ??_C@_0M@HJBGHOPO@english?9ire?$AA@ 10036f40     LIBCMT:getqloc.obj
 0002:00003f4c       ??_C@_0BC@LFEKMIFB@english?9caribbean?$AA@ 10036f4c     LIBCMT:getqloc.obj
 0002:00003f60       ??_C@_0M@OLDPFKHI@english?9can?$AA@ 10036f60     LIBCMT:getqloc.obj
 0002:00003f6c       ??_C@_0P@OMDEHBMP@english?9belize?$AA@ 10036f6c     LIBCMT:getqloc.obj
 0002:00003f7c       ??_C@_0M@KFHFPFED@english?9aus?$AA@ 10036f7c     LIBCMT:getqloc.obj
 0002:00003f88       ??_C@_0BB@MNMBKDFE@english?9american?$AA@ 10036f88     LIBCMT:getqloc.obj
 0002:00003f9c       ??_C@_0O@KIDLNNBA@dutch?9belgian?$AA@ 10036f9c     LIBCMT:getqloc.obj
 0002:00003fac       ??_C@_0BE@JBKABBMH@chinese?9traditional?$AA@ 10036fac     LIBCMT:getqloc.obj
 0002:00003fc0       ??_C@_0BC@MJJMPKCG@chinese?9singapore?$AA@ 10036fc0     LIBCMT:getqloc.obj
 0002:00003fd4       ??_C@_0BD@FDKADDCP@chinese?9simplified?$AA@ 10036fd4     LIBCMT:getqloc.obj
 0002:00003fe8       ??_C@_0BB@DBEFDDME@chinese?9hongkong?$AA@ 10036fe8     LIBCMT:getqloc.obj
 0002:00003ffc       ??_C@_07DHNMFMCI@chinese?$AA@ 10036ffc     LIBCMT:getqloc.obj
 0002:00004004       ??_C@_03FNDDCHI@chi?$AA@   10037004     LIBCMT:getqloc.obj
 0002:00004008       ??_C@_03BMMIADDJ@chh?$AA@  10037008     LIBCMT:getqloc.obj
 0002:0000400c       ??_C@_08OAIPJDGI@canadian?$AA@ 1003700c     LIBCMT:getqloc.obj
 0002:00004018       ??_C@_07HBPMNPNJ@belgian?$AA@ 10037018     LIBCMT:getqloc.obj
 0002:00004020       ??_C@_0L@OEKOPBEL@australian?$AA@ 10037020     LIBCMT:getqloc.obj
 0002:0000402c       ??_C@_0BB@MEIMBEDG@american?9english?$AA@ 1003702c     LIBCMT:getqloc.obj
 0002:00004040       ??_C@_0BB@DFMDPDGB@american?5english?$AA@ 10037040     LIBCMT:getqloc.obj
 0002:00004054       ??_C@_08IJLOKOLL@american?$AA@ 10037054     LIBCMT:getqloc.obj
 0002:00004060       ___rg_language             10037060     LIBCMT:getqloc.obj
 0002:00004268       ___rg_country              10037268     LIBCMT:getqloc.obj
 0002:00004320       ___rglangidNotDefault      10037320     LIBCMT:getqloc.obj
 0002:00004334       ??_C@_03NFKLAGEF@OCP?$AA@  10037334     LIBCMT:getqloc.obj
 0002:00004338       ??_C@_03DFHEHBHG@ACP?$AA@  10037338     LIBCMT:getqloc.obj
 0002:0000433c       ??_C@_0BC@NFIEMBLL@Norwegian?9Nynorsk?$AA@ 1003733c     LIBCMT:getqloc.obj
 0002:00004350       ??_C@_0BG@KLEAJEFJ@Illegal?5byte?5sequence?$AA@ 10037350     LIBCMT:syserr.obj
 0002:00004368       ??_C@_0BJ@IHEHINLI@Function?5not?5implemented?$AA@ 10037368     LIBCMT:syserr.obj
 0002:00004384       ??_C@_0BD@CLHBCGPB@No?5locks?5available?$AA@ 10037384     LIBCMT:syserr.obj
 0002:00004398       ??_C@_0BC@BEDIHIDK@Filename?5too?5long?$AA@ 10037398     LIBCMT:syserr.obj
 0002:000043ac       ??_C@_0BK@JAEBMJJM@Resource?5deadlock?5avoided?$AA@ 100373ac     LIBCMT:syserr.obj
 0002:000043c8       ??_C@_0BB@FCBJFCAJ@Result?5too?5large?$AA@ 100373c8     LIBCMT:syserr.obj
 0002:000043dc       ??_C@_0N@MMJPGLJK@Domain?5error?$AA@ 100373dc     LIBCMT:syserr.obj
 0002:000043ec       ??_C@_0M@LHEPIIOM@Broken?5pipe?$AA@ 100373ec     LIBCMT:syserr.obj
 0002:000043f8       ??_C@_0P@PKCJJLLM@Too?5many?5links?$AA@ 100373f8     LIBCMT:syserr.obj
 0002:00004408       ??_C@_0BG@DDBFNKBH@Read?9only?5file?5system?$AA@ 10037408     LIBCMT:syserr.obj
 0002:00004420       ??_C@_0N@FEHLOILP@Invalid?5seek?$AA@ 10037420     LIBCMT:syserr.obj
 0002:00004430       ??_C@_0BI@FEALHKLD@No?5space?5left?5on?5device?$AA@ 10037430     LIBCMT:syserr.obj
 0002:00004448       ??_C@_0P@LFMMIPAE@File?5too?5large?$AA@ 10037448     LIBCMT:syserr.obj
 0002:00004458       ??_C@_0CE@ONOKNLPF@Inappropriate?5I?1O?5control?5operat@ 10037458     LIBCMT:syserr.obj
 0002:0000447c       ??_C@_0BE@INBJMKGG@Too?5many?5open?5files?$AA@ 1003747c     LIBCMT:syserr.obj
 0002:00004490       ??_C@_0BO@IIFBODJE@Too?5many?5open?5files?5in?5system?$AA@ 10037490     LIBCMT:syserr.obj
 0002:000044b0       ??_C@_0P@NDHGCGKE@Is?5a?5directory?$AA@ 100374b0     LIBCMT:syserr.obj
 0002:000044c0       ??_C@_0BA@CJBACOOL@Not?5a?5directory?$AA@ 100374c0     LIBCMT:syserr.obj
 0002:000044d0       ??_C@_0P@NLEIANHE@No?5such?5device?$AA@ 100374d0     LIBCMT:syserr.obj
 0002:000044e0       ??_C@_0O@OAMDNOCP@Improper?5link?$AA@ 100374e0     LIBCMT:syserr.obj
 0002:000044f0       ??_C@_0M@NAAJNNGH@File?5exists?$AA@ 100374f0     LIBCMT:syserr.obj
 0002:000044fc       ??_C@_0BA@BIBLIOEK@Resource?5device?$AA@ 100374fc     LIBCMT:syserr.obj
 0002:0000450c       ??_C@_0O@NIPGCINC@Unknown?5error?$AA@ 1003750c     LIBCMT:syserr.obj
 0002:0000451c       ??_C@_0BB@IMDKMPFB@Not?5enough?5space?$AA@ 1003751c     LIBCMT:syserr.obj
 0002:00004530       ??_C@_0CB@EPFKGNAK@Resource?5temporarily?5unavailable@ 10037530     LIBCMT:syserr.obj
 0002:00004554       ??_C@_0BD@LOHELEP@No?5child?5processes?$AA@ 10037554     LIBCMT:syserr.obj
 0002:00004568       ??_C@_0BE@NFGDDCEF@Bad?5file?5descriptor?$AA@ 10037568     LIBCMT:syserr.obj
 0002:0000457c       ??_C@_0BC@HKPNECK@Exec?5format?5error?$AA@ 1003757c     LIBCMT:syserr.obj
 0002:00004590       ??_C@_0BC@MFFGCDFL@Arg?5list?5too?5long?$AA@ 10037590     LIBCMT:syserr.obj
 0002:000045a4       ??_C@_0BK@DPKMCKJ@No?5such?5device?5or?5address?$AA@ 100375a4     LIBCMT:syserr.obj
 0002:000045c0       ??_C@_0BD@KKNFOBBD@Input?1output?5error?$AA@ 100375c0     LIBCMT:syserr.obj
 0002:000045d4       ??_C@_0BK@FJBOAFDK@Interrupted?5function?5call?$AA@ 100375d4     LIBCMT:syserr.obj
 0002:000045f0       ??_C@_0BA@FKIAIBGA@No?5such?5process?$AA@ 100375f0     LIBCMT:syserr.obj
 0002:00004600       ??_C@_0BK@FMDHKPNF@No?5such?5file?5or?5directory?$AA@ 10037600     LIBCMT:syserr.obj
 0002:0000461c       ??_C@_0BI@BJFCGOHL@Operation?5not?5permitted?$AA@ 1003761c     LIBCMT:syserr.obj
 0002:0000466c       ??_C@_0BK@CFCOFLF@?5Complete?5Object?5Locator?8?$AA@ 1003766c     LIBCMT:undname.obj
 0002:00004688       ??_C@_0BN@MECKDCOJ@?5Class?5Hierarchy?5Descriptor?8?$AA@ 10037688     LIBCMT:undname.obj
 0002:000046a8       ??_C@_0BD@LGICGFMM@?5Base?5Class?5Array?8?$AA@ 100376a8     LIBCMT:undname.obj
 0002:000046bc       ??_C@_0BM@LDKODKLH@?5Base?5Class?5Descriptor?5at?5?$CI?$AA@ 100376bc     LIBCMT:undname.obj
 0002:000046d8       ??_C@_0BC@DAFEJGAK@?5Type?5Descriptor?8?$AA@ 100376d8     LIBCMT:undname.obj
 0002:000046ec       ??_C@_0BM@PMGGMLDN@?$GAlocal?5static?5thread?5guard?8?$AA@ 100376ec     LIBCMT:undname.obj
 0002:00004708       ??_C@_0CL@FGIJHLCE@?$GAmanaged?5vector?5copy?5constructor@ 10037708     LIBCMT:undname.obj
 0002:00004734       ??_C@_0CJ@GJELGAMM@?$GAvector?5vbase?5copy?5constructor?5i@ 10037734     LIBCMT:undname.obj
 0002:00004760       ??_C@_0CD@CGAJBKEJ@?$GAvector?5copy?5constructor?5iterato@ 10037760     LIBCMT:undname.obj
 0002:00004784       ??_C@_0CB@PDBIFEP@?$GAdynamic?5atexit?5destructor?5for?5?8@ 10037784     LIBCMT:undname.obj
 0002:000047a8       ??_C@_0BL@CLIPGLGB@?$GAdynamic?5initializer?5for?5?8?$AA@ 100377a8     LIBCMT:undname.obj
 0002:000047c4       ??_C@_0CM@FCBBDIGB@?$GAeh?5vector?5vbase?5copy?5constructo@ 100377c4     LIBCMT:undname.obj
 0002:000047f0       ??_C@_0CG@HLDDJMAG@?$GAeh?5vector?5copy?5constructor?5iter@ 100377f0     LIBCMT:undname.obj
 0002:00004818       ??_C@_0CF@IMGKMJNO@?$GAmanaged?5vector?5destructor?5itera@ 10037818     LIBCMT:undname.obj
 0002:00004840       ??_C@_0CG@CFDHKGGD@?$GAmanaged?5vector?5constructor?5iter@ 10037840     LIBCMT:undname.obj
 0002:00004868       ??_C@_0BN@CKNJLHMB@?$GAplacement?5delete?$FL?$FN?5closure?8?$AA@ 10037868     LIBCMT:undname.obj
 0002:00004888       ??_C@_0BL@CNOONJFP@?$GAplacement?5delete?5closure?8?$AA@ 10037888     LIBCMT:undname.obj
 0002:000048a4       ??_C@_0P@HJKNJFNN@?$GAomni?5callsig?8?$AA@ 100378a4     LIBCMT:undname.obj
 0002:000048b4       ??_C@_09LBNFPBCA@?5delete?$FL?$FN?$AA@ 100378b4     LIBCMT:undname.obj
 0002:000048c0       ??_C@_06FHBGPFGH@?5new?$FL?$FN?$AA@ 100378c0     LIBCMT:undname.obj
 0002:000048c8       ??_C@_0CE@IIHCMGGL@?$GAlocal?5vftable?5constructor?5closu@ 100378c8     LIBCMT:undname.obj
 0002:000048ec       ??_C@_0BA@KKLDJDLB@?$GAlocal?5vftable?8?$AA@ 100378ec     LIBCMT:undname.obj
 0002:000048fc       ??_C@_05KHLCHHI@?$GARTTI?$AA@ 100378fc     LIBCMT:undname.obj
 0002:00004904       ??_C@_03KLGMFNMG@?$GAEH?$AA@ 10037904     LIBCMT:undname.obj
 0002:00004908       ??_C@_0BA@KBCDOMBN@?$GAudt?5returning?8?$AA@ 10037908     LIBCMT:undname.obj
 0002:00004918       ??_C@_0BL@LLKPOHJI@?$GAcopy?5constructor?5closure?8?$AA@ 10037918     LIBCMT:undname.obj
 0002:00004934       ??_C@_0CH@OOJPLCPH@?$GAeh?5vector?5vbase?5constructor?5ite@ 10037934     LIBCMT:undname.obj
 0002:0000495c       ??_C@_0CA@GCEOPDGL@?$GAeh?5vector?5destructor?5iterator?8?$AA@ 1003795c     LIBCMT:undname.obj
 0002:0000497c       ??_C@_0CB@JONCMFFK@?$GAeh?5vector?5constructor?5iterator?8@ 1003797c     LIBCMT:undname.obj
 0002:000049a0       ??_C@_0BL@NILFHHPC@?$GAvirtual?5displacement?5map?8?$AA@ 100379a0     LIBCMT:undname.obj
 0002:000049bc       ??_C@_0CE@IKBNEHA@?$GAvector?5vbase?5constructor?5iterat@ 100379bc     LIBCMT:undname.obj
 0002:000049e0       ??_C@_0BN@LFPFMEDL@?$GAvector?5destructor?5iterator?8?$AA@ 100379e0     LIBCMT:undname.obj
 0002:00004a00       ??_C@_0BO@PFGOCPJJ@?$GAvector?5constructor?5iterator?8?$AA@ 10037a00     LIBCMT:undname.obj
 0002:00004a20       ??_C@_0BN@IMDCHIKM@?$GAscalar?5deleting?5destructor?8?$AA@ 10037a20     LIBCMT:undname.obj
 0002:00004a40       ??_C@_0BO@OBMKPJIG@?$GAdefault?5constructor?5closure?8?$AA@ 10037a40     LIBCMT:undname.obj
 0002:00004a60       ??_C@_0BN@DEGPLNFK@?$GAvector?5deleting?5destructor?8?$AA@ 10037a60     LIBCMT:undname.obj
 0002:00004a80       ??_C@_0BD@JDLKDPAB@?$GAvbase?5destructor?8?$AA@ 10037a80     LIBCMT:undname.obj
 0002:00004a94       ??_C@_08OBABFOLI@?$GAstring?8?$AA@ 10037a94     LIBCMT:undname.obj
 0002:00004aa0       ??_C@_0BF@KDPPACIK@?$GAlocal?5static?5guard?8?$AA@ 10037aa0     LIBCMT:undname.obj
 0002:00004ab8       ??_C@_08LLFFHHDJ@?$GAtypeof?8?$AA@ 10037ab8     LIBCMT:undname.obj
 0002:00004ac4       ??_C@_07FEEIOKP@?$GAvcall?8?$AA@ 10037ac4     LIBCMT:undname.obj
 0002:00004acc       ??_C@_09BLBHBJP@?$GAvbtable?8?$AA@ 10037acc     LIBCMT:undname.obj
 0002:00004ad8       ??_C@_09IFPLHPGF@?$GAvftable?8?$AA@ 10037ad8     LIBCMT:undname.obj
 0002:00004ae4       ??_C@_02MHEGNOJ@?$FO?$DN?$AA@ 10037ae4     LIBCMT:undname.obj
 0002:00004ae8       ??_C@_02DHLNPPGH@?$HM?$DN?$AA@ 10037ae8     LIBCMT:undname.obj
 0002:00004aec       ??_C@_02FGJGFEAB@?$CG?$DN?$AA@ 10037aec     LIBCMT:undname.obj
 0002:00004af0       ??_C@_03CDNPDDLA@?$DM?$DM?$DN?$AA@ 10037af0     LIBCMT:undname.obj
 0002:00004af4       ??_C@_03IKFCCPFF@?$DO?$DO?$DN?$AA@ 10037af4     LIBCMT:undname.obj
 0002:00004af8       ??_C@_02FENAOKFI@?$CF?$DN?$AA@ 10037af8     LIBCMT:undname.obj
 0002:00004afc       ??_C@_02FJEHGPIO@?1?$DN?$AA@ 10037afc     LIBCMT:undname.obj
 0002:00004b00       ??_C@_02FKMDLLOA@?9?$DN?$AA@ 10037b00     LIBCMT:undname.obj
 0002:00004b04       ??_C@_02FOEOMHFC@?$CL?$DN?$AA@ 10037b04     LIBCMT:undname.obj
 0002:00004b08       ??_C@_02FPIMKNGF@?$CK?$DN?$AA@ 10037b08     LIBCMT:undname.obj
 0002:00004b0c       ??_C@_02NONPIBCD@?$HM?$HM?$AA@ 10037b0c     LIBCMT:undname.obj
 0002:00004b10       ??_C@_02PPKAJPJL@?$CG?$CG?$AA@ 10037b10     LIBCMT:undname.obj
 0002:00004b14       ??_C@_01DNKMNLPK@?$HM?$AA@ 10037b14     LIBCMT:undname.obj
 0002:00004b18       ??_C@_01JKBOJNNK@?$FO?$AA@ 10037b18     LIBCMT:undname.obj
 0002:00004b1c       ??_C@_01PJKLJHI@?$HO?$AA@  10037b1c     LIBCMT:undname.obj
 0002:00004b20       ??_C@_02HCKGKOFO@?$CI?$CJ?$AA@ 10037b20     LIBCMT:undname.obj
 0002:00004b24       ??_C@_01IHBHIGKO@?0?$AA@   10037b24     LIBCMT:undname.obj
 0002:00004b28       ??_C@_02EEKDKGMJ@?$DO?$DN?$AA@ 10037b28     LIBCMT:undname.obj
 0002:00004b2c       ??_C@_01PPODPGHN@?$DO?$AA@ 10037b2c     LIBCMT:undname.obj
 0002:00004b30       ??_C@_02EHCHHCKH@?$DM?$DN?$AA@ 10037b30     LIBCMT:undname.obj
 0002:00004b34       ??_C@_01MNNFJEPP@?$DM?$AA@ 10037b34     LIBCMT:undname.obj
 0002:00004b38       ??_C@_01FGNFDNOH@?$CF?$AA@ 10037b38     LIBCMT:undname.obj
 0002:00004b3c       ??_C@_03MNHNFDLC@?9?$DO?$CK?$AA@ 10037b3c     LIBCMT:undname.obj
 0002:00004b40       ??_C@_01HNPIGOCE@?$CG?$AA@ 10037b40     LIBCMT:undname.obj
 0002:00004b44       ??_C@_01MIFGBAGJ@?$CL?$AA@ 10037b44     LIBCMT:undname.obj
 0002:00004b48       ??_C@_01JOAMLHOP@?9?$AA@   10037b48     LIBCMT:undname.obj
 0002:00004b4c       ??_C@_02BAABKJLB@?9?9?$AA@ 10037b4c     LIBCMT:undname.obj
 0002:00004b50       ??_C@_02ECNGHCIF@?$CL?$CL?$AA@ 10037b50     LIBCMT:undname.obj
 0002:00004b54       ??_C@_02HBOOOICD@?9?$DO?$AA@ 10037b54     LIBCMT:undname.obj
 0002:00004b58       ??_C@_08LHJFAFGD@operator?$AA@ 10037b58     LIBCMT:undname.obj
 0002:00004b64       ??_C@_02GPECMEKF@?$FL?$FN?$AA@ 10037b64     LIBCMT:undname.obj
 0002:00004b68       ??_C@_02FDNJECIE@?$CB?$DN?$AA@ 10037b68     LIBCMT:undname.obj
 0002:00004b6c       ??_C@_02EGOFBIJA@?$DN?$DN?$AA@ 10037b6c     LIBCMT:undname.obj
 0002:00004b70       ??_C@_01DCLJPIOD@?$CB?$AA@ 10037b70     LIBCMT:undname.obj
 0002:00004b74       ??_C@_02FODMEDOG@?$DM?$DM?$AA@ 10037b74     LIBCMT:undname.obj
 0002:00004b78       ??_C@_02GPIOPFAK@?$DO?$DO?$AA@ 10037b78     LIBCMT:undname.obj
 0002:00004b7c       ??_C@_07FPCDHGMM@?5delete?$AA@ 10037b7c     LIBCMT:undname.obj
 0002:00004b84       ??_C@_04NIHEBCM@?5new?$AA@ 10037b84     LIBCMT:undname.obj
 0002:00004b8c       ??_C@_0M@GFIIJFMG@__unaligned?$AA@ 10037b8c     LIBCMT:undname.obj
 0002:00004b98       ??_C@_0L@PILCLIHE@__restrict?$AA@ 10037b98     LIBCMT:undname.obj
 0002:00004ba4       ??_C@_07JOMMBBKO@__ptr64?$AA@ 10037ba4     LIBCMT:undname.obj
 0002:00004bac       ??_C@_06GHPCKEAG@__eabi?$AA@ 10037bac     LIBCMT:undname.obj
 0002:00004bb4       ??_C@_09HIJEGCPM@__clrcall?$AA@ 10037bb4     LIBCMT:undname.obj
 0002:00004bc0       ??_C@_0L@JMKHOMEK@__fastcall?$AA@ 10037bc0     LIBCMT:undname.obj
 0002:00004bcc       ??_C@_0L@NPHFGOKO@__thiscall?$AA@ 10037bcc     LIBCMT:undname.obj
 0002:00004bd8       ??_C@_09IFJBGAPI@__stdcall?$AA@ 10037bd8     LIBCMT:undname.obj
 0002:00004be4       ??_C@_08GHMPAG@__pascal?$AA@ 10037be4     LIBCMT:undname.obj
 0002:00004bf0       ??_C@_07KOLFKCDI@__cdecl?$AA@ 10037bf0     LIBCMT:undname.obj
 0002:00004bf8       ??_C@_08EHJDFFNH@__based?$CI?$AA@ 10037bf8     LIBCMT:undname.obj
 0002:00004d8c       ??_C@_0L@NKOGAPMJ@SystemRoot?$AA@ 10037d8c     LIBCMT:cenvarg.obj
 0002:00004d98       ??_C@_0BI@DFKBFLJE@GetProcessWindowStation?$AA@ 10037d98     LIBCMT:crtmboxw.obj
 0002:00004db0       ??_C@_0BK@DEKFELLI@GetUserObjectInformationW?$AA@ 10037db0     LIBCMT:crtmboxw.obj
 0002:00004dcc       ??_C@_0BD@HHGDFDBJ@GetLastActivePopup?$AA@ 10037dcc     LIBCMT:crtmboxw.obj
 0002:00004de0       ??_C@_0BA@HNOPNCHB@GetActiveWindow?$AA@ 10037de0     LIBCMT:crtmboxw.obj
 0002:00004df0       ??_C@_0M@DLDCCGNP@MessageBoxW?$AA@ 10037df0     LIBCMT:crtmboxw.obj
 0002:00004dfc       ??_C@_1BG@GOEBHBDC@?$AAU?$AAS?$AAE?$AAR?$AA3?$AA2?$AA?4?$AAD?$AAL?$AAL?$AA?$AA@ 10037dfc     LIBCMT:crtmboxw.obj
 0002:00004e18       ___lookuptable_s           10037e18     LIBCMT:outputs.obj
 0002:00004e74       ??_C@_06IMKFLFPG@1?$CDQNAN?$AA@ 10037e74     LIBCMT:_x10fout_.obj
 0002:00004e7c       ??_C@_05DNEBIAHO@1?$CDINF?$AA@ 10037e7c     LIBCMT:_x10fout_.obj
 0002:00004e84       ??_C@_05PHHOCPM@1?$CDIND?$AA@ 10037e84     LIBCMT:_x10fout_.obj
 0002:00004e8c       ??_C@_06PGGFOGJG@1?$CDSNAN?$AA@ 10037e8c     LIBCMT:_x10fout_.obj
 0002:00004e94       ??_C@_1BA@BALFACEM@?$AAC?$AAO?$AAN?$AAO?$AAU?$AAT?$AA$?$AA?$AA@ 10037e94     LIBCMT:initcon.obj
 0002:00004ea4       ??_C@_0L@KDOEJCKC@_nextafter?$AA@ 10037ea4     LIBCMT:_fpexcept_.obj
 0002:00004eb0       ??_C@_05JGDBENOH@_logb?$AA@ 10037eb0     LIBCMT:_fpexcept_.obj
 0002:00004eb8       ??_C@_03ONILCKOB@_yn?$AA@  10037eb8     LIBCMT:_fpexcept_.obj
 0002:00004ebc       ??_C@_03NAKIGLHK@_y1?$AA@  10037ebc     LIBCMT:_fpexcept_.obj
 0002:00004ec0       ??_C@_03MJLDFKDL@_y0?$AA@  10037ec0     LIBCMT:_fpexcept_.obj
 0002:00004ec4       ??_C@_05GKKHEGJL@frexp?$AA@ 10037ec4     LIBCMT:_fpexcept_.obj
 0002:00004ecc       ??_C@_04KEPJIHGP@fmod?$AA@ 10037ecc     LIBCMT:_fpexcept_.obj
 0002:00004ed4       ??_C@_06MEIMCGCF@_hypot?$AA@ 10037ed4     LIBCMT:_fpexcept_.obj
 0002:00004edc       ??_C@_05KBKMEMPO@_cabs?$AA@ 10037edc     LIBCMT:_fpexcept_.obj
 0002:00004ee4       ??_C@_05CEJMAHNP@ldexp?$AA@ 10037ee4     LIBCMT:_fpexcept_.obj
 0002:00004eec       ??_C@_04EHEDPDJG@modf?$AA@ 10037eec     LIBCMT:_fpexcept_.obj
 0002:00004ef4       ??_C@_04ODHECPBC@fabs?$AA@ 10037ef4     LIBCMT:_fpexcept_.obj
 0002:00004efc       ??_C@_05PBJFFIGL@floor?$AA@ 10037efc     LIBCMT:_fpexcept_.obj
 0002:00004f04       ??_C@_04GFPJNGEK@ceil?$AA@ 10037f04     LIBCMT:_fpexcept_.obj
 0002:00004f0c       ??_C@_03IIINPABG@tan?$AA@  10037f0c     LIBCMT:_fpexcept_.obj
 0002:00004f10       ??_C@_03LALBNOCG@cos?$AA@  10037f10     LIBCMT:_fpexcept_.obj
 0002:00004f14       ??_C@_03BLEJJJBH@sin?$AA@  10037f14     LIBCMT:_fpexcept_.obj
 0002:00004f18       ??_C@_04EIAKFFMI@sqrt?$AA@ 10037f18     LIBCMT:_fpexcept_.obj
 0002:00004f20       ??_C@_05KNGEOGJB@atan2?$AA@ 10037f20     LIBCMT:_fpexcept_.obj
 0002:00004f28       ??_C@_04MLLJIGOK@atan?$AA@ 10037f28     LIBCMT:_fpexcept_.obj
 0002:00004f30       ??_C@_04PDIFKINK@acos?$AA@ 10037f30     LIBCMT:_fpexcept_.obj
 0002:00004f38       ??_C@_04FIHNOPOL@asin?$AA@ 10037f38     LIBCMT:_fpexcept_.obj
 0002:00004f40       ??_C@_04FJHINJAO@tanh?$AA@ 10037f40     LIBCMT:_fpexcept_.obj
 0002:00004f48       ??_C@_04HPJJNFIM@cosh?$AA@ 10037f48     LIBCMT:_fpexcept_.obj
 0002:00004f50       ??_C@_04COOMCNPB@sinh?$AA@ 10037f50     LIBCMT:_fpexcept_.obj
 0002:00004f58       ??_C@_05HGHHAHAP@log10?$AA@ 10037f58     LIBCMT:_fpexcept_.obj
 0002:00004f60       ??_C@_03MGHMBJCF@log?$AA@  10037f60     LIBCMT:_fpexcept_.obj
 0002:00004f64       ??_C@_03JGHBODFD@pow?$AA@  10037f64     LIBCMT:_fpexcept_.obj
 0002:00004f68       ??_C@_03KHJOGHMM@exp?$AA@  10037f68     LIBCMT:_fpexcept_.obj
 0002:00004f70       __load_config_used         10037f70     LIBCMT:loadcfg.obj
 0002:00004fb8       ??_R4bad_alloc@std@@6B@    10037fb8     a2mgr.obj
 0002:00004fcc       ??_R3bad_alloc@std@@8      10037fcc     a2mgr.obj
 0002:00004fdc       ??_R2bad_alloc@std@@8      10037fdc     a2mgr.obj
 0002:00004fe8       ??_R1A@?0A@EA@bad_alloc@std@@8 10037fe8     a2mgr.obj
 0002:00005004       ??_R1A@?0A@EA@exception@std@@8 10038004     a2mgr.obj
 0002:00005020       ??_R3exception@std@@8      10038020     a2mgr.obj
 0002:00005030       ??_R2exception@std@@8      10038030     a2mgr.obj
 0002:00005038       ??_R4runtime_error@std@@6B@ 10038038     config.obj
 0002:0000504c       ??_R3runtime_error@std@@8  1003804c     config.obj
 0002:0000505c       ??_R2runtime_error@std@@8  1003805c     config.obj
 0002:00005068       ??_R1A@?0A@EA@runtime_error@std@@8 10038068     config.obj
 0002:00005084       ??_R4facet@locale@std@@6B@ 10038084     config.obj
 0002:00005098       ??_R3facet@locale@std@@8   10038098     config.obj
 0002:000050a8       ??_R2facet@locale@std@@8   100380a8     config.obj
 0002:000050b0       ??_R1A@?0A@EA@facet@locale@std@@8 100380b0     config.obj
 0002:000050cc       ??_R3codecvt_base@std@@8   100380cc     config.obj
 0002:000050dc       ??_R2codecvt_base@std@@8   100380dc     config.obj
 0002:000050e8       ??_R1A@?0A@EA@codecvt_base@std@@8 100380e8     config.obj
 0002:00005104       ??_R3ctype_base@std@@8     10038104     config.obj
 0002:00005114       ??_R2ctype_base@std@@8     10038114     config.obj
 0002:00005120       ??_R1A@?0A@EA@ctype_base@std@@8 10038120     config.obj
 0002:0000513c       ??_R4ios_base@std@@6B@     1003813c     config.obj
 0002:00005150       ??_R3ios_base@std@@8       10038150     config.obj
 0002:00005160       ??_R2ios_base@std@@8       10038160     config.obj
 0002:0000516c       ??_R1A@?0A@EA@ios_base@std@@8 1003816c     config.obj
 0002:00005188       ??_R17?0A@EA@?$_Iosb@H@std@@8 10038188     config.obj
 0002:000051a4       ??_R3?$_Iosb@H@std@@8      100381a4     config.obj
 0002:000051b4       ??_R2?$_Iosb@H@std@@8      100381b4     config.obj
 0002:000051bc       ??_R1A@?0A@EA@?$_Iosb@H@std@@8 100381bc     config.obj
 0002:000051d8       ??_R4?$basic_istream@DU?$char_traits@D@std@@@std@@6B@ 100381d8     config.obj
 0002:000051ec       ??_R3?$basic_istream@DU?$char_traits@D@std@@@std@@8 100381ec     config.obj
 0002:000051fc       ??_R2?$basic_istream@DU?$char_traits@D@std@@@std@@8 100381fc     config.obj
 0002:00005210       ??_R1A@?0A@EA@?$basic_istream@DU?$char_traits@D@std@@@std@@8 10038210     config.obj
 0002:0000522c       ??_R1A@A@3FA@?$basic_ios@DU?$char_traits@D@std@@@std@@8 1003822c     config.obj
 0002:00005248       ??_R3?$basic_ios@DU?$char_traits@D@std@@@std@@8 10038248     config.obj
 0002:00005258       ??_R2?$basic_ios@DU?$char_traits@D@std@@@std@@8 10038258     config.obj
 0002:00005268       ??_R1A@?0A@EA@?$basic_ios@DU?$char_traits@D@std@@@std@@8 10038268     config.obj
 0002:00005284       ??_R1A@A@3EA@ios_base@std@@8 10038284     config.obj
 0002:000052a0       ??_R17A@3EA@?$_Iosb@H@std@@8 100382a0     config.obj
 0002:000052bc       ??_R4?$basic_ios@DU?$char_traits@D@std@@@std@@6B@ 100382bc     config.obj
 0002:000052d0       ??_R4?$ctype@D@std@@6B@    100382d0     config.obj
 0002:000052e4       ??_R3?$ctype@D@std@@8      100382e4     config.obj
 0002:000052f4       ??_R2?$ctype@D@std@@8      100382f4     config.obj
 0002:00005304       ??_R1A@?0A@EA@?$ctype@D@std@@8 10038304     config.obj
 0002:00005320       ??_R4system_error@std@@6B@ 10038320     config.obj
 0002:00005334       ??_R3system_error@std@@8   10038334     config.obj
 0002:00005344       ??_R2system_error@std@@8   10038344     config.obj
 0002:00005354       ??_R1A@?0A@EA@system_error@std@@8 10038354     config.obj
 0002:00005370       ??_R4failure@ios_base@std@@6B@ 10038370     config.obj
 0002:00005384       ??_R3failure@ios_base@std@@8 10038384     config.obj
 0002:00005394       ??_R2failure@ios_base@std@@8 10038394     config.obj
 0002:000053a8       ??_R1A@?0A@EA@failure@ios_base@std@@8 100383a8     config.obj
 0002:000053c4       ??_R4?$basic_streambuf@DU?$char_traits@D@std@@@std@@6B@ 100383c4     config.obj
 0002:000053d8       ??_R3?$basic_streambuf@DU?$char_traits@D@std@@@std@@8 100383d8     config.obj
 0002:000053e8       ??_R2?$basic_streambuf@DU?$char_traits@D@std@@@std@@8 100383e8     config.obj
 0002:000053f0       ??_R1A@?0A@EA@?$basic_streambuf@DU?$char_traits@D@std@@@std@@8 100383f0     config.obj
 0002:0000540c       ??_R4?$codecvt@DDH@std@@6B@ 1003840c     config.obj
 0002:00005420       ??_R3?$codecvt@DDH@std@@8  10038420     config.obj
 0002:00005430       ??_R2?$codecvt@DDH@std@@8  10038430     config.obj
 0002:00005440       ??_R1A@?0A@EA@?$codecvt@DDH@std@@8 10038440     config.obj
 0002:0000545c       ??_R4?$basic_filebuf@DU?$char_traits@D@std@@@std@@6B@ 1003845c     config.obj
 0002:00005470       ??_R3?$basic_filebuf@DU?$char_traits@D@std@@@std@@8 10038470     config.obj
 0002:00005480       ??_R2?$basic_filebuf@DU?$char_traits@D@std@@@std@@8 10038480     config.obj
 0002:0000548c       ??_R1A@?0A@EA@?$basic_filebuf@DU?$char_traits@D@std@@@std@@8 1003848c     config.obj
 0002:000054a8       ??_R4?$basic_ifstream@DU?$char_traits@D@std@@@std@@6B@ 100384a8     config.obj
 0002:000054bc       ??_R3?$basic_ifstream@DU?$char_traits@D@std@@@std@@8 100384bc     config.obj
 0002:000054cc       ??_R2?$basic_ifstream@DU?$char_traits@D@std@@@std@@8 100384cc     config.obj
 0002:000054e4       ??_R1A@?0A@EA@?$basic_ifstream@DU?$char_traits@D@std@@@std@@8 100384e4     config.obj
 0002:00005500       ??_R4?$basic_ostream@DU?$char_traits@D@std@@@std@@6B@ 10038500     serialize.obj
 0002:00005514       ??_R3?$basic_ostream@DU?$char_traits@D@std@@@std@@8 10038514     serialize.obj
 0002:00005524       ??_R2?$basic_ostream@DU?$char_traits@D@std@@@std@@8 10038524     serialize.obj
 0002:00005538       ??_R1A@?0A@EA@?$basic_ostream@DU?$char_traits@D@std@@@std@@8 10038538     serialize.obj
 0002:00005554       ??_R4?$basic_ofstream@DU?$char_traits@D@std@@@std@@6B@ 10038554     serialize.obj
 0002:00005568       ??_R3?$basic_ofstream@DU?$char_traits@D@std@@@std@@8 10038568     serialize.obj
 0002:00005578       ??_R2?$basic_ofstream@DU?$char_traits@D@std@@@std@@8 10038578     serialize.obj
 0002:00005590       ??_R1A@?0A@EA@?$basic_ofstream@DU?$char_traits@D@std@@@std@@8 10038590     serialize.obj
 0002:000055ac       ??_R4logic_error@std@@6B@  100385ac     libcpmt:xthrow.obj
 0002:000055c0       ??_R3logic_error@std@@8    100385c0     libcpmt:xthrow.obj
 0002:000055d0       ??_R2logic_error@std@@8    100385d0     libcpmt:xthrow.obj
 0002:000055dc       ??_R1A@?0A@EA@logic_error@std@@8 100385dc     libcpmt:xthrow.obj
 0002:000055f8       ??_R4length_error@std@@6B@ 100385f8     libcpmt:xthrow.obj
 0002:0000560c       ??_R3length_error@std@@8   1003860c     libcpmt:xthrow.obj
 0002:0000561c       ??_R2length_error@std@@8   1003861c     libcpmt:xthrow.obj
 0002:0000562c       ??_R1A@?0A@EA@length_error@std@@8 1003862c     libcpmt:xthrow.obj
 0002:00005648       ??_R4out_of_range@std@@6B@ 10038648     libcpmt:xthrow.obj
 0002:0000565c       ??_R3out_of_range@std@@8   1003865c     libcpmt:xthrow.obj
 0002:0000566c       ??_R2out_of_range@std@@8   1003866c     libcpmt:xthrow.obj
 0002:0000567c       ??_R1A@?0A@EA@out_of_range@std@@8 1003867c     libcpmt:xthrow.obj
 0002:00005698       ??_R4_Locimp@locale@std@@6B@ 10038698     libcpmt:locale0.obj
 0002:000056ac       ??_R3_Locimp@locale@std@@8 100386ac     libcpmt:locale0.obj
 0002:000056bc       ??_R2_Locimp@locale@std@@8 100386bc     libcpmt:locale0.obj
 0002:000056c8       ??_R1A@?0A@EA@_Locimp@locale@std@@8 100386c8     libcpmt:locale0.obj
 0002:000056e4       ??_R4error_category@std@@6B@ 100386e4     libcpmt:syserror.obj
 0002:000056f8       ??_R3error_category@std@@8 100386f8     libcpmt:syserror.obj
 0002:00005708       ??_R2error_category@std@@8 10038708     libcpmt:syserror.obj
 0002:00005710       ??_R1A@?0A@EA@error_category@std@@8 10038710     libcpmt:syserror.obj
 0002:0000572c       ??_R4_Generic_error_category@std@@6B@ 1003872c     libcpmt:syserror.obj
 0002:00005740       ??_R3_Generic_error_category@std@@8 10038740     libcpmt:syserror.obj
 0002:00005750       ??_R2_Generic_error_category@std@@8 10038750     libcpmt:syserror.obj
 0002:0000575c       ??_R1A@?0A@EA@_Generic_error_category@std@@8 1003875c     libcpmt:syserror.obj
 0002:00005778       ??_R4_Iostream_error_category@std@@6B@ 10038778     libcpmt:syserror.obj
 0002:0000578c       ??_R3_Iostream_error_category@std@@8 1003878c     libcpmt:syserror.obj
 0002:0000579c       ??_R2_Iostream_error_category@std@@8 1003879c     libcpmt:syserror.obj
 0002:000057a8       ??_R1A@?0A@EA@_Iostream_error_category@std@@8 100387a8     libcpmt:syserror.obj
 0002:000057c4       ??_R4_System_error_category@std@@6B@ 100387c4     libcpmt:syserror.obj
 0002:000057d8       ??_R3_System_error_category@std@@8 100387d8     libcpmt:syserror.obj
 0002:000057e8       ??_R2_System_error_category@std@@8 100387e8     libcpmt:syserror.obj
 0002:000057f8       ??_R1A@?0A@EA@_System_error_category@std@@8 100387f8     libcpmt:syserror.obj
 0002:00005814       ??_R4exception@std@@6B@    10038814     LIBCMT:stdexcpt.obj
 0002:00005828       ??_R4bad_cast@std@@6B@     10038828     LIBCMT:stdexcpt.obj
 0002:0000583c       ??_R3bad_cast@std@@8       1003883c     LIBCMT:stdexcpt.obj
 0002:0000584c       ??_R2bad_cast@std@@8       1003884c     LIBCMT:stdexcpt.obj
 0002:00005858       ??_R1A@?0A@EA@bad_cast@std@@8 10038858     LIBCMT:stdexcpt.obj
 0002:00005874       ??_R4type_info@@6B@        10038874     LIBCMT:typinfo.obj
 0002:00005888       ??_R3type_info@@8          10038888     LIBCMT:typinfo.obj
 0002:00005898       ??_R2type_info@@8          10038898     LIBCMT:typinfo.obj
 0002:000058a0       ??_R1A@?0A@EA@type_info@@8 100388a0     LIBCMT:typinfo.obj
 0002:000058bc       ??_R4bad_exception@std@@6B@ 100388bc     LIBCMT:frame.obj
 0002:000058d0       ??_R3bad_exception@std@@8  100388d0     LIBCMT:frame.obj
 0002:000058e0       ??_R2bad_exception@std@@8  100388e0     LIBCMT:frame.obj
 0002:000058ec       ??_R1A@?0A@EA@bad_exception@std@@8 100388ec     LIBCMT:frame.obj
 0002:00005910       ___safe_se_handler_table   10038910     <linker-defined>
 0002:00005aac       ___rtc_iaa                 10038aac     LIBCMT:_initsect_.obj
 0002:00005ab0       ___rtc_izz                 10038ab0     LIBCMT:_initsect_.obj
 0002:00005ab4       ___rtc_taa                 10038ab4     LIBCMT:_initsect_.obj
 0002:00005ab8       ___rtc_tzz                 10038ab8     LIBCMT:_initsect_.obj
 0002:00005ac0       __TI2?AVbad_alloc@std@@    10038ac0     a2mgr.obj
 0002:00005ad0       __CTA2?AVbad_alloc@std@@   10038ad0     a2mgr.obj
 0002:00005adc       __CT??_R0?AVbad_alloc@std@@@8??0bad_alloc@std@@QAE@ABV01@@Z12 10038adc     a2mgr.obj
 0002:00005af8       __CT??_R0?AVexception@std@@@8??0exception@std@@QAE@ABV01@@Z12 10038af8     a2mgr.obj
 0002:00005f5c       __TI4?AVfailure@ios_base@std@@ 10038f5c     config.obj
 0002:00005f6c       __CTA4?AVfailure@ios_base@std@@ 10038f6c     config.obj
 0002:00005f80       __CT??_R0?AVfailure@ios_base@std@@@8??0failure@ios_base@std@@QAE@ABV012@@Z20 10038f80     config.obj
 0002:00005f9c       __CT??_R0?AVsystem_error@std@@@8??0system_error@std@@QAE@ABV01@@Z20 10038f9c     config.obj
 0002:00005fb8       __CT??_R0?AVruntime_error@std@@@8??0runtime_error@std@@QAE@ABV01@@Z12 10038fb8     config.obj
 0002:00005fd4       __TI2?AVruntime_error@std@@ 10038fd4     config.obj
 0002:00006030       __CTA2?AVruntime_error@std@@ 10039030     config.obj
 0002:000060e0       __TI2?AVbad_cast@std@@     100390e0     config.obj
 0002:000060f0       __CTA2?AVbad_cast@std@@    100390f0     config.obj
 0002:000060fc       __CT??_R0?AVbad_cast@std@@@8??0bad_cast@std@@QAE@ABV01@@Z12 100390fc     config.obj
 0002:00007250       __TI1?AVWobbly@happyhttp@@ 1003a250     happyhttp.obj
 0002:00007260       __CTA1?AVWobbly@happyhttp@@ 1003a260     happyhttp.obj
 0002:00007268       __CT??_R0?AVWobbly@happyhttp@@@8256 1003a268     happyhttp.obj
 0002:0000752c       __CT??_R0?AVlogic_error@std@@@8??0logic_error@std@@QAE@ABV01@@Z12 1003a52c     libcpmt:xthrow.obj
 0002:00007548       __TI3?AVlength_error@std@@ 1003a548     libcpmt:xthrow.obj
 0002:00007558       __CTA3?AVlength_error@std@@ 1003a558     libcpmt:xthrow.obj
 0002:00007568       __CT??_R0?AVlength_error@std@@@8??0length_error@std@@QAE@ABV01@@Z12 1003a568     libcpmt:xthrow.obj
 0002:00007584       __TI3?AVout_of_range@std@@ 1003a584     libcpmt:xthrow.obj
 0002:00007594       __CTA3?AVout_of_range@std@@ 1003a594     libcpmt:xthrow.obj
 0002:000075a4       __CT??_R0?AVout_of_range@std@@@8??0out_of_range@std@@QAE@ABV01@@Z12 1003a5a4     libcpmt:xthrow.obj
 0002:000079a4       __TI2?AVbad_exception@std@@ 1003a9a4     LIBCMT:frame.obj
 0002:000079b4       __CTA2?AVbad_exception@std@@ 1003a9b4     LIBCMT:frame.obj
 0002:000079c0       __CT??_R0?AVbad_exception@std@@@8??0bad_exception@std@@QAE@ABV01@@Z12 1003a9c0     LIBCMT:frame.obj
 0002:00007d34       __IMPORT_DESCRIPTOR_SDL    1003ad34     SDL:SDL.dll
 0002:00007d48       __IMPORT_DESCRIPTOR_SDL_image 1003ad48     SDL_image:SDL_image.dll
 0002:00007d5c       __IMPORT_DESCRIPTOR_KERNEL32 1003ad5c     kernel32:KERNEL32.dll
 0002:00007d70       __IMPORT_DESCRIPTOR_USER32 1003ad70     user32:USER32.dll
 0002:00007d84       __IMPORT_DESCRIPTOR_GDI32  1003ad84     gdi32:GDI32.dll
 0002:00007d98       __IMPORT_DESCRIPTOR_ADVAPI32 1003ad98     advapi32:ADVAPI32.dll
 0002:00007dac       __IMPORT_DESCRIPTOR_PSAPI  1003adac     psapi:PSAPI.DLL
 0002:00007dc0       __IMPORT_DESCRIPTOR_WS2_32 1003adc0     ws2_32:WS2_32.dll
 0002:00007dd4       __IMPORT_DESCRIPTOR_gdiplus 1003add4     gdiplus:gdiplus.dll
 0002:00007de8       __NULL_IMPORT_DESCRIPTOR   1003ade8     SDL:SDL.dll
 0003:00000000       ??_R0?AVbad_alloc@std@@@8  1003c000     a2mgr.obj
 0003:0000001c       ??_R0?AVexception@std@@@8  1003c01c     a2mgr.obj
 0003:00000038       ?pr_c_2_str@@3PADA         1003c038     chat.obj
 0003:0000003c       ?g_scrollintv@@3KA         1003c03c     config.obj
 0003:00000040       ?r_width@@3KA              1003c040     config.obj
 0003:00000044       ?r_height@@3KA             1003c044     config.obj
 0003:00000048       ?z_screendir@@3_NA         1003c048     config.obj
 0003:00000049       ?z_logsdir@@3_NA           1003c049     config.obj
 0003:0000004a       ?z_russian@@3_NA           1003c04a     config.obj
 0003:0000004c       ?net_maxplayers@@3KA       1003c04c     config.obj
 0003:00000050       ?r_grid_color@@3KA         1003c050     config.obj
 0003:00000054       ?current_directory@@3V?$basic_string@DU?$char_traits@D@std@@V?$allocator@D@2@@std@@A 1003c054     config.obj
 0003:00000070       ??_R0?AVruntime_error@std@@@8 1003c070     config.obj
 0003:00000090       ??_R0?AVfacet@locale@std@@@8 1003c090     config.obj
 0003:000000b0       ??_R0?AVcodecvt_base@std@@@8 1003c0b0     config.obj
 0003:000000d0       ??_R0?AUctype_base@std@@@8 1003c0d0     config.obj
 0003:000000f0       ??_R0?AVios_base@std@@@8   1003c0f0     config.obj
 0003:0000010c       ??_R0?AV?$_Iosb@H@std@@@8  1003c10c     config.obj
 0003:00000128       ??_R0?AV?$basic_istream@DU?$char_traits@D@std@@@std@@@8 1003c128     config.obj
 0003:00000164       ??_R0?AV?$basic_ios@DU?$char_traits@D@std@@@std@@@8 1003c164     config.obj
 0003:0000019c       ??_R0?AV?$ctype@D@std@@@8  1003c19c     config.obj
 0003:000001b8       ??_R0?AVsystem_error@std@@@8 1003c1b8     config.obj
 0003:000001d8       ??_R0?AVfailure@ios_base@std@@@8 1003c1d8     config.obj
 0003:000001fc       ??_R0?AV?$basic_streambuf@DU?$char_traits@D@std@@@std@@@8 1003c1fc     config.obj
 0003:00000238       ??_R0?AV?$codecvt@DDH@std@@@8 1003c238     config.obj
 0003:00000258       ??_R0?AVbad_cast@std@@@8   1003c258     config.obj
 0003:00000274       ??_R0?AV?$basic_filebuf@DU?$char_traits@D@std@@@std@@@8 1003c274     config.obj
 0003:000002b0       ??_R0?AV?$basic_ifstream@DU?$char_traits@D@std@@@std@@@8 1003c2b0     config.obj
 0003:000002f0       ?Archives@@3VFileArchive@@A 1003c2f0     File.obj
 0003:00000338       ?aHat@@3PADA               1003c338     network_hat_enter.obj
 0003:00000348       ?cmdLine@@3V?$basic_string@DU?$char_traits@D@std@@V?$allocator@D@2@@std@@A 1003c348     network_hat_enter.obj
 0003:00000364       ?match@@3V?$basic_string@DU?$char_traits@D@std@@V?$allocator@D@2@@std@@A 1003c364     network_hat_enter.obj
 0003:00000380       ?recv_lastRemaining@@3HA   1003c380     network_protocol.obj
 0003:00000384       ?logwhere@@3PADA           1003c384     pack_scrolling.obj
 0003:00000390       ?aPatchC@@3PADA            1003c390     resource_control.obj
 0003:00000398       ?aLocale_res@@3PADA        1003c398     resource_control.obj
 0003:000003a4       ?aWorld@@3PADA             1003c3a4     resource_files_replace.obj
 0003:000003a8       ?aWorldData@@3PADA         1003c3a8     resource_files_replace.obj
 0003:000003ac       ?aWorldDataDatabin@@3PADA  1003c3ac     resource_files_replace.obj
 0003:000003b0       ?aWorldDataAireg@@3PADA    1003c3b0     resource_files_replace.obj
 0003:000003b4       ?aWorldDataMapreg@@3PADA   1003c3b4     resource_files_replace.obj
 0003:000003b8       ?aWorldMissionScr@@3PADA   1003c3b8     resource_files_replace.obj
 0003:000003bc       ?aWorldDataItemnamebin@@3PADA 1003c3bc     resource_files_replace.obj
 0003:000003c0       ?aWorldDataItemnamepkt@@3PADA 1003c3c0     resource_files_replace.obj
 0003:000003c4       ?aPatch@@3PADA             1003c3c4     resource_files_replace.obj
 0003:000003c8       ?aPatchPatchtxt@@3PADA     1003c3c8     resource_files_replace.obj
 0003:000003cc       ??_R0?AV?$basic_ostream@DU?$char_traits@D@std@@@std@@@8 1003c3cc     serialize.obj
 0003:00000408       ??_R0?AV?$basic_ofstream@DU?$char_traits@D@std@@@std@@@8 1003c408     serialize.obj
 0003:00000444       ?_LOG_NAME@@3V?$basic_string@DU?$char_traits@D@std@@V?$allocator@D@2@@std@@A 1003c444     utils.obj
 0003:00000460       ?_memcpy@@3KA              1003c460     zxmgr.obj
 0003:00000468       ?DefCWindowVtbl@GUI@zxmgr@@3PAKA 1003c468     zxmgr_gui.obj
 0003:000004f8       ??_R0?AVWobbly@happyhttp@@@8 1003c4f8     happyhttp.obj
 0003:00000518       ??_R0?AVlogic_error@std@@@8 1003c518     libcpmt:xthrow.obj
 0003:00000538       ??_R0?AVlength_error@std@@@8 1003c538     libcpmt:xthrow.obj
 0003:00000558       ??_R0?AVout_of_range@std@@@8 1003c558     libcpmt:xthrow.obj
 0003:0000057c       ??_R0?AV_Locimp@locale@std@@@8 1003c57c     libcpmt:locale0.obj
 0003:000005a0       ??_R0?AVerror_category@std@@@8 1003c5a0     libcpmt:syserror.obj
 0003:000005c4       ??_R0?AV_Generic_error_category@std@@@8 1003c5c4     libcpmt:syserror.obj
 0003:000005f0       ??_R0?AV_Iostream_error_category@std@@@8 1003c5f0     libcpmt:syserror.obj
 0003:0000061c       ??_R0?AV_System_error_category@std@@@8 1003c61c     libcpmt:syserror.obj
 0003:00000664       ?_Sync@ios_base@std@@0_NA  1003c664     libcpmt:ios.obj
 0003:00000670       ?_PJP_CPP_Copyright@@3PADA 1003c670     libcpmt:iosptrs.obj
 0003:000006cc       ??_R0?AVtype_info@@@8      1003c6cc     LIBCMT:typinfo.obj
 0003:000006f0       ___security_cookie         1003c6f0     LIBCMT:gs_cookie.obj
 0003:000006f4       ___security_cookie_complement 1003c6f4     LIBCMT:gs_cookie.obj
 0003:00000700       __fltused                  1003c700     LIBCMT:_fpinit_.obj
 0003:00000704       __ldused                   1003c704     LIBCMT:_fpinit_.obj
 0003:00000710       __iob                      1003c710     LIBCMT:_file.obj
 0003:00000990       __lookuptrailbytes         1003c990     LIBCMT:read.obj
 0003:00000a98       __pctype                   1003ca98     LIBCMT:ctype.obj
 0003:00000a9c       __pwctype                  1003ca9c     LIBCMT:ctype.obj
 0003:00000ab0       ??_R0?AVbad_exception@std@@@8 1003cab0     LIBCMT:frame.obj
 0003:00000ad0       ___abort_behavior          1003cad0     LIBCMT:abort.obj
 0003:00000af8       __timezone                 1003caf8     LIBCMT:timeset.obj
 0003:00000afc       __daylight                 1003cafc     LIBCMT:timeset.obj
 0003:00000b00       __dstbias                  1003cb00     LIBCMT:timeset.obj
 0003:00000b88       __tzname                   1003cb88     LIBCMT:timeset.obj
 0003:00000d00       ___flsindex                1003cd00     LIBCMT:tidtable.obj
 0003:00000d04       ___getvalueindex           1003cd04     LIBCMT:tidtable.obj
 0003:00000d10       ___nullstring              1003cd10     LIBCMT:output.obj
 0003:00000d14       ___wnullstring             1003cd14     LIBCMT:output.obj
 0003:00000d18       __cfltcvt_tab              1003cd18     LIBCMT:cmiscdat.obj
 0003:00000d40       __lpdays                   1003cd40     LIBCMT:days.obj
 0003:00000d74       __days                     1003cd74     LIBCMT:days.obj
 0003:00000db0       ___badioinfo               1003cdb0     LIBCMT:ioinit.obj
 0003:00000f20       ___initialmbcinfo          1003cf20     LIBCMT:mbctype.obj
 0003:00001140       __mbctype                  1003d140     LIBCMT:mbctype.obj
 0003:00001248       __mbcasemap                1003d248     LIBCMT:mbctype.obj
 0003:00001348       ___ptmbcinfo               1003d348     LIBCMT:mbctype.obj
 0003:00001440       ___globallocalestatus      1003d440     LIBCMT:glstatus.obj
 0003:00001444       ___clocalestr              1003d444     LIBCMT:nlsdata2.obj
 0003:00001448       ___lc_time_c               1003d448     LIBCMT:nlsdata2.obj
 0003:000015b0       ___initiallocinfo          1003d5b0     LIBCMT:nlsdata2.obj
 0003:00001688       ___ptlocinfo               1003d688     LIBCMT:nlsdata2.obj
 0003:0000168c       ___initiallocalestructinfo 1003d68c     LIBCMT:nlsdata2.obj
 0003:000016a0       ___mb_cur_max              1003d6a0     LIBCMT:nlsdata1.obj
 0003:000016a4       ___decimal_point           1003d6a4     LIBCMT:nlsdata1.obj
 0003:000016a8       ___decimal_point_length    1003d6a8     LIBCMT:nlsdata1.obj
 0003:000016b0       ___lconv_static_decimal    1003d6b0     LIBCMT:lconv.obj
 0003:000016b4       ___lconv_static_W_decimal  1003d6b4     LIBCMT:lconv.obj
 0003:000016b8       ___lconv_c                 1003d6b8     LIBCMT:lconv.obj
 0003:00001708       ___lconv                   1003d708     LIBCMT:lconv.obj
 0003:00001710       __sys_errlist              1003d710     LIBCMT:syserr.obj
 0003:000017c0       __sys_nerr                 1003d7c0     LIBCMT:syserr.obj
 0003:000017d0       __NLG_Destination          1003d7d0     LIBCMT:exsup.obj
 0003:000017e0       __p_overlay                1003d7e0     LIBCMT:dospawn.obj
 0003:00001814       __confh                    1003d814     LIBCMT:initcon.obj
 0003:00001900       __matherr_flag             1003d900     LIBCMT:_matherr_.obj
 0003:00001920       __pow10pos                 1003d920     LIBCMT:_constpow_.obj
 0003:00001a80       __pow10neg                 1003da80     LIBCMT:_constpow_.obj
 0003:00001be0       __d_inf                    1003dbe0     LIBCMT:_util_.obj
 0003:00001be8       __d_ind                    1003dbe8     LIBCMT:_util_.obj
 0003:00001bf0       __d_max                    1003dbf0     LIBCMT:_util_.obj
 0003:00001bf8       __d_min                    1003dbf8     LIBCMT:_util_.obj
 0003:00001c00       __d_mzero                  1003dc00     LIBCMT:_util_.obj
 0003:00001c20       ?dll_path@@3PADA           1003dc20     a2mgr.obj
 0003:00001d28       ?exe_path@@3PADA           1003dd28     a2mgr.obj
 0003:00001e2c       ?u_pid@@3KA                1003de2c     a2mgr.obj
 0003:00001e30       ?u_pid_string@@3PADA       1003de30     a2mgr.obj
 0003:00001e34       ?u_pid_string_delete@@3PADA 1003de34     a2mgr.obj
 0003:00001e38       ?id@?$codecvt@DDH@std@@2V0locale@2@A 1003de38     a2mgr.obj
 0003:00001e40       ?c_Visible@@3_NA           1003de40     add_info.obj
 0003:00001e44       ?cImageBG@@3PAVImage@@A    1003de44     add_info.obj
 0003:00001e48       ?cImageLeft@@3PAVImage@@A  1003de48     add_info.obj
 0003:00001e4c       ?cImageMid@@3PAVImage@@A   1003de4c     add_info.obj
 0003:00001e50       ?cImageRight@@3PAVImage@@A 1003de50     add_info.obj
 0003:00001e58       ?start_time@@3_JA          1003de58     add_info.obj
 0003:00003b38       ?__chat_history_index@@3KA 1003fb38     chat_history.obj
 0003:00003b3c       ?__chat_history@@3V?$vector@V?$vector@V?$basic_string@DU?$char_traits@D@std@@V?$allocator@D@2@@std@@V?$allocator@V?$basic_string@DU?$char_traits@D@std@@V?$allocator@D@2@@std@@@2@@std@@V?$allocator@V?$vector@V?$basic_string@DU?$char_traits@D@std@@V?$allocator@D@2@@std@@V?$allocator@V?$basic_string@DU?$char_traits@D@std@@V?$allocator@D@2@@std@@@2@@std@@@2@@std@@A 1003fb3c     chat_history.obj
 0003:00003b4c       ?AssocMutex@@3PAXA         1003fb4c     class_extend.obj
 0003:00003b50       ?AssocList@@3V?$map@PAXPAXU?$less@PAX@std@@V?$allocator@U?$pair@QAXPAX@std@@@2@@std@@A 1003fb50     class_extend.obj
 0003:00003b60       ?sha1_world_res@@3PAEA     1003fb60     config.obj
 0003:00003b74       ?sha1_a2mgr_dll@@3PAEA     1003fb74     config.obj
 0003:00003b88       ?sha1_patch_res@@3PAEA     1003fb88     config.obj
 0003:00003b9c       ?sha1_allods2_exe@@3PAEA   1003fb9c     config.obj
 0003:00003bb0       ?sha1_uuid@@3PAEA          1003fbb0     config.obj
 0003:00003bc4       ?sha1_graphics_res@@3PAEA  1003fbc4     config.obj
 0003:00003bd8       ?v_screentype@@3KA         1003fbd8     config.obj
 0003:00003bdc       ?r_fps@@3_NA               1003fbdc     config.obj
 0003:00003bdd       ?r_time@@3_NA              1003fbdd     config.obj
 0003:00003bde       ?r_stopwatch@@3_NA         1003fbde     config.obj
 0003:00003bdf       ?r_grid@@3_NA              1003fbdf     config.obj
 0003:00003be0       ?g_altchat@@3_NA           1003fbe0     config.obj
 0003:00003be1       ?z_lang_override@@3_NA     1003fbe1     config.obj
 0003:00003be2       ?show_stopwatch@@3_NA      1003fbe2     config.obj
 0003:00003be3       ?z_softcore@@3_NA          1003fbe3     config.obj
 0003:00003be4       ?z_resolution@@3KA         1003fbe4     config.obj
 0003:00003be8       ?show_stopwatch_frozen@@3KA 1003fbe8     config.obj
 0003:00003bec       ?net_key@@3KA              1003fbec     config.obj
 0003:00003bf0       ?z_handle@@3KA             1003fbf0     config.obj
 0003:00003bf4       ?crc32_allods2_exe@@3KA    1003fbf4     config.obj
 0003:00003bf8       ?crc32_a2mgr_dll@@3KA      1003fbf8     config.obj
 0003:00003bfc       ?crc32_patch_res@@3KA      1003fbfc     config.obj
 0003:00003c00       ?crc32_world_res@@3KA      1003fc00     config.obj
 0003:00003c04       ?crc32_graphics_res@@3KA   1003fc04     config.obj
 0003:00003c08       ?_Stinit@?1??_Init@?$basic_filebuf@DU?$char_traits@D@std@@@std@@IAEXPAU_iobuf@@W4_Initfl@23@@Z@4HA 1003fc08     config.obj
 0003:00003c0c       ?_Psave@?$_Facetptr@V?$ctype@D@std@@@std@@2PBVfacet@locale@2@B 1003fc0c     config.obj
 0003:00003c10       ?_Psave@?$_Facetptr@V?$codecvt@DDH@std@@@std@@2PBVfacet@locale@2@B 1003fc10     config.obj
 0003:00003c14       ?d_strings@@3V?$map@KV?$basic_string@DU?$char_traits@D@std@@V?$allocator@D@2@@std@@U?$less@K@2@V?$allocator@U?$pair@$$CBKV?$basic_string@DU?$char_traits@D@std@@V?$allocator@D@2@@std@@@std@@@2@@std@@A 1003fc14     debug.obj
 0003:00003c24       ?Names@@3V?$map@PBDV?$basic_string@DU?$char_traits@D@std@@V?$allocator@D@2@@std@@U?$less@PBD@2@V?$allocator@U?$pair@QBDV?$basic_string@DU?$char_traits@D@std@@V?$allocator@D@2@@std@@@std@@@2@@std@@A 1003fc24     debug.obj
 0003:00003c90       ?z_gamemode@@3KA           1003fc90     gui_replace.obj
 0003:00003c94       ?ipng_out_primary@@3PAXA   1003fc94     itempng.obj
 0003:00003c98       ?ipng_out_secondary@@3PAXA 1003fc98     itempng.obj
 0003:00003ca8       ?Tiles@@3PAY0O@UMapTile@@A 1003fca8     landscape_renderer.obj
 0003:00006a28       ?aMainTextCredit@@3PADA    10042a28     language.obj
 0003:00006a2c       ?aMainTextGlobal@@3PADA    10042a2c     language.obj
 0003:00006a30       ?aMainTextHelp_t@@3PADA    10042a30     language.obj
 0003:00006a34       ?aMainTextMain_t@@3PADA    10042a34     language.obj
 0003:00006a38       ?aMainTextHeropi@@3PADA    10042a38     language.obj
 0003:00006a3c       ?aMainTextStats_@@3PADA    10042a3c     language.obj
 0003:00006a40       ?aMainTextSpells@@3PADA    10042a40     language.obj
 0003:00006a44       ?aMainTextSpell_@@3PADA    10042a44     language.obj
 0003:00006a48       ?aMainTextDialog@@3PADA    10042a48     language.obj
 0003:00006a4c       ?aMainTextUnitna@@3PADA    10042a4c     language.obj
 0003:00006a50       ?aMainTextBuildi@@3PADA    10042a50     language.obj
 0003:00006a54       ?aMainTextItemna@@3PADA    10042a54     language.obj
 0003:00006a58       ?aMainTextNpcnam@@3PADA    10042a58     language.obj
 0003:00006a5c       ?aMainTextCutsce@@3PADA    10042a5c     language.obj
 0003:00006a60       ?aMainTextCutpat@@3PADA    10042a60     language.obj
 0003:00006a64       ?aMainTextTunes_@@3PADA    10042a64     language.obj
 0003:00006a68       ?aPatchPatch_txt@@3PADA    10042a68     language.obj
 0003:00006a6c       ?aMainTextTown_t@@3PADA    10042a6c     language.obj
 0003:00006a70       ?aMainTextMissio@@3PADA    10042a70     language.obj
 0003:00006a74       ?aMainTextQuest_@@3PADA    10042a74     language.obj
 0003:00006a78       ?aMainTextDocsD_@@3PADA    10042a78     language.obj
 0003:00006a7c       ?aMainGraphicsCh@@3PADA    10042a7c     language.obj
 0003:00006a80       ?aMainGraphicsLo@@3PADA    10042a80     language.obj
 0003:00006a84       ?aMainGraphicsFa@@3PADA    10042a84     language.obj
 0003:00006a88       ?aMainGraphicsGl@@3PADA    10042a88     language.obj
 0003:00006a8c       ?aMainGraphics_0@@3PADA    10042a8c     language.obj
 0003:00006a90       ?aMainGraphics_1@@3PADA    10042a90     language.obj
 0003:00006a94       ?aMainGraphicsMa@@3PADA    10042a94     language.obj
 0003:00006a98       ?aMainGraphics_2@@3PADA    10042a98     language.obj
 0003:00006a9c       ?aMainGraphics_3@@3PADA    10042a9c     language.obj
 0003:00006aa0       ?aMainGraphics_4@@3PADA    10042aa0     language.obj
 0003:00006aa4       ?aMainGraphics_5@@3PADA    10042aa4     language.obj
 0003:00006aa8       ?mapFileName@@3PADA        10042aa8     map_location.obj
 0003:00006ba8       ?aLogin@@3PBDB             10042ba8     network_hat_enter.obj
 0003:00006bac       ?aPassword@@3PBDB          10042bac     network_hat_enter.obj
 0003:00006bb0       ?newNetBuffer@@3PADA       10042bb0     network_protocol.obj
 0003:000133b0       ?_neI_SessionKey@@3KA      1004f3b0     network_protocol.obj
 0003:000133b4       ?_neI_SessionID@@3KA       1004f3b4     network_protocol.obj
 0003:000133b8       ?recv_lastCustom@@3_NA     1004f3b8     network_protocol.obj
 0003:000133b9       ?recv_lastIncomplete@@3_NA 1004f3b9     network_protocol.obj
 0003:000133c0       ?hhC@@3VConnection@happyhttp@@A 1004f3c0     network_protocol_ext.obj
 0003:00013420       ?scanrange_initialized@@3_NA 1004f420     scanrange.obj
 0003:00013424       ?scanrange_map@@3PADA      1004f424     scanrange.obj
 0003:00013428       ?Scanrange@@3VCScanrangeCalc@@A 1004f428     scanrange.obj
 0003:000168ec       ?delta@@3KA                100528ec     scrolling.obj
 0003:000168f0       ?lastTime@@3KA             100528f0     scrolling.obj
 0003:000168f8       ?_LOG_FILE@@3V?$basic_ofstream@DU?$char_traits@D@std@@@std@@A 100528f8     utils.obj
 0003:000169a0       ?rhei@@3HA                 100529a0     video_init.obj
 0003:000169a4       ?rwid@@3HA                 100529a4     video_init.obj
 0003:00016a1c       ?_Clocptr@_Locimp@locale@std@@0PAV123@A 10052a1c     libcpmt:locale0.obj
 0003:00016a20       ?_Id_cnt@id@locale@std@@0HA 10052a20     libcpmt:locale0.obj
 0003:00016a24       ?id@?$ctype@D@std@@2V0locale@2@A 10052a24     libcpmt:locale0.obj
 0003:00016a28       ?id@?$codecvt@GDH@std@@2V0locale@2@A 10052a28     libcpmt:locale0.obj
 0003:00016a2c       ?id@?$ctype@_W@std@@2V0locale@2@A 10052a2c     libcpmt:locale0.obj
 0003:00016a30       ?id@?$codecvt@_WDH@std@@2V0locale@2@A 10052a30     libcpmt:locale0.obj
 0003:00016a38       ?id@?$ctype@G@std@@2V0locale@2@A 10052a38     libcpmt:locale0.obj
 0003:00016a40       ?_Index@ios_base@std@@0HA  10052a40     libcpmt:ios.obj
 0003:00016a78       ?_Ptr_cin@std@@3PAV?$basic_istream@DU?$char_traits@D@std@@@1@A 10052a78     libcpmt:iosptrs.obj
 0003:00016a7c       ?_Ptr_cout@std@@3PAV?$basic_ostream@DU?$char_traits@D@std@@@1@A 10052a7c     libcpmt:iosptrs.obj
 0003:00016a80       ?_Ptr_cerr@std@@3PAV?$basic_ostream@DU?$char_traits@D@std@@@1@A 10052a80     libcpmt:iosptrs.obj
 0003:00016a84       ?_Ptr_clog@std@@3PAV?$basic_ostream@DU?$char_traits@D@std@@@1@A 10052a84     libcpmt:iosptrs.obj
 0003:00016a88       ?_Ptr_wcin@std@@3PAV?$basic_istream@_WU?$char_traits@_W@std@@@1@A 10052a88     libcpmt:iosptrs.obj
 0003:00016a8c       ?_Ptr_wcout@std@@3PAV?$basic_ostream@_WU?$char_traits@_W@std@@@1@A 10052a8c     libcpmt:iosptrs.obj
 0003:00016a90       ?_Ptr_wcerr@std@@3PAV?$basic_ostream@_WU?$char_traits@_W@std@@@1@A 10052a90     libcpmt:iosptrs.obj
 0003:00016a94       ?_Ptr_wclog@std@@3PAV?$basic_ostream@_WU?$char_traits@_W@std@@@1@A 10052a94     libcpmt:iosptrs.obj
 0003:00016ad4       ___fastflag                10052ad4     LIBCMT:_fpinit_.obj
 0003:00016ad8       __cflush                   10052ad8     LIBCMT:_file.obj
 0003:00016ae0       __aenvptr                  10052ae0     LIBCMT:dllcrt0.obj
 0003:00016ae4       __wenvptr                  10052ae4     LIBCMT:dllcrt0.obj
 0003:00016ae8       ___error_mode              10052ae8     LIBCMT:dllcrt0.obj
 0003:00016aec       ___app_type                10052aec     LIBCMT:dllcrt0.obj
 0003:00016af0       __maxwait                  10052af0     LIBCMT:crtheap.obj
 0003:00016af4       ___locale_changed          10052af4     LIBCMT:setlocal.obj
 0003:00016b00       ___pInvalidArgHandler      10052b00     LIBCMT:invarg.obj
 0003:00016bc0       ?_pnhHeap@@3P6AHI@ZA       10052bc0     LIBCMT:handler.obj
 0003:00016bc4       _gpFlsAlloc                10052bc4     LIBCMT:tidtable.obj
 0003:00016bc8       _gpFlsGetValue             10052bc8     LIBCMT:tidtable.obj
 0003:00016bcc       _gpFlsSetValue             10052bcc     LIBCMT:tidtable.obj
 0003:00016bd0       _gpFlsFree                 10052bd0     LIBCMT:tidtable.obj
 0003:00016bd4       ?__pInconsistency@@3P6AXXZA 10052bd4     LIBCMT:hooks.obj
 0003:00016efc       __umaskval                 10052efc     LIBCMT:crt0dat.obj
 0003:00016f00       ___argc                    10052f00     LIBCMT:crt0dat.obj
 0003:00016f04       ___argv                    10052f04     LIBCMT:crt0dat.obj
 0003:00016f08       ___wargv                   10052f08     LIBCMT:crt0dat.obj
 0003:00016f0c       __environ                  10052f0c     LIBCMT:crt0dat.obj
 0003:00016f10       ___initenv                 10052f10     LIBCMT:crt0dat.obj
 0003:00016f14       __wenviron                 10052f14     LIBCMT:crt0dat.obj
 0003:00016f18       ___winitenv                10052f18     LIBCMT:crt0dat.obj
 0003:00016f1c       __pgmptr                   10052f1c     LIBCMT:crt0dat.obj
 0003:00016f20       __wpgmptr                  10052f20     LIBCMT:crt0dat.obj
 0003:00016f24       __exitflag                 10052f24     LIBCMT:crt0dat.obj
 0003:00016f28       __C_Termination_Done       10052f28     LIBCMT:crt0dat.obj
 0003:00016f2c       __C_Exit_Done              10052f2c     LIBCMT:crt0dat.obj
 0003:00016f30       __crtheap                  10052f30     LIBCMT:heapinit.obj
 0003:000176b0       __newmode                  100536b0     LIBCMT:_newmode.obj
 0003:000176b8       ___mbulinfo                100536b8     LIBCMT:mbctype.obj
 0003:000176c4       ___mbcodepage              100536c4     LIBCMT:mbctype.obj
 0003:000176c8       ___ismbcodepage            100536c8     LIBCMT:mbctype.obj
 0003:000176cc       ___mblcid                  100536cc     LIBCMT:mbctype.obj
 0003:000177d8       ___pPurecall               100537d8     LIBCMT:inithelp.obj
 0003:000177dc       ___lconv_static_null       100537dc     LIBCMT:lconv.obj
 0003:000177e0       ___lconv_static_W_null     100537e0     LIBCMT:lconv.obj
 0003:0001780c       ?pArgList@UnDecorator@@0PAVReplicator@@A 1005380c     LIBCMT:undname.obj
 0003:00017810       ?pZNameList@UnDecorator@@0PAVReplicator@@A 10053810     LIBCMT:undname.obj
 0003:00017814       ?pTemplateArgList@UnDecorator@@0PAVReplicator@@A 10053814     LIBCMT:undname.obj
 0003:00017818       ?gName@UnDecorator@@0PBDB  10053818     LIBCMT:undname.obj
 0003:0001781c       ?name@UnDecorator@@0PBDB   1005381c     LIBCMT:undname.obj
 0003:00017820       ?outputString@UnDecorator@@0PADA 10053820     LIBCMT:undname.obj
 0003:00017824       ?maxStringLength@UnDecorator@@0HA 10053824     LIBCMT:undname.obj
 0003:00017828       ?disableFlags@UnDecorator@@0KA 10053828     LIBCMT:undname.obj
 0003:0001782c       ?m_pGetParameter@UnDecorator@@0P6APADJ@ZA 1005382c     LIBCMT:undname.obj
 0003:00017830       ?fExplicitTemplateParams@UnDecorator@@0_NA 10053830     LIBCMT:undname.obj
 0003:00017831       ?fGetTemplateArgumentList@UnDecorator@@0_NA 10053831     LIBCMT:undname.obj
 0003:00017838       __outputformat             10053838     LIBCMT:outputformat.obj
 0003:00017840       __commode                  10053840     LIBCMT:ncommode.obj
 0003:00017858       __stdbuf                   10053858     LIBCMT:_sftbuf.obj
 0003:00017860       __fmode                    10053860     LIBCMT:txtmode.obj
 0003:00017864       __debugger_hook_dummy      10053864     <common>
 0003:00017868       __nhandle                  10053868     <common>
 0003:00017880       ___pioinfo                 10053880     <common>
 0003:00017980       ___env_initialized         10053980     <common>
 0003:00017984       ___onexitend               10053984     <common>
 0003:00017988       ___onexitbegin             10053988     <common>
 0003:0001798c       ___mbctype_initialized     1005398c     <common>
 0003:00017990       ___dyn_tls_init_callback   10053990     <common>
 0003:00017994       ___sse2_available          10053994     <common>
 0003:00017998       __acmdln                   10053998     <common>
 0003:0001799c       ___piob                    1005399c     <common>
 0003:000179a0       __bufin                    100539a0     <common>
 0003:000189a0       __nstream                  100549a0     <common>

 entry point at        0001:0001c043

 Static symbols

 0001:00000383       __catch$?_Copy@?$basic_string@DU?$char_traits@D@std@@V?$allocator@D@2@@std@@QAEXII@Z$0 10001383 f i a2mgr.obj
 0001:0000040b       __catch$?_Copy@?$basic_string@DU?$char_traits@D@std@@V?$allocator@D@2@@std@@QAEXII@Z$1 1000140b f i a2mgr.obj
 0001:00001720       _difftime                  10002720 f   add_info.obj
 0001:0000247a       __catch$??$_Uninit_copy@V?$_Vector_const_iterator@V?$_Vector_val@V?$basic_string@DU?$char_traits@D@std@@V?$allocator@D@2@@std@@V?$allocator@V?$basic_string@DU?$char_traits@D@std@@V?$allocator@D@2@@std@@@2@@std@@@std@@PAV?$basic_string@DU?$char_traits@D@std@@V?$allocator@D@2@@2@V?$allocator@V?$basic_string@DU?$char_traits@D@std@@V?$allocator@D@2@@std@@@2@@std@@YAPAV?$basic_string@DU?$char_traits@D@std@@V?$allocator@D@2@@0@V?$_Vector_const_iterator@V?$_Vector_val@V?$basic_string@DU?$char_traits@D@std@@V?$allocator@D@2@@std@@V?$allocator@V?$basic_string@DU?$char_traits@D@std@@V?$allocator@D@2@@std@@@2@@std@@@0@0PAV10@AAV?$allocator@V?$basic_string@DU?$char_traits@D@std@@V?$allocator@D@2@@std@@@0@U_Nonscalar_ptr_iterator_tag@0@@Z$0 1000347a f i chat_history.obj
 0001:000026db       __catch$??0?$vector@V?$basic_string@DU?$char_traits@D@std@@V?$allocator@D@2@@std@@V?$allocator@V?$basic_string@DU?$char_traits@D@std@@V?$allocator@D@2@@std@@@2@@std@@QAE@ABV01@@Z$0 100036db f i chat_history.obj
 0001:000029f3       __catch$?reserve@?$vector@V?$basic_string@DU?$char_traits@D@std@@V?$allocator@D@2@@std@@V?$allocator@V?$basic_string@DU?$char_traits@D@std@@V?$allocator@D@2@@std@@@2@@std@@QAEXI@Z$0 100039f3 f i chat_history.obj
 0001:00002deb       __catch$?reserve@?$vector@V?$vector@V?$basic_string@DU?$char_traits@D@std@@V?$allocator@D@2@@std@@V?$allocator@V?$basic_string@DU?$char_traits@D@std@@V?$allocator@D@2@@std@@@2@@std@@V?$allocator@V?$vector@V?$basic_string@DU?$char_traits@D@std@@V?$allocator@D@2@@std@@V?$allocator@V?$basic_string@DU?$char_traits@D@std@@V?$allocator@D@2@@std@@@2@@std@@@2@@std@@QAEXI@Z$0 10003deb f i chat_history.obj
 0001:000049ac       __catch$?_Ipfx@?$basic_istream@DU?$char_traits@D@std@@@std@@QAE_N_N@Z$0 100059ac f i config.obj
 0001:000054e7       __catch$??$getline@DU?$char_traits@D@std@@V?$allocator@D@2@@std@@YAAAV?$basic_istream@DU?$char_traits@D@std@@@0@$$QAV10@AAV?$basic_string@DU?$char_traits@D@std@@V?$allocator@D@2@@0@D@Z$0 100064e7 f i config.obj
 0001:00008670       __catch$??$_Buynode@U?$pair@QBDV?$basic_string@DU?$char_traits@D@std@@V?$allocator@D@2@@std@@@std@@@?$_Tree_val@V?$_Tmap_traits@PBDV?$basic_string@DU?$char_traits@D@std@@V?$allocator@D@2@@std@@U?$less@PBD@2@V?$allocator@U?$pair@QBDV?$basic_string@DU?$char_traits@D@std@@V?$allocator@D@2@@std@@@std@@@2@$0A@@std@@@std@@QAEPAU_Node@?$_Tree_nod@V?$_Tmap_traits@PBDV?$basic_string@DU?$char_traits@D@std@@V?$allocator@D@2@@std@@U?$less@PBD@2@V?$allocator@U?$pair@QBDV?$basic_string@DU?$char_traits@D@std@@V?$allocator@D@2@@std@@@std@@@2@$0A@@std@@@1@$$QAU?$pair@QBDV?$basic_string@DU?$char_traits@D@std@@V?$allocator@D@2@@std@@@1@@Z$0 10009670 f i debug.obj
 0001:00008e6f       __catch$?read@?$basic_istream@DU?$char_traits@D@std@@@std@@QAEAAV12@PAD_J@Z$0 10009e6f f i File.obj
 0001:00009482       __catch$??0?$vector@URecord@FileArchive@@V?$allocator@URecord@FileArchive@@@std@@@std@@QAE@ABV01@@Z$0 1000a482 f i File.obj
 0001:00009ec6       __catch$??$_Uninit_move@PAURecord@FileArchive@@PAU12@V?$allocator@URecord@FileArchive@@@std@@U12@@std@@YAPAURecord@FileArchive@@PAU12@00AAV?$allocator@URecord@FileArchive@@@0@0U_Nonscalar_ptr_iterator_tag@0@@Z$0 1000aec6 f i File.obj
 0001:00009f7f       __catch$??$_Uninit_copy@V?$_Vector_const_iterator@V?$_Vector_val@URecord@FileArchive@@V?$allocator@URecord@FileArchive@@@std@@@std@@@std@@PAURecord@FileArchive@@V?$allocator@URecord@FileArchive@@@2@@std@@YAPAURecord@FileArchive@@V?$_Vector_const_iterator@V?$_Vector_val@URecord@FileArchive@@V?$allocator@URecord@FileArchive@@@std@@@std@@@0@0PAU12@AAV?$allocator@URecord@FileArchive@@@0@U_Nonscalar_ptr_iterator_tag@0@@Z$0 1000af7f f i File.obj
 0001:0000a0b8       __catch$?reserve@?$vector@URecord@FileArchive@@V?$allocator@URecord@FileArchive@@@std@@@std@@QAEXI@Z$0 1000b0b8 f i File.obj
 0001:0000f763       __catch$?_Osfx@?$basic_ostream@DU?$char_traits@D@std@@@std@@QAEXXZ$0 10010763 f i serialize.obj
 0001:0000ff06       __catch$??$?6U?$char_traits@D@std@@@std@@YAAAV?$basic_ostream@DU?$char_traits@D@std@@@0@AAV10@PBD@Z$0 10010f06 f i utils.obj
 0001:0001400e       __catch$??$_Buynode@U?$pair@$$CBV?$basic_string@DU?$char_traits@D@std@@V?$allocator@D@2@@std@@V12@@std@@@?$_Tree_val@V?$_Tmap_traits@V?$basic_string@DU?$char_traits@D@std@@V?$allocator@D@2@@std@@V12@U?$less@V?$basic_string@DU?$char_traits@D@std@@V?$allocator@D@2@@std@@@2@V?$allocator@U?$pair@$$CBV?$basic_string@DU?$char_traits@D@std@@V?$allocator@D@2@@std@@V12@@std@@@2@$0A@@std@@@std@@QAEPAU_Node@?$_Tree_nod@V?$_Tmap_traits@V?$basic_string@DU?$char_traits@D@std@@V?$allocator@D@2@@std@@V12@U?$less@V?$basic_string@DU?$char_traits@D@std@@V?$allocator@D@2@@std@@@2@V?$allocator@U?$pair@$$CBV?$basic_string@DU?$char_traits@D@std@@V?$allocator@D@2@@std@@V12@@std@@@2@$0A@@std@@@1@$$QAU?$pair@$$CBV?$basic_string@DU?$char_traits@D@std@@V?$allocator@D@2@@std@@V12@@1@@Z$0 1001500e f i happyhttp.obj
 0001:000156b0       ?sha1_process@@YAXPAUsha1_context@@QBE@Z 100166b0 f   sha1.obj
 0001:00017284       _tidy_global               10018284 f   libcpmt:locale0.obj
 0001:000187e0       ?CatchGuardHandler@@YA?AW4_EXCEPTION_DISPOSITION@@PAUEHExceptionRecord@@PAUCatchGuardRN@@PAX2@Z 100197e0 f   LIBCMT:_trnsctrl_.obj
 0001:000188ea       ?TranslatorGuardHandler@@YA?AW4_EXCEPTION_DISPOSITION@@PAUEHExceptionRecord@@PAUTranslatorGuardRN@@PAX2@Z 100198ea f   LIBCMT:_trnsctrl_.obj
 0001:00019257       __onexit_nolock            1001a257 f   LIBCMT:onexit.obj
 0001:00019977       _flsall                    1001a977 f   LIBCMT:fflush.obj
 0001:0001b146       _vscan_fn                  1001c146 f   LIBCMT:sscanf.obj
 0001:0001b464       ?strtoxl@@YAKPAUlocaleinfo_struct@@PBDPAPBDHH@Z 1001c464 f   LIBCMT:strtol.obj
 0001:0001bf4d       ___DllMainCRTStartup       1001cf4d f   LIBCMT:dllcrt0.obj
 0001:0001c086       ?__crtLCMapStringA_stat@@YAHPAUlocaleinfo_struct@@KKPBDHPADHHH@Z 1001d086 f   LIBCMT:a_map.obj
 0001:0001c87d       __copytlocinfo_nolock      1001d87d f   LIBCMT:setlocal.obj
 0001:0001ca71       __setlocale_get_all        1001da71 f   LIBCMT:setlocal.obj
 0001:0001cdf7       __setlocale_set_cat        1001ddf7 f   LIBCMT:setlocal.obj
 0001:0001d131       __setlocale_nolock         1001e131 f   LIBCMT:setlocal.obj
 0001:0001d8cf       ?ExFilterRethrow@@YAHPAU_EXCEPTION_POINTERS@@@Z 1001e8cf f   LIBCMT:frame.obj
 0001:0001d9a3       ?IsInExceptionSpec@@YAEPAUEHExceptionRecord@@PBU_s_ESTypeList@@@Z 1001e9a3 f   LIBCMT:frame.obj
 0001:0001da1e       ?CallUnexpected@@YAXPBU_s_ESTypeList@@@Z 1001ea1e f   LIBCMT:frame.obj
 0001:0001da4f       __catch$?CallUnexpected@@YAXPBU_s_ESTypeList@@@Z$0 1001ea4f f   LIBCMT:frame.obj
 0001:0001da67       ?CallCatchBlock@@YAPAXPAUEHExceptionRecord@@PAUEHRegistrationNode@@PAU_CONTEXT@@PBU_s_FuncInfo@@PAXHK@Z 1001ea67 f   LIBCMT:frame.obj
 0001:0001de14       ?CatchIt@@YAXPAUEHExceptionRecord@@PAUEHRegistrationNode@@PAU_CONTEXT@@PAXPBU_s_FuncInfo@@PBU_s_HandlerType@@PBU_s_CatchableType@@PBU_s_TryBlockMapEntry@@H1E@Z 1001ee14 f   LIBCMT:frame.obj
 0001:0001de82       ?FindHandlerForForeignException@@YAXPAUEHExceptionRecord@@PAUEHRegistrationNode@@PAU_CONTEXT@@PAXPBU_s_FuncInfo@@HH1@Z 1001ee82 f   LIBCMT:frame.obj
 0001:0001df89       ?FindHandler@@YAXPAUEHExceptionRecord@@PAUEHRegistrationNode@@PAU_CONTEXT@@PAXPBU_s_FuncInfo@@EH1@Z 1001ef89 f   LIBCMT:frame.obj
 0001:0001e865       __tzset_nolock             1001f865 f   LIBCMT:tzset.obj
 0001:0001eb78       _cvtdate                   1001fb78 f   LIBCMT:tzset.obj
 0001:0001ed6f       __isindst_nolock           1001fd6f f   LIBCMT:tzset.obj
 0001:0001fb76       _write_char                10020b76 f   LIBCMT:output.obj
 0001:0001fba9       _write_string              10020ba9 f   LIBCMT:output.obj
 0001:000209f1       __shift                    100219f1 f   LIBCMT:cvt.obj
 0001:00020a36       __cftoe2_l                 10021a36 f   LIBCMT:cvt.obj
 0001:00020ff4       __cftof2_l                 10021ff4 f   LIBCMT:cvt.obj
 0001:00021624       _doexit                    10022624 f   LIBCMT:crt0dat.obj
 0001:00022f0e       __tsopen_nolock            10023f0e f   LIBCMT:open.obj
 0001:000237c0       __unwind_handler4          100247c0 f   LIBCMT:exsup4.obj
 0001:00023c48       _comexecmd                 10024c48 f   LIBCMT:spawnve.obj
 0001:00024658       ?CPtoLCID@@YAHH@Z          10025658 f   LIBCMT:mbctype.obj
 0001:00024687       ?setSBCS@@YAXPAUthreadmbcinfostruct@@@Z 10025687 f   LIBCMT:mbctype.obj
 0001:000246eb       ?setSBUpLow@@YAXPAUthreadmbcinfostruct@@@Z 100256eb f   LIBCMT:mbctype.obj
 0001:0002491f       ?getSystemCP@@YAHH@Z       1002591f f   LIBCMT:mbctype.obj
 0001:000250c1       ___check_float_string      100260c1 f   LIBCMT:input.obj
 0001:00025118       __hextodec                 10026118 f   LIBCMT:input.obj
 0001:00025138       __inc                      10026138 f   LIBCMT:input.obj
 0001:0002514e       __whiteout                 1002614e f   LIBCMT:input.obj
 0001:000266d8       _parse_cmdline             100276d8 f   LIBCMT:stdargv.obj
 0001:00026c4c       ?__crtGetStringTypeA_stat@@YAHPAUlocaleinfo_struct@@KPBDHPAGHHH@Z 10027c4c f   LIBCMT:a_str.obj
 0001:000270ce       __get_lc_time              100280ce f   LIBCMT:inittime.obj
 0001:000284eb       _TranslateName             100294eb f   LIBCMT:getqloc.obj
 0001:0002854d       _ProcessCodePage           1002954d f   LIBCMT:getqloc.obj
 0001:000285d1       _TestDefaultCountry        100295d1 f   LIBCMT:getqloc.obj
 0001:000285f6       _LcidFromHexString         100295f6 f   LIBCMT:getqloc.obj
 0001:00028627       _GetPrimaryLen             10029627 f   LIBCMT:getqloc.obj
 0001:00028642       _CountryEnumProc@4         10029642 f   LIBCMT:getqloc.obj
 0001:000286e9       _TestDefaultLanguage       100296e9 f   LIBCMT:getqloc.obj
 0001:00028744       _LangCountryEnumProc@4     10029744 f   LIBCMT:getqloc.obj
 0001:00028915       _LanguageEnumProc@4        10029915 f   LIBCMT:getqloc.obj
 0001:000289d5       _GetLcidFromLangCountry    100299d5 f   LIBCMT:getqloc.obj
 0001:00028a3c       _GetLcidFromLanguage       10029a3c f   LIBCMT:getqloc.obj
 0001:0002a5d9       _siglookup                 1002b5d9 f   LIBCMT:winsig.obj
 0001:0002a7f0       __unwind_handler           1002b7f0 f   LIBCMT:exsup.obj
 0001:0002c650       ?x_ismbbtype_l@@YAHPAUlocaleinfo_struct@@IHH@Z 1002d650 f   LIBCMT:ismbbyte.obj
 0001:0002c6bb       ?__crtGetLocaleInfoA_stat@@YAHPAUlocaleinfo_struct@@KKPADH@Z 1002d6bb f   LIBCMT:a_loc.obj
 0001:0002c904       _xtoa_s@20                 1002d904 f   LIBCMT:xtoas.obj
 0001:0002e45e       __hw_cw                    1002f45e f   LIBCMT:_ieee87_.obj
 0001:0002e4ec       ___hw_cw_sse2              1002f4ec f   LIBCMT:_ieee87_.obj
 0001:0002eab9       ?__crtCompareStringA_stat@@YAHPAUlocaleinfo_struct@@KKPBDH1HH@Z 1002fab9 f   LIBCMT:a_cmp.obj
 0001:0002ee53       _findenv                   1002fe53 f   LIBCMT:setenv.obj
 0001:0002eea5       _copy_environ              1002fea5 f   LIBCMT:setenv.obj
 0001:0002fae0       __ehhandler$?_Copy@?$basic_string@DU?$char_traits@D@std@@V?$allocator@D@2@@std@@QAEXII@Z 10030ae0 f   a2mgr.obj
 0001:0002fb00       __unwindfunclet$??$?HDU?$char_traits@D@std@@V?$allocator@D@1@@std@@YA?AV?$basic_string@DU?$char_traits@D@std@@V?$allocator@D@2@@0@ABV10@PBD@Z$0 10030b00 f   a2mgr.obj
 0001:0002fb19       __ehhandler$??$?HDU?$char_traits@D@std@@V?$allocator@D@1@@std@@YA?AV?$basic_string@DU?$char_traits@D@std@@V?$allocator@D@2@@0@ABV10@PBD@Z 10030b19 f   a2mgr.obj
 0001:0002fb40       __unwindfunclet$?DllMain_Init@@YG_NPAUHINSTANCE__@@KPAX@Z$0 10030b40 f   a2mgr.obj
 0001:0002fb4b       __unwindfunclet$?DllMain_Init@@YG_NPAUHINSTANCE__@@KPAX@Z$1 10030b4b f   a2mgr.obj
 0001:0002fb56       __unwindfunclet$?DllMain_Init@@YG_NPAUHINSTANCE__@@KPAX@Z$3 10030b56 f   a2mgr.obj
 0001:0002fb61       __unwindfunclet$?DllMain_Init@@YG_NPAUHINSTANCE__@@KPAX@Z$4 10030b61 f   a2mgr.obj
 0001:0002fb6c       __unwindfunclet$?DllMain_Init@@YG_NPAUHINSTANCE__@@KPAX@Z$5 10030b6c f   a2mgr.obj
 0001:0002fb77       __unwindfunclet$?DllMain_Init@@YG_NPAUHINSTANCE__@@KPAX@Z$7 10030b77 f   a2mgr.obj
 0001:0002fb82       __unwindfunclet$?DllMain_Init@@YG_NPAUHINSTANCE__@@KPAX@Z$8 10030b82 f   a2mgr.obj
 0001:0002fb8d       __unwindfunclet$?DllMain_Init@@YG_NPAUHINSTANCE__@@KPAX@Z$9 10030b8d f   a2mgr.obj
 0001:0002fb98       __unwindfunclet$?DllMain_Init@@YG_NPAUHINSTANCE__@@KPAX@Z$10 10030b98 f   a2mgr.obj
 0001:0002fba3       __unwindfunclet$?DllMain_Init@@YG_NPAUHINSTANCE__@@KPAX@Z$11 10030ba3 f   a2mgr.obj
 0001:0002fbae       __unwindfunclet$?DllMain_Init@@YG_NPAUHINSTANCE__@@KPAX@Z$13 10030bae f   a2mgr.obj
 0001:0002fbb9       __unwindfunclet$?DllMain_Init@@YG_NPAUHINSTANCE__@@KPAX@Z$14 10030bb9 f   a2mgr.obj
 0001:0002fbc4       __unwindfunclet$?DllMain_Init@@YG_NPAUHINSTANCE__@@KPAX@Z$16 10030bc4 f   a2mgr.obj
 0001:0002fbcf       __unwindfunclet$?DllMain_Init@@YG_NPAUHINSTANCE__@@KPAX@Z$18 10030bcf f   a2mgr.obj
 0001:0002fbda       __ehhandler$?DllMain_Init@@YG_NPAUHINSTANCE__@@KPAX@Z 10030bda f   a2mgr.obj
 0001:0002fc10       __unwindfunclet$?FpsImpl@@YGXKPAUtagRECT@@@Z$1 10030c10 f   add_info.obj
 0001:0002fc18       __unwindfunclet$?FpsImpl@@YGXKPAUtagRECT@@@Z$3 10030c18 f   add_info.obj
 0001:0002fc20       __unwindfunclet$?FpsImpl@@YGXKPAUtagRECT@@@Z$5 10030c20 f   add_info.obj
 0001:0002fc28       __ehhandler$?FpsImpl@@YGXKPAUtagRECT@@@Z 10030c28 f   add_info.obj
 0001:0002fc50       __unwindfunclet$??$_Uninit_copy@V?$_Vector_const_iterator@V?$_Vector_val@V?$basic_string@DU?$char_traits@D@std@@V?$allocator@D@2@@std@@V?$allocator@V?$basic_string@DU?$char_traits@D@std@@V?$allocator@D@2@@std@@@2@@std@@@std@@PAV?$basic_string@DU?$char_traits@D@std@@V?$allocator@D@2@@2@V?$allocator@V?$basic_string@DU?$char_traits@D@std@@V?$allocator@D@2@@std@@@2@@std@@YAPAV?$basic_string@DU?$char_traits@D@std@@V?$allocator@D@2@@0@V?$_Vector_const_iterator@V?$_Vector_val@V?$basic_string@DU?$char_traits@D@std@@V?$allocator@D@2@@std@@V?$allocator@V?$basic_string@DU?$char_traits@D@std@@V?$allocator@D@2@@std@@@2@@std@@@0@0PAV10@AAV?$allocator@V?$basic_string@DU?$char_traits@D@std@@V?$allocator@D@2@@std@@@0@U_Nonscalar_ptr_iterator_tag@0@@Z$2 10030c50 f   chat_history.obj
 0001:0002fc61       __ehhandler$??$_Uninit_copy@V?$_Vector_const_iterator@V?$_Vector_val@V?$basic_string@DU?$char_traits@D@std@@V?$allocator@D@2@@std@@V?$allocator@V?$basic_string@DU?$char_traits@D@std@@V?$allocator@D@2@@std@@@2@@std@@@std@@PAV?$basic_string@DU?$char_traits@D@std@@V?$allocator@D@2@@2@V?$allocator@V?$basic_string@DU?$char_traits@D@std@@V?$allocator@D@2@@std@@@2@@std@@YAPAV?$basic_string@DU?$char_traits@D@std@@V?$allocator@D@2@@0@V?$_Vector_const_iterator@V?$_Vector_val@V?$basic_string@DU?$char_traits@D@std@@V?$allocator@D@2@@std@@V?$allocator@V?$basic_string@DU?$char_traits@D@std@@V?$allocator@D@2@@std@@@2@@std@@@0@0PAV10@AAV?$allocator@V?$basic_string@DU?$char_traits@D@std@@V?$allocator@D@2@@std@@@0@U_Nonscalar_ptr_iterator_tag@0@@Z 10030c61 f   chat_history.obj
 0001:0002fc80       __unwindfunclet$??$_Uninit_move@PAV?$basic_string@DU?$char_traits@D@std@@V?$allocator@D@2@@std@@PAV12@V?$allocator@V?$basic_string@DU?$char_traits@D@std@@V?$allocator@D@2@@std@@@2@V12@@std@@YAPAV?$basic_string@DU?$char_traits@D@std@@V?$allocator@D@2@@0@PAV10@00AAV?$allocator@V?$basic_string@DU?$char_traits@D@std@@V?$allocator@D@2@@std@@@0@0U_Nonscalar_ptr_iterator_tag@0@@Z$2 10030c80 f   chat_history.obj
 0001:0002fc91       __ehhandler$??$_Uninit_move@PAV?$basic_string@DU?$char_traits@D@std@@V?$allocator@D@2@@std@@PAV12@V?$allocator@V?$basic_string@DU?$char_traits@D@std@@V?$allocator@D@2@@std@@@2@V12@@std@@YAPAV?$basic_string@DU?$char_traits@D@std@@V?$allocator@D@2@@0@PAV10@00AAV?$allocator@V?$basic_string@DU?$char_traits@D@std@@V?$allocator@D@2@@std@@@0@0U_Nonscalar_ptr_iterator_tag@0@@Z 10030c91 f   chat_history.obj
 0001:0002fcb0       __ehhandler$??0?$vector@V?$basic_string@DU?$char_traits@D@std@@V?$allocator@D@2@@std@@V?$allocator@V?$basic_string@DU?$char_traits@D@std@@V?$allocator@D@2@@std@@@2@@std@@QAE@ABV01@@Z 10030cb0 f   chat_history.obj
 0001:0002fcd0       __unwindfunclet$?getStringLastT@@YG?AV?$basic_string@DU?$char_traits@D@std@@V?$allocator@D@2@@std@@XZ$0 10030cd0 f   chat_history.obj
 0001:0002fcd8       __unwindfunclet$?getStringLastT@@YG?AV?$basic_string@DU?$char_traits@D@std@@V?$allocator@D@2@@std@@XZ$1 10030cd8 f   chat_history.obj
 0001:0002fcf1       __ehhandler$?getStringLastT@@YG?AV?$basic_string@DU?$char_traits@D@std@@V?$allocator@D@2@@std@@XZ 10030cf1 f   chat_history.obj
 0001:0002fd10       __ehhandler$?reserve@?$vector@V?$basic_string@DU?$char_traits@D@std@@V?$allocator@D@2@@std@@V?$allocator@V?$basic_string@DU?$char_traits@D@std@@V?$allocator@D@2@@std@@@2@@std@@QAEXI@Z 10030d10 f   chat_history.obj
 0001:0002fd30       __unwindfunclet$?push_back@?$vector@V?$vector@V?$basic_string@DU?$char_traits@D@std@@V?$allocator@D@2@@std@@V?$allocator@V?$basic_string@DU?$char_traits@D@std@@V?$allocator@D@2@@std@@@2@@std@@V?$allocator@V?$vector@V?$basic_string@DU?$char_traits@D@std@@V?$allocator@D@2@@std@@V?$allocator@V?$basic_string@DU?$char_traits@D@std@@V?$allocator@D@2@@std@@@2@@std@@@2@@std@@QAEXABV?$vector@V?$basic_string@DU?$char_traits@D@std@@V?$allocator@D@2@@std@@V?$allocator@V?$basic_string@DU?$char_traits@D@std@@V?$allocator@D@2@@std@@@2@@2@@Z$0 10030d30 f   chat_history.obj
 0001:0002fd30       __unwindfunclet$?push_back@?$vector@V?$basic_string@DU?$char_traits@D@std@@V?$allocator@D@2@@std@@V?$allocator@V?$basic_string@DU?$char_traits@D@std@@V?$allocator@D@2@@std@@@2@@std@@QAEXABV?$basic_string@DU?$char_traits@D@std@@V?$allocator@D@2@@2@@Z$0 10030d30 f   chat_history.obj
 0001:0002fd30       __unwindfunclet$?push_back@?$vector@V?$basic_string@DU?$char_traits@D@std@@V?$allocator@D@2@@std@@V?$allocator@V?$basic_string@DU?$char_traits@D@std@@V?$allocator@D@2@@std@@@2@@std@@QAEX$$QAV?$basic_string@DU?$char_traits@D@std@@V?$allocator@D@2@@2@@Z$0 10030d30 f   chat_history.obj
 0001:0002fd30       __unwindfunclet$?push_back@?$vector@URecord@FileArchive@@V?$allocator@URecord@FileArchive@@@std@@@std@@QAEXABURecord@FileArchive@@@Z$0 10030d30 f   chat_history.obj
 0001:0002fd41       __unwindfunclet$?push_back@?$vector@V?$basic_string@DU?$char_traits@D@std@@V?$allocator@D@2@@std@@V?$allocator@V?$basic_string@DU?$char_traits@D@std@@V?$allocator@D@2@@std@@@2@@std@@QAEX$$QAV?$basic_string@DU?$char_traits@D@std@@V?$allocator@D@2@@2@@Z$1 10030d41 f   chat_history.obj
 0001:0002fd41       __unwindfunclet$?push_back@?$vector@V?$vector@V?$basic_string@DU?$char_traits@D@std@@V?$allocator@D@2@@std@@V?$allocator@V?$basic_string@DU?$char_traits@D@std@@V?$allocator@D@2@@std@@@2@@std@@V?$allocator@V?$vector@V?$basic_string@DU?$char_traits@D@std@@V?$allocator@D@2@@std@@V?$allocator@V?$basic_string@DU?$char_traits@D@std@@V?$allocator@D@2@@std@@@2@@std@@@2@@std@@QAEXABV?$vector@V?$basic_string@DU?$char_traits@D@std@@V?$allocator@D@2@@std@@V?$allocator@V?$basic_string@DU?$char_traits@D@std@@V?$allocator@D@2@@std@@@2@@2@@Z$1 10030d41 f   chat_history.obj
 0001:0002fd41       __unwindfunclet$?push_back@?$vector@V?$basic_string@DU?$char_traits@D@std@@V?$allocator@D@2@@std@@V?$allocator@V?$basic_string@DU?$char_traits@D@std@@V?$allocator@D@2@@std@@@2@@std@@QAEXABV?$basic_string@DU?$char_traits@D@std@@V?$allocator@D@2@@2@@Z$1 10030d41 f   chat_history.obj
 0001:0002fd41       __unwindfunclet$?push_back@?$vector@URecord@FileArchive@@V?$allocator@URecord@FileArchive@@@std@@@std@@QAEXABURecord@FileArchive@@@Z$1 10030d41 f   chat_history.obj
 0001:0002fd52       __ehhandler$?push_back@?$vector@V?$vector@V?$basic_string@DU?$char_traits@D@std@@V?$allocator@D@2@@std@@V?$allocator@V?$basic_string@DU?$char_traits@D@std@@V?$allocator@D@2@@std@@@2@@std@@V?$allocator@V?$vector@V?$basic_string@DU?$char_traits@D@std@@V?$allocator@D@2@@std@@V?$allocator@V?$basic_string@DU?$char_traits@D@std@@V?$allocator@D@2@@std@@@2@@std@@@2@@std@@QAEXABV?$vector@V?$basic_string@DU?$char_traits@D@std@@V?$allocator@D@2@@std@@V?$allocator@V?$basic_string@DU?$char_traits@D@std@@V?$allocator@D@2@@std@@@2@@2@@Z 10030d52 f   chat_history.obj
 0001:0002fd52       __ehhandler$?push_back@?$vector@V?$basic_string@DU?$char_traits@D@std@@V?$allocator@D@2@@std@@V?$allocator@V?$basic_string@DU?$char_traits@D@std@@V?$allocator@D@2@@std@@@2@@std@@QAEX$$QAV?$basic_string@DU?$char_traits@D@std@@V?$allocator@D@2@@2@@Z 10030d52 f   chat_history.obj
 0001:0002fd52       __ehhandler$?push_back@?$vector@V?$basic_string@DU?$char_traits@D@std@@V?$allocator@D@2@@std@@V?$allocator@V?$basic_string@DU?$char_traits@D@std@@V?$allocator@D@2@@std@@@2@@std@@QAEXABV?$basic_string@DU?$char_traits@D@std@@V?$allocator@D@2@@2@@Z 10030d52 f   chat_history.obj
 0001:0002fd52       __ehhandler$?push_back@?$vector@URecord@FileArchive@@V?$allocator@URecord@FileArchive@@@std@@@std@@QAEXABURecord@FileArchive@@@Z 10030d52 f   chat_history.obj
 0001:0002fd70       __unwindfunclet$??$_Uninit_move@PAV?$vector@V?$basic_string@DU?$char_traits@D@std@@V?$allocator@D@2@@std@@V?$allocator@V?$basic_string@DU?$char_traits@D@std@@V?$allocator@D@2@@std@@@2@@std@@PAV12@V?$allocator@V?$vector@V?$basic_string@DU?$char_traits@D@std@@V?$allocator@D@2@@std@@V?$allocator@V?$basic_string@DU?$char_traits@D@std@@V?$allocator@D@2@@std@@@2@@std@@@2@V12@@std@@YAPAV?$vector@V?$basic_string@DU?$char_traits@D@std@@V?$allocator@D@2@@std@@V?$allocator@V?$basic_string@DU?$char_traits@D@std@@V?$allocator@D@2@@std@@@2@@0@PAV10@00AAV?$allocator@V?$vector@V?$basic_string@DU?$char_traits@D@std@@V?$allocator@D@2@@std@@V?$allocator@V?$basic_string@DU?$char_traits@D@std@@V?$allocator@D@2@@std@@@2@@std@@@0@0U_Nonscalar_ptr_iterator_tag@0@@Z$2 10030d70 f   chat_history.obj
 0001:0002fd81       __ehhandler$??$_Uninit_move@PAV?$vector@V?$basic_string@DU?$char_traits@D@std@@V?$allocator@D@2@@std@@V?$allocator@V?$basic_string@DU?$char_traits@D@std@@V?$allocator@D@2@@std@@@2@@std@@PAV12@V?$allocator@V?$vector@V?$basic_string@DU?$char_traits@D@std@@V?$allocator@D@2@@std@@V?$allocator@V?$basic_string@DU?$char_traits@D@std@@V?$allocator@D@2@@std@@@2@@std@@@2@V12@@std@@YAPAV?$vector@V?$basic_string@DU?$char_traits@D@std@@V?$allocator@D@2@@std@@V?$allocator@V?$basic_string@DU?$char_traits@D@std@@V?$allocator@D@2@@std@@@2@@0@PAV10@00AAV?$allocator@V?$vector@V?$basic_string@DU?$char_traits@D@std@@V?$allocator@D@2@@std@@V?$allocator@V?$basic_string@DU?$char_traits@D@std@@V?$allocator@D@2@@std@@@2@@std@@@0@0U_Nonscalar_ptr_iterator_tag@0@@Z 10030d81 f   chat_history.obj
 0001:0002fda0       __ehhandler$?reserve@?$vector@V?$vector@V?$basic_string@DU?$char_traits@D@std@@V?$allocator@D@2@@std@@V?$allocator@V?$basic_string@DU?$char_traits@D@std@@V?$allocator@D@2@@std@@@2@@std@@V?$allocator@V?$vector@V?$basic_string@DU?$char_traits@D@std@@V?$allocator@D@2@@std@@V?$allocator@V?$basic_string@DU?$char_traits@D@std@@V?$allocator@D@2@@std@@@2@@std@@@2@@std@@QAEXI@Z 10030da0 f   chat_history.obj
 0001:0002fdc0       __unwindfunclet$?addString@@YAXPAD@Z$0 10030dc0 f   chat_history.obj
 0001:0002fdc8       __unwindfunclet$?addString@@YAXPAD@Z$1 10030dc8 f   chat_history.obj
 0001:0002fdd0       __ehhandler$?addString@@YAXPAD@Z 10030dd0 f   chat_history.obj
 0001:0002fe00       __unwindfunclet$??__FAssocList@@YAXXZ$1 10030e00 f   class_extend.obj
 0001:0002fe0a       __ehhandler$??__FAssocList@@YAXXZ 10030e0a f   class_extend.obj
 0001:0002fe30       __unwindfunclet$??0_Locinfo@std@@QAE@PBD@Z$0 10030e30 f   config.obj
 0001:0002fe38       __unwindfunclet$??0_Locinfo@std@@QAE@PBD@Z$1 10030e38 f   config.obj
 0001:0002fe43       __unwindfunclet$??0_Locinfo@std@@QAE@PBD@Z$2 10030e43 f   config.obj
 0001:0002fe4e       __unwindfunclet$??0_Locinfo@std@@QAE@PBD@Z$3 10030e4e f   config.obj
 0001:0002fe59       __unwindfunclet$??0_Locinfo@std@@QAE@PBD@Z$4 10030e59 f   config.obj
 0001:0002fe64       __ehhandler$??0_Locinfo@std@@QAE@PBD@Z 10030e64 f   config.obj
 0001:0002fe80       __unwindfunclet$??1_Locinfo@std@@QAE@XZ$0 10030e80 f   config.obj
 0001:0002fe88       __unwindfunclet$??1_Locinfo@std@@QAE@XZ$1 10030e88 f   config.obj
 0001:0002fe93       __unwindfunclet$??1_Locinfo@std@@QAE@XZ$2 10030e93 f   config.obj
 0001:0002fe9e       __unwindfunclet$??1_Locinfo@std@@QAE@XZ$3 10030e9e f   config.obj
 0001:0002fea9       __unwindfunclet$??1_Locinfo@std@@QAE@XZ$4 10030ea9 f   config.obj
 0001:0002feb4       __ehhandler$??1_Locinfo@std@@QAE@XZ 10030eb4 f   config.obj
 0001:0002fed0       __unwindfunclet$?_Getcat@?$ctype@D@std@@SAIPAPBVfacet@locale@2@PBV42@@Z$0 10030ed0 f   config.obj
 0001:0002fedb       __ehhandler$?_Getcat@?$ctype@D@std@@SAIPAPBVfacet@locale@2@PBV42@@Z 10030edb f   config.obj
 0001:0002ff00       __unwindfunclet$??0?$basic_streambuf@DU?$char_traits@D@std@@@std@@IAE@XZ$0 10030f00 f   config.obj
 0001:0002ff0b       __ehhandler$??0?$basic_streambuf@DU?$char_traits@D@std@@@std@@IAE@XZ 10030f0b f   config.obj
 0001:0002ff30       __unwindfunclet$?_Getcat@?$codecvt@DDH@std@@SAIPAPBVfacet@locale@2@PBV42@@Z$0 10030f30 f   config.obj
 0001:0002ff3b       __ehhandler$?_Getcat@?$codecvt@DDH@std@@SAIPAPBVfacet@locale@2@PBV42@@Z 10030f3b f   config.obj
 0001:0002ff60       __unwindfunclet$?_Ipfx@?$basic_istream@DU?$char_traits@D@std@@@std@@QAE_N_N@Z$2 10030f60 f   config.obj
 0001:0002ff68       __ehhandler$?_Ipfx@?$basic_istream@DU?$char_traits@D@std@@@std@@QAE_N_N@Z 10030f68 f   config.obj
 0001:0002ff90       __unwindfunclet$?widen@?$basic_ios@DU?$char_traits@D@std@@@std@@QBEDD@Z$0 10030f90 f   config.obj
 0001:0002ff98       __ehhandler$?widen@?$basic_ios@DU?$char_traits@D@std@@@std@@QBEDD@Z 10030f98 f   config.obj
 0001:0002ffc0       __unwindfunclet$??$use_facet@V?$ctype@D@std@@@std@@YAABV?$ctype@D@0@ABVlocale@0@@Z$0 10030fc0 f   config.obj
 0001:0002ffc0       __unwindfunclet$??$use_facet@V?$codecvt@DDH@std@@@std@@YAABV?$codecvt@DDH@0@ABVlocale@0@@Z$0 10030fc0 f   config.obj
 0001:0002ffc8       __ehhandler$??$use_facet@V?$ctype@D@std@@@std@@YAABV?$ctype@D@0@ABVlocale@0@@Z 10030fc8 f   config.obj
 0001:0002ffc8       __ehhandler$??$use_facet@V?$codecvt@DDH@std@@@std@@YAABV?$codecvt@DDH@0@ABVlocale@0@@Z 10030fc8 f   config.obj
 0001:0002fff0       __unwindfunclet$?open@?$basic_filebuf@DU?$char_traits@D@std@@@std@@QAEPAV12@PBDHH@Z$0 10030ff0 f   config.obj
 0001:0002fff8       __ehhandler$?open@?$basic_filebuf@DU?$char_traits@D@std@@@std@@QAEPAV12@PBDHH@Z 10030ff8 f   config.obj
 0001:00030020       __unwindfunclet$?_Endwrite@?$basic_filebuf@DU?$char_traits@D@std@@@std@@IAE_NXZ$0 10031020 f   config.obj
 0001:00030028       __ehhandler$?_Endwrite@?$basic_filebuf@DU?$char_traits@D@std@@@std@@IAE_NXZ 10031028 f   config.obj
 0001:00030050       __unwindfunclet$??$getline@DU?$char_traits@D@std@@V?$allocator@D@2@@std@@YAAAV?$basic_istream@DU?$char_traits@D@std@@@0@$$QAV10@AAV?$basic_string@DU?$char_traits@D@std@@V?$allocator@D@2@@0@D@Z$3 10031050 f   config.obj
 0001:00030058       __unwindfunclet$??$getline@DU?$char_traits@D@std@@V?$allocator@D@2@@std@@YAAAV?$basic_istream@DU?$char_traits@D@std@@@0@$$QAV10@AAV?$basic_string@DU?$char_traits@D@std@@V?$allocator@D@2@@0@D@Z$2 10031058 f   config.obj
 0001:00030060       __ehhandler$??$getline@DU?$char_traits@D@std@@V?$allocator@D@2@@std@@YAAAV?$basic_istream@DU?$char_traits@D@std@@@0@$$QAV10@AAV?$basic_string@DU?$char_traits@D@std@@V?$allocator@D@2@@0@D@Z 10031060 f   config.obj
 0001:00030080       __unwindfunclet$?getheader@Response@happyhttp@@QBEPBDPBD@Z$0 10031080 f   config.obj
 0001:00030080       __unwindfunclet$?overflow@?$basic_filebuf@DU?$char_traits@D@std@@@std@@MAEHH@Z$0 10031080 f   config.obj
 0001:00030080       __unwindfunclet$?uflow@?$basic_filebuf@DU?$char_traits@D@std@@@std@@MAEHXZ$0 10031080 f   config.obj
 0001:00030088       __ehhandler$?uflow@?$basic_filebuf@DU?$char_traits@D@std@@@std@@MAEHXZ 10031088 f   config.obj
 0001:00030088       __ehhandler$?getheader@Response@happyhttp@@QBEPBDPBD@Z 10031088 f   config.obj
 0001:00030088       __ehhandler$?overflow@?$basic_filebuf@DU?$char_traits@D@std@@@std@@MAEHH@Z 10031088 f   config.obj
 0001:000300b0       __unwindfunclet$??0?$basic_ifstream@DU?$char_traits@D@std@@@std@@QAE@XZ$0 100310b0 f   config.obj
 0001:000300cc       __unwindfunclet$??0?$basic_ifstream@DU?$char_traits@D@std@@@std@@QAE@XZ$1 100310cc f   config.obj
 0001:000300d7       __ehhandler$??0?$basic_ifstream@DU?$char_traits@D@std@@@std@@QAE@XZ 100310d7 f   config.obj
 0001:00030100       __unwindfunclet$??1?$basic_ifstream@DU?$char_traits@D@std@@@std@@UAE@XZ$0 10031100 f   config.obj
 0001:0003010b       __unwindfunclet$??1?$basic_ifstream@DU?$char_traits@D@std@@@std@@UAE@XZ$2 1003110b f   config.obj
 0001:00030113       __ehhandler$??1?$basic_ifstream@DU?$char_traits@D@std@@@std@@UAE@XZ 10031113 f   config.obj
 0001:00030130       __unwindfunclet$??_G?$basic_filebuf@DU?$char_traits@D@std@@@std@@UAEPAXI@Z$0 10031130 f   config.obj
 0001:00030138       __ehhandler$??_G?$basic_filebuf@DU?$char_traits@D@std@@@std@@UAEPAXI@Z 10031138 f   config.obj
 0001:00030160       __unwindfunclet$?ParseConfig1x@@YAXAAV?$basic_ifstream@DU?$char_traits@D@std@@@std@@@Z$0 10031160 f   config.obj
 0001:00030168       __unwindfunclet$?ParseConfig1x@@YAXAAV?$basic_ifstream@DU?$char_traits@D@std@@@std@@@Z$6 10031168 f   config.obj
 0001:00030173       __unwindfunclet$?ParseConfig1x@@YAXAAV?$basic_ifstream@DU?$char_traits@D@std@@@std@@@Z$1 10031173 f   config.obj
 0001:0003017b       __unwindfunclet$?ParseConfig1x@@YAXAAV?$basic_ifstream@DU?$char_traits@D@std@@@std@@@Z$2 1003117b f   config.obj
 0001:00030183       __unwindfunclet$?ParseConfig1x@@YAXAAV?$basic_ifstream@DU?$char_traits@D@std@@@std@@@Z$3 10031183 f   config.obj
 0001:0003018b       __unwindfunclet$?ParseConfig1x@@YAXAAV?$basic_ifstream@DU?$char_traits@D@std@@@std@@@Z$4 1003118b f   config.obj
 0001:00030193       __unwindfunclet$?ParseConfig1x@@YAXAAV?$basic_ifstream@DU?$char_traits@D@std@@@std@@@Z$5 10031193 f   config.obj
 0001:0003019b       __ehhandler$?ParseConfig1x@@YAXAAV?$basic_ifstream@DU?$char_traits@D@std@@@std@@@Z 1003119b f   config.obj
 0001:000301d0       __unwindfunclet$?ParseConfig2x@@YAXAAV?$basic_ifstream@DU?$char_traits@D@std@@@std@@@Z$0 100311d0 f   config.obj
 0001:000301d8       __unwindfunclet$?ParseConfig2x@@YAXAAV?$basic_ifstream@DU?$char_traits@D@std@@@std@@@Z$8 100311d8 f   config.obj
 0001:000301e0       __unwindfunclet$?ParseConfig2x@@YAXAAV?$basic_ifstream@DU?$char_traits@D@std@@@std@@@Z$1 100311e0 f   config.obj
 0001:000301e8       __unwindfunclet$?ParseConfig2x@@YAXAAV?$basic_ifstream@DU?$char_traits@D@std@@@std@@@Z$3 100311e8 f   config.obj
 0001:000301f0       __unwindfunclet$?ParseConfig2x@@YAXAAV?$basic_ifstream@DU?$char_traits@D@std@@@std@@@Z$4 100311f0 f   config.obj
 0001:000301f8       __unwindfunclet$?ParseConfig2x@@YAXAAV?$basic_ifstream@DU?$char_traits@D@std@@@std@@@Z$5 100311f8 f   config.obj
 0001:00030200       __unwindfunclet$?ParseConfig2x@@YAXAAV?$basic_ifstream@DU?$char_traits@D@std@@@std@@@Z$6 10031200 f   config.obj
 0001:00030208       __unwindfunclet$?ParseConfig2x@@YAXAAV?$basic_ifstream@DU?$char_traits@D@std@@@std@@@Z$7 10031208 f   config.obj
 0001:00030210       __ehhandler$?ParseConfig2x@@YAXAAV?$basic_ifstream@DU?$char_traits@D@std@@@std@@@Z 10031210 f   config.obj
 0001:00030240       __unwindfunclet$?_disp256@@YGXPBDK@Z$0 10031240 f   debug.obj
 0001:00030240       __unwindfunclet$?BASE_setCurrentDirectory1@@YGHPAD@Z$0 10031240 f   debug.obj
 0001:00030248       __ehhandler$?BASE_setCurrentDirectory1@@YGHPAD@Z 10031248 f   debug.obj
 0001:00030248       __ehhandler$?_disp256@@YGXPBDK@Z 10031248 f   debug.obj
 0001:00030270       __unwindfunclet$??$_Buynode@U?$pair@QBDV?$basic_string@DU?$char_traits@D@std@@V?$allocator@D@2@@std@@@std@@@?$_Tree_val@V?$_Tmap_traits@PBDV?$basic_string@DU?$char_traits@D@std@@V?$allocator@D@2@@std@@U?$less@PBD@2@V?$allocator@U?$pair@QBDV?$basic_string@DU?$char_traits@D@std@@V?$allocator@D@2@@std@@@std@@@2@$0A@@std@@@std@@QAEPAU_Node@?$_Tree_nod@V?$_Tmap_traits@PBDV?$basic_string@DU?$char_traits@D@std@@V?$allocator@D@2@@std@@U?$less@PBD@2@V?$allocator@U?$pair@QBDV?$basic_string@DU?$char_traits@D@std@@V?$allocator@D@2@@std@@@std@@@2@$0A@@std@@@1@$$QAU?$pair@QBDV?$basic_string@DU?$char_traits@D@std@@V?$allocator@D@2@@std@@@1@@Z$2 10031270 f   debug.obj
 0001:00030281       __ehhandler$??$_Buynode@U?$pair@QBDV?$basic_string@DU?$char_traits@D@std@@V?$allocator@D@2@@std@@@std@@@?$_Tree_val@V?$_Tmap_traits@PBDV?$basic_string@DU?$char_traits@D@std@@V?$allocator@D@2@@std@@U?$less@PBD@2@V?$allocator@U?$pair@QBDV?$basic_string@DU?$char_traits@D@std@@V?$allocator@D@2@@std@@@std@@@2@$0A@@std@@@std@@QAEPAU_Node@?$_Tree_nod@V?$_Tmap_traits@PBDV?$basic_string@DU?$char_traits@D@std@@V?$allocator@D@2@@std@@U?$less@PBD@2@V?$allocator@U?$pair@QBDV?$basic_string@DU?$char_traits@D@std@@V?$allocator@D@2@@std@@@std@@@2@$0A@@std@@@1@$$QAU?$pair@QBDV?$basic_string@DU?$char_traits@D@std@@V?$allocator@D@2@@std@@@1@@Z 10031281 f   debug.obj
 0001:000302a0       __unwindfunclet$??A?$map@PBDV?$basic_string@DU?$char_traits@D@std@@V?$allocator@D@2@@std@@U?$less@PBD@2@V?$allocator@U?$pair@QBDV?$basic_string@DU?$char_traits@D@std@@V?$allocator@D@2@@std@@@std@@@2@@std@@QAEAAV?$basic_string@DU?$char_traits@D@std@@V?$allocator@D@2@@1@ABQBD@Z$0 100312a0 f   debug.obj
 0001:000302a8       __unwindfunclet$??A?$map@PBDV?$basic_string@DU?$char_traits@D@std@@V?$allocator@D@2@@std@@U?$less@PBD@2@V?$allocator@U?$pair@QBDV?$basic_string@DU?$char_traits@D@std@@V?$allocator@D@2@@std@@@std@@@2@@std@@QAEAAV?$basic_string@DU?$char_traits@D@std@@V?$allocator@D@2@@1@ABQBD@Z$1 100312a8 f   debug.obj
 0001:000302b0       __ehhandler$??A?$map@PBDV?$basic_string@DU?$char_traits@D@std@@V?$allocator@D@2@@std@@U?$less@PBD@2@V?$allocator@U?$pair@QBDV?$basic_string@DU?$char_traits@D@std@@V?$allocator@D@2@@std@@@std@@@2@@std@@QAEAAV?$basic_string@DU?$char_traits@D@std@@V?$allocator@D@2@@1@ABQBD@Z 100312b0 f   debug.obj
 0001:000302e0       __unwindfunclet$??__Fd_strings@@YAXXZ$1 100312e0 f   debug.obj
 0001:000302ea       __ehhandler$??__Fd_strings@@YAXXZ 100312ea f   debug.obj
 0001:00030310       __unwindfunclet$??__FNames@@YAXXZ$1 10031310 f   debug.obj
 0001:0003031a       __ehhandler$??__FNames@@YAXXZ 1003131a f   debug.obj
 0001:00030340       __unwindfunclet$??1Record@FileArchive@@QAE@XZ$0 10031340 f   File.obj
 0001:00030340       __unwindfunclet$??1File@@QAE@XZ$0 10031340 f   File.obj
 0001:0003034b       __ehhandler$??1File@@QAE@XZ 1003134b f   File.obj
 0001:0003034b       __ehhandler$??1Record@FileArchive@@QAE@XZ 1003134b f   File.obj
 0001:00030370       __unwindfunclet$?read@?$basic_istream@DU?$char_traits@D@std@@@std@@QAEAAV12@PAD_J@Z$3 10031370 f   File.obj
 0001:00030378       __unwindfunclet$?read@?$basic_istream@DU?$char_traits@D@std@@@std@@QAEAAV12@PAD_J@Z$2 10031378 f   File.obj
 0001:00030380       __ehhandler$?read@?$basic_istream@DU?$char_traits@D@std@@@std@@QAEAAV12@PAD_J@Z 10031380 f   File.obj
 0001:000303a0       __unwindfunclet$??$_Dest_val@V?$allocator@URecord@FileArchive@@@std@@URecord@FileArchive@@@std@@YAXAAV?$allocator@URecord@FileArchive@@@0@PAURecord@FileArchive@@@Z$0 100313a0 f   File.obj
 0001:000303ab       __ehhandler$??$_Dest_val@V?$allocator@URecord@FileArchive@@@std@@URecord@FileArchive@@@std@@YAXAAV?$allocator@URecord@FileArchive@@@0@PAURecord@FileArchive@@@Z 100313ab f   File.obj
 0001:000303d0       __unwindfunclet$??0Record@FileArchive@@QAE@XZ$0 100313d0 f   File.obj
 0001:000303db       __unwindfunclet$??0Record@FileArchive@@QAE@XZ$1 100313db f   File.obj
 0001:000303e6       __unwindfunclet$??0Record@FileArchive@@QAE@XZ$2 100313e6 f   File.obj
 0001:000303f1       __ehhandler$??0Record@FileArchive@@QAE@XZ 100313f1 f   File.obj
 0001:00030410       __unwindfunclet$??$_Destroy_range@V?$allocator@URecord@FileArchive@@@std@@@std@@YAXPAURecord@FileArchive@@0AAV?$allocator@URecord@FileArchive@@@0@U_Nonscalar_ptr_iterator_tag@0@@Z$0 10031410 f   File.obj
 0001:0003041b       __ehhandler$??$_Destroy_range@V?$allocator@URecord@FileArchive@@@std@@@std@@YAXPAURecord@FileArchive@@0AAV?$allocator@URecord@FileArchive@@@0@U_Nonscalar_ptr_iterator_tag@0@@Z 1003141b f   File.obj
 0001:00030440       __unwindfunclet$??0File@@QAE@XZ$0 10031440 f   File.obj
 0001:0003044b       __unwindfunclet$??0File@@QAE@XZ$1 1003144b f   File.obj
 0001:00030456       __ehhandler$??0File@@QAE@XZ 10031456 f   File.obj
 0001:00030480       __ehhandler$??0?$vector@URecord@FileArchive@@V?$allocator@URecord@FileArchive@@@std@@@std@@QAE@ABV01@@Z 10031480 f   File.obj
 0001:000304a0       __unwindfunclet$?GetRecord@FileArchive@@QAEABURecord@1@V?$basic_string@DU?$char_traits@D@std@@V?$allocator@D@2@@std@@@Z$0 100314a0 f   File.obj
 0001:000304a8       __unwindfunclet$?GetRecord@FileArchive@@QAEABURecord@1@V?$basic_string@DU?$char_traits@D@std@@V?$allocator@D@2@@std@@@Z$1 100314a8 f   File.obj
 0001:000304b6       __unwindfunclet$?GetRecord@FileArchive@@QAEABURecord@1@V?$basic_string@DU?$char_traits@D@std@@V?$allocator@D@2@@std@@@Z$7 100314b6 f   File.obj
 0001:000304c0       __unwindfunclet$?GetRecord@FileArchive@@QAEABURecord@1@V?$basic_string@DU?$char_traits@D@std@@V?$allocator@D@2@@std@@@Z$8 100314c0 f   File.obj
 0001:000304ca       __unwindfunclet$?GetRecord@FileArchive@@QAEABURecord@1@V?$basic_string@DU?$char_traits@D@std@@V?$allocator@D@2@@std@@@Z$9 100314ca f   File.obj
 0001:000304d4       __unwindfunclet$?GetRecord@FileArchive@@QAEABURecord@1@V?$basic_string@DU?$char_traits@D@std@@V?$allocator@D@2@@std@@@Z$2 100314d4 f   File.obj
 0001:000304dc       __unwindfunclet$?GetRecord@FileArchive@@QAEABURecord@1@V?$basic_string@DU?$char_traits@D@std@@V?$allocator@D@2@@std@@@Z$3 100314dc f   File.obj
 0001:000304e4       __unwindfunclet$?GetRecord@FileArchive@@QAEABURecord@1@V?$basic_string@DU?$char_traits@D@std@@V?$allocator@D@2@@std@@@Z$4 100314e4 f   File.obj
 0001:000304ec       __unwindfunclet$?GetRecord@FileArchive@@QAEABURecord@1@V?$basic_string@DU?$char_traits@D@std@@V?$allocator@D@2@@std@@@Z$5 100314ec f   File.obj
 0001:000304f4       __unwindfunclet$?GetRecord@FileArchive@@QAEABURecord@1@V?$basic_string@DU?$char_traits@D@std@@V?$allocator@D@2@@std@@@Z$6 100314f4 f   File.obj
 0001:000304fc       __ehhandler$?GetRecord@FileArchive@@QAEABURecord@1@V?$basic_string@DU?$char_traits@D@std@@V?$allocator@D@2@@std@@@Z 100314fc f   File.obj
 0001:00030530       __unwindfunclet$?Open@File@@QAE_NV?$basic_string@DU?$char_traits@D@std@@V?$allocator@D@2@@std@@@Z$0 10031530 f   File.obj
 0001:00030538       __unwindfunclet$?Open@File@@QAE_NV?$basic_string@DU?$char_traits@D@std@@V?$allocator@D@2@@std@@@Z$1 10031538 f   File.obj
 0001:00030540       __unwindfunclet$?Open@File@@QAE_NV?$basic_string@DU?$char_traits@D@std@@V?$allocator@D@2@@std@@@Z$2 10031540 f   File.obj
 0001:00030548       __ehhandler$?Open@File@@QAE_NV?$basic_string@DU?$char_traits@D@std@@V?$allocator@D@2@@std@@@Z 10031548 f   File.obj
 0001:00030570       __unwindfunclet$?FileExistsEx@@YA_NV?$basic_string@DU?$char_traits@D@std@@V?$allocator@D@2@@std@@@Z$0 10031570 f   File.obj
 0001:00030578       __unwindfunclet$?FileExistsEx@@YA_NV?$basic_string@DU?$char_traits@D@std@@V?$allocator@D@2@@std@@@Z$3 10031578 f   File.obj
 0001:00030583       __unwindfunclet$?FileExistsEx@@YA_NV?$basic_string@DU?$char_traits@D@std@@V?$allocator@D@2@@std@@@Z$4 10031583 f   File.obj
 0001:0003058e       __unwindfunclet$?FileExistsEx@@YA_NV?$basic_string@DU?$char_traits@D@std@@V?$allocator@D@2@@std@@@Z$1 1003158e f   File.obj
 0001:00030599       __unwindfunclet$?FileExistsEx@@YA_NV?$basic_string@DU?$char_traits@D@std@@V?$allocator@D@2@@std@@@Z$5 10031599 f   File.obj
 0001:000305a4       __unwindfunclet$?FileExistsEx@@YA_NV?$basic_string@DU?$char_traits@D@std@@V?$allocator@D@2@@std@@@Z$8 100315a4 f   File.obj
 0001:000305af       __ehhandler$?FileExistsEx@@YA_NV?$basic_string@DU?$char_traits@D@std@@V?$allocator@D@2@@std@@@Z 100315af f   File.obj
 0001:000305e0       __unwindfunclet$??0Record@FileArchive@@QAE@ABU01@@Z$0 100315e0 f   File.obj
 0001:000305eb       __unwindfunclet$??0Record@FileArchive@@QAE@ABU01@@Z$1 100315eb f   File.obj
 0001:000305f6       __ehhandler$??0Record@FileArchive@@QAE@ABU01@@Z 100315f6 f   File.obj
 0001:00030620       __unwindfunclet$??$_Uninit_move@PAURecord@FileArchive@@PAU12@V?$allocator@URecord@FileArchive@@@std@@U12@@std@@YAPAURecord@FileArchive@@PAU12@00AAV?$allocator@URecord@FileArchive@@@0@0U_Nonscalar_ptr_iterator_tag@0@@Z$2 10031620 f   File.obj
 0001:00030631       __ehhandler$??$_Uninit_move@PAURecord@FileArchive@@PAU12@V?$allocator@URecord@FileArchive@@@std@@U12@@std@@YAPAURecord@FileArchive@@PAU12@00AAV?$allocator@URecord@FileArchive@@@0@0U_Nonscalar_ptr_iterator_tag@0@@Z 10031631 f   File.obj
 0001:00030650       __unwindfunclet$??$_Uninit_copy@V?$_Vector_const_iterator@V?$_Vector_val@URecord@FileArchive@@V?$allocator@URecord@FileArchive@@@std@@@std@@@std@@PAURecord@FileArchive@@V?$allocator@URecord@FileArchive@@@2@@std@@YAPAURecord@FileArchive@@V?$_Vector_const_iterator@V?$_Vector_val@URecord@FileArchive@@V?$allocator@URecord@FileArchive@@@std@@@std@@@0@0PAU12@AAV?$allocator@URecord@FileArchive@@@0@U_Nonscalar_ptr_iterator_tag@0@@Z$2 10031650 f   File.obj
 0001:00030661       __ehhandler$??$_Uninit_copy@V?$_Vector_const_iterator@V?$_Vector_val@URecord@FileArchive@@V?$allocator@URecord@FileArchive@@@std@@@std@@@std@@PAURecord@FileArchive@@V?$allocator@URecord@FileArchive@@@2@@std@@YAPAURecord@FileArchive@@V?$_Vector_const_iterator@V?$_Vector_val@URecord@FileArchive@@V?$allocator@URecord@FileArchive@@@std@@@std@@@0@0PAU12@AAV?$allocator@URecord@FileArchive@@@0@U_Nonscalar_ptr_iterator_tag@0@@Z 10031661 f   File.obj
 0001:00030680       __ehhandler$?reserve@?$vector@URecord@FileArchive@@V?$allocator@URecord@FileArchive@@@std@@@std@@QAEXI@Z 10031680 f   File.obj
 0001:000306a0       __unwindfunclet$?Open@FileArchive@@QAE_NV?$basic_string@DU?$char_traits@D@std@@V?$allocator@D@2@@std@@0@Z$0 100316a0 f   File.obj
 0001:000306a8       __unwindfunclet$?Open@FileArchive@@QAE_NV?$basic_string@DU?$char_traits@D@std@@V?$allocator@D@2@@std@@0@Z$1 100316a8 f   File.obj
 0001:000306b0       __unwindfunclet$?Open@FileArchive@@QAE_NV?$basic_string@DU?$char_traits@D@std@@V?$allocator@D@2@@std@@0@Z$2 100316b0 f   File.obj
 0001:000306bb       __unwindfunclet$?Open@FileArchive@@QAE_NV?$basic_string@DU?$char_traits@D@std@@V?$allocator@D@2@@std@@0@Z$3 100316bb f   File.obj
 0001:000306c6       __unwindfunclet$?Open@FileArchive@@QAE_NV?$basic_string@DU?$char_traits@D@std@@V?$allocator@D@2@@std@@0@Z$4 100316c6 f   File.obj
 0001:000306d1       __unwindfunclet$?Open@FileArchive@@QAE_NV?$basic_string@DU?$char_traits@D@std@@V?$allocator@D@2@@std@@0@Z$5 100316d1 f   File.obj
 0001:000306dc       __unwindfunclet$?Open@FileArchive@@QAE_NV?$basic_string@DU?$char_traits@D@std@@V?$allocator@D@2@@std@@0@Z$6 100316dc f   File.obj
 0001:000306e7       __unwindfunclet$?Open@FileArchive@@QAE_NV?$basic_string@DU?$char_traits@D@std@@V?$allocator@D@2@@std@@0@Z$11 100316e7 f   File.obj
 0001:000306ef       __unwindfunclet$?Open@FileArchive@@QAE_NV?$basic_string@DU?$char_traits@D@std@@V?$allocator@D@2@@std@@0@Z$12 100316ef f   File.obj
 0001:000306f7       __unwindfunclet$?Open@FileArchive@@QAE_NV?$basic_string@DU?$char_traits@D@std@@V?$allocator@D@2@@std@@0@Z$13 100316f7 f   File.obj
 0001:000306ff       __unwindfunclet$?Open@FileArchive@@QAE_NV?$basic_string@DU?$char_traits@D@std@@V?$allocator@D@2@@std@@0@Z$7 100316ff f   File.obj
 0001:00030707       __unwindfunclet$?Open@FileArchive@@QAE_NV?$basic_string@DU?$char_traits@D@std@@V?$allocator@D@2@@std@@0@Z$17 10031707 f   File.obj
 0001:0003070f       __unwindfunclet$?Open@FileArchive@@QAE_NV?$basic_string@DU?$char_traits@D@std@@V?$allocator@D@2@@std@@0@Z$20 1003170f f   File.obj
 0001:0003071a       __unwindfunclet$?Open@FileArchive@@QAE_NV?$basic_string@DU?$char_traits@D@std@@V?$allocator@D@2@@std@@0@Z$14 1003171a f   File.obj
 0001:00030722       __ehhandler$?Open@FileArchive@@QAE_NV?$basic_string@DU?$char_traits@D@std@@V?$allocator@D@2@@std@@0@Z 10031722 f   File.obj
 0001:00030750       __unwindfunclet$??__Frec@?1??GetRecord@FileArchive@@QAEABURecord@1@V?$basic_string@DU?$char_traits@D@std@@V?$allocator@D@2@@std@@@Z@YAXXZ$0 10031750 f   File.obj
 0001:0003075a       __ehhandler$??__Frec@?1??GetRecord@FileArchive@@QAEABURecord@1@V?$basic_string@DU?$char_traits@D@std@@V?$allocator@D@2@@std@@@Z@YAXXZ 1003175a f   File.obj
 0001:00030780       __unwindfunclet$??__FArchives@@YAXXZ$0 10031780 f   File.obj
 0001:0003078a       __unwindfunclet$??__FArchives@@YAXXZ$1 1003178a f   File.obj
 0001:00030794       __ehhandler$??__FArchives@@YAXXZ 10031794 f   File.obj
 0001:000307b0       __unwindfunclet$?GUI_textField_MeasurePosition@@YGKK@Z$0 100317b0 f   gui_bugfix.obj
 0001:000307b8       __ehhandler$?GUI_textField_MeasurePosition@@YGKK@Z 100317b8 f   gui_bugfix.obj
 0001:000307e0       __unwindfunclet$??0Image@@QAE@V?$basic_string@DU?$char_traits@D@std@@V?$allocator@D@2@@std@@@Z$0 100317e0 f   Image.obj
 0001:000307e8       __unwindfunclet$??0Image@@QAE@V?$basic_string@DU?$char_traits@D@std@@V?$allocator@D@2@@std@@@Z$1 100317e8 f   Image.obj
 0001:000307f3       __unwindfunclet$??0Image@@QAE@V?$basic_string@DU?$char_traits@D@std@@V?$allocator@D@2@@std@@@Z$4 100317f3 f   Image.obj
 0001:000307fb       __unwindfunclet$??0Image@@QAE@V?$basic_string@DU?$char_traits@D@std@@V?$allocator@D@2@@std@@@Z$6 100317fb f   Image.obj
 0001:00030803       __unwindfunclet$??0Image@@QAE@V?$basic_string@DU?$char_traits@D@std@@V?$allocator@D@2@@std@@@Z$8 10031803 f   Image.obj
 0001:0003080b       __unwindfunclet$??0Image@@QAE@V?$basic_string@DU?$char_traits@D@std@@V?$allocator@D@2@@std@@@Z$9 1003180b f   Image.obj
 0001:00030816       __ehhandler$??0Image@@QAE@V?$basic_string@DU?$char_traits@D@std@@V?$allocator@D@2@@std@@@Z 10031816 f   Image.obj
 0001:00030840       __unwindfunclet$?IImage_Construct@@YGPAXV?$basic_string@DU?$char_traits@D@std@@V?$allocator@D@2@@std@@@Z$0 10031840 f   itempng.obj
 0001:00030848       __unwindfunclet$?IImage_Construct@@YGPAXV?$basic_string@DU?$char_traits@D@std@@V?$allocator@D@2@@std@@@Z$1 10031848 f   itempng.obj
 0001:00030853       __ehhandler$?IImage_Construct@@YGPAXV?$basic_string@DU?$char_traits@D@std@@V?$allocator@D@2@@std@@@Z 10031853 f   itempng.obj
 0001:00030870       __unwindfunclet$?ITEMPNG_doLoadPngChar@@YGPAXPBD0@Z$1 10031870 f   itempng.obj
 0001:00030878       __unwindfunclet$?ITEMPNG_doLoadPngChar@@YGPAXPBD0@Z$3 10031878 f   itempng.obj
 0001:00030880       __ehhandler$?ITEMPNG_doLoadPngChar@@YGPAXPBD0@Z 10031880 f   itempng.obj
 0001:000308b0       __unwindfunclet$?ITEMPNG_doLoadPng@@YGXPBDH00@Z$0 100318b0 f   itempng.obj
 0001:000308b8       __unwindfunclet$?ITEMPNG_doLoadPng@@YGXPBDH00@Z$1 100318b8 f   itempng.obj
 0001:000308c3       __unwindfunclet$?ITEMPNG_doLoadPng@@YGXPBDH00@Z$2 100318c3 f   itempng.obj
 0001:000308cb       __unwindfunclet$?ITEMPNG_doLoadPng@@YGXPBDH00@Z$3 100318cb f   itempng.obj
 0001:000308d6       __unwindfunclet$?ITEMPNG_doLoadPng@@YGXPBDH00@Z$4 100318d6 f   itempng.obj
 0001:000308de       __unwindfunclet$?ITEMPNG_doLoadPng@@YGXPBDH00@Z$5 100318de f   itempng.obj
 0001:000308e6       __unwindfunclet$?ITEMPNG_doLoadPng@@YGXPBDH00@Z$6 100318e6 f   itempng.obj
 0001:000308ee       __unwindfunclet$?ITEMPNG_doLoadPng@@YGXPBDH00@Z$7 100318ee f   itempng.obj
 0001:000308f6       __ehhandler$?ITEMPNG_doLoadPng@@YGXPBDH00@Z 100318f6 f   itempng.obj
 0001:00030920       __unwindfunclet$?P_LoadTiles@@YAXXZ$1 10031920 f   landscape_renderer.obj
 0001:00030928       __ehhandler$?P_LoadTiles@@YAXXZ 10031928 f   landscape_renderer.obj
 0001:00030950       __unwindfunclet$?get_map_name@@YGPBDPBD@Z$0 10031950 f   map_location.obj
 0001:00030958       __ehhandler$?get_map_name@@YGPBDPBD@Z 10031958 f   map_location.obj
 0001:00030980       __unwindfunclet$?move_map_file@@YGXPBD0@Z$0 10031980 f   map_location.obj
 0001:00030988       __unwindfunclet$?move_map_file@@YGXPBD0@Z$1 10031988 f   map_location.obj
 0001:00030990       __unwindfunclet$?move_map_file@@YGXPBD0@Z$2 10031990 f   map_location.obj
 0001:00030998       __unwindfunclet$?move_map_file@@YGXPBD0@Z$3 10031998 f   map_location.obj
 0001:000309a0       __ehhandler$?move_map_file@@YGXPBD0@Z 100319a0 f   map_location.obj
 0001:000309d0       __unwindfunclet$?recv_@@YGHIPADHH@Z$0 100319d0 f   network_protocol.obj
 0001:000309d8       __ehhandler$?recv_@@YGHIPADHH@Z 100319d8 f   network_protocol.obj
 0001:00030a00       __unwindfunclet$??0NETPROTO_fileProgress@@QAE@XZ$0 10031a00 f   network_protocol_ext.obj
 0001:00030a0b       __unwindfunclet$??0NETPROTO_fileProgress@@QAE@XZ$1 10031a0b f   network_protocol_ext.obj
 0001:00030a16       __ehhandler$??0NETPROTO_fileProgress@@QAE@XZ 10031a16 f   network_protocol_ext.obj
 0001:00030a40       __unwindfunclet$?Basename@@YA?AV?$basic_string@DU?$char_traits@D@std@@V?$allocator@D@2@@std@@ABV12@@Z$0 10031a40 f   network_protocol_ext.obj
 0001:00030a40       __unwindfunclet$?NETPROTO_hhStartReply@@YAXPBVResponse@happyhttp@@PAX@Z$0 10031a40 f   network_protocol_ext.obj
 0001:00030a40       __unwindfunclet$?getStringLast@@YGXPAPAD@Z$0 10031a40 f   network_protocol_ext.obj
 0001:00030a40       __unwindfunclet$?Dirname@@YA?AV?$basic_string@DU?$char_traits@D@std@@V?$allocator@D@2@@std@@ABV12@@Z$0 10031a40 f   network_protocol_ext.obj
 0001:00030a48       __ehhandler$?Basename@@YA?AV?$basic_string@DU?$char_traits@D@std@@V?$allocator@D@2@@std@@ABV12@@Z 10031a48 f   network_protocol_ext.obj
 0001:00030a48       __ehhandler$?Dirname@@YA?AV?$basic_string@DU?$char_traits@D@std@@V?$allocator@D@2@@std@@ABV12@@Z 10031a48 f   network_protocol_ext.obj
 0001:00030a48       __ehhandler$?NETPROTO_hhStartReply@@YAXPBVResponse@happyhttp@@PAX@Z 10031a48 f   network_protocol_ext.obj
 0001:00030a48       __ehhandler$?getStringLast@@YGXPAPAD@Z 10031a48 f   network_protocol_ext.obj
 0001:00030a70       __unwindfunclet$?NETPROTO_hhReadReply@@YAXPBVResponse@happyhttp@@PAXPBEH@Z$1 10031a70 f   network_protocol_ext.obj
 0001:00030a78       __unwindfunclet$?NETPROTO_hhReadReply@@YAXPBVResponse@happyhttp@@PAXPBEH@Z$3 10031a78 f   network_protocol_ext.obj
 0001:00030a80       __unwindfunclet$?NETPROTO_hhReadReply@@YAXPBVResponse@happyhttp@@PAXPBEH@Z$5 10031a80 f   network_protocol_ext.obj
 0001:00030a88       __unwindfunclet$?NETPROTO_hhReadReply@@YAXPBVResponse@happyhttp@@PAXPBEH@Z$7 10031a88 f   network_protocol_ext.obj
 0001:00030a90       __ehhandler$?NETPROTO_hhReadReply@@YAXPBVResponse@happyhttp@@PAXPBEH@Z 10031a90 f   network_protocol_ext.obj
 0001:00030ac0       __unwindfunclet$?CurlEscape2@@YA?AV?$basic_string@DU?$char_traits@D@std@@V?$allocator@D@2@@std@@V12@@Z$0 10031ac0 f   network_protocol_ext.obj
 0001:00030ac8       __unwindfunclet$?CurlEscape2@@YA?AV?$basic_string@DU?$char_traits@D@std@@V?$allocator@D@2@@std@@V12@@Z$1 10031ac8 f   network_protocol_ext.obj
 0001:00030ae1       __unwindfunclet$?CurlEscape2@@YA?AV?$basic_string@DU?$char_traits@D@std@@V?$allocator@D@2@@std@@V12@@Z$3 10031ae1 f   network_protocol_ext.obj
 0001:00030ae9       __ehhandler$?CurlEscape2@@YA?AV?$basic_string@DU?$char_traits@D@std@@V?$allocator@D@2@@std@@V12@@Z 10031ae9 f   network_protocol_ext.obj
 0001:00030b10       __unwindfunclet$?NETPROTO_hhGetBlockingReply@@YA?AV?$basic_string@DU?$char_traits@D@std@@V?$allocator@D@2@@std@@V12@00@Z$0 10031b10 f   network_protocol_ext.obj
 0001:00030b18       __unwindfunclet$?NETPROTO_hhGetBlockingReply@@YA?AV?$basic_string@DU?$char_traits@D@std@@V?$allocator@D@2@@std@@V12@00@Z$1 10031b18 f   network_protocol_ext.obj
 0001:00030b20       __unwindfunclet$?NETPROTO_hhGetBlockingReply@@YA?AV?$basic_string@DU?$char_traits@D@std@@V?$allocator@D@2@@std@@V12@00@Z$2 10031b20 f   network_protocol_ext.obj
 0001:00030b28       __unwindfunclet$?NETPROTO_hhGetBlockingReply@@YA?AV?$basic_string@DU?$char_traits@D@std@@V?$allocator@D@2@@std@@V12@00@Z$3 10031b28 f   network_protocol_ext.obj
 0001:00030b30       __ehhandler$?NETPROTO_hhGetBlockingReply@@YA?AV?$basic_string@DU?$char_traits@D@std@@V?$allocator@D@2@@std@@V12@00@Z 10031b30 f   network_protocol_ext.obj
 0001:00030b60       __unwindfunclet$?NETPROTO_loginToHat@@YGHXZ$0 10031b60 f   network_protocol_ext.obj
 0001:00030b6b       __unwindfunclet$?NETPROTO_loginToHat@@YGHXZ$1 10031b6b f   network_protocol_ext.obj
 0001:00030b73       __unwindfunclet$?NETPROTO_loginToHat@@YGHXZ$3 10031b73 f   network_protocol_ext.obj
 0001:00030b7e       __unwindfunclet$?NETPROTO_loginToHat@@YGHXZ$5 10031b7e f   network_protocol_ext.obj
 0001:00030b89       __unwindfunclet$?NETPROTO_loginToHat@@YGHXZ$7 10031b89 f   network_protocol_ext.obj
 0001:00030b91       __unwindfunclet$?NETPROTO_loginToHat@@YGHXZ$8 10031b91 f   network_protocol_ext.obj
 0001:00030b99       __unwindfunclet$?NETPROTO_loginToHat@@YGHXZ$9 10031b99 f   network_protocol_ext.obj
 0001:00030ba4       __unwindfunclet$?NETPROTO_loginToHat@@YGHXZ$10 10031ba4 f   network_protocol_ext.obj
 0001:00030baf       __unwindfunclet$?NETPROTO_loginToHat@@YGHXZ$12 10031baf f   network_protocol_ext.obj
 0001:00030bba       __unwindfunclet$?NETPROTO_loginToHat@@YGHXZ$13 10031bba f   network_protocol_ext.obj
 0001:00030bc5       __unwindfunclet$?NETPROTO_loginToHat@@YGHXZ$14 10031bc5 f   network_protocol_ext.obj
 0001:00030bcd       __unwindfunclet$?NETPROTO_loginToHat@@YGHXZ$15 10031bcd f   network_protocol_ext.obj
 0001:00030bd8       __unwindfunclet$?NETPROTO_loginToHat@@YGHXZ$17 10031bd8 f   network_protocol_ext.obj
 0001:00030be3       __unwindfunclet$?NETPROTO_loginToHat@@YGHXZ$20 10031be3 f   network_protocol_ext.obj
 0001:00030bee       __unwindfunclet$?NETPROTO_loginToHat@@YGHXZ$21 10031bee f   network_protocol_ext.obj
 0001:00030bf9       __unwindfunclet$?NETPROTO_loginToHat@@YGHXZ$23 10031bf9 f   network_protocol_ext.obj
 0001:00030c04       __ehhandler$?NETPROTO_loginToHat@@YGHXZ 10031c04 f   network_protocol_ext.obj
 0001:00030c30       __unwindfunclet$?SCREENSHOT_take@@YAXXZ$0 10031c30 f   screenshot.obj
 0001:00030c38       __unwindfunclet$?SCREENSHOT_take@@YAXXZ$1 10031c38 f   screenshot.obj
 0001:00030c40       __unwindfunclet$?SCREENSHOT_take@@YAXXZ$3 10031c40 f   screenshot.obj
 0001:00030c48       __unwindfunclet$?SCREENSHOT_take@@YAXXZ$4 10031c48 f   screenshot.obj
 0001:00030c50       __unwindfunclet$?SCREENSHOT_take@@YAXXZ$5 10031c50 f   screenshot.obj
 0001:00030c58       __ehhandler$?SCREENSHOT_take@@YAXXZ 10031c58 f   screenshot.obj
 0001:00030c80       __ehhandler$?_Osfx@?$basic_ostream@DU?$char_traits@D@std@@@std@@QAEXXZ 10031c80 f   serialize.obj
 0001:00030ca0       __unwindfunclet$??1sentry@?$basic_ostream@DU?$char_traits@D@std@@@std@@QAE@XZ$0 10031ca0 f   serialize.obj
 0001:00030ca8       __ehhandler$??1sentry@?$basic_ostream@DU?$char_traits@D@std@@@std@@QAE@XZ 10031ca8 f   serialize.obj
 0001:00030cd0       __unwindfunclet$??0?$basic_ofstream@DU?$char_traits@D@std@@@std@@QAE@XZ$0 10031cd0 f   serialize.obj
 0001:00030cec       __unwindfunclet$??0?$basic_ofstream@DU?$char_traits@D@std@@@std@@QAE@XZ$1 10031cec f   serialize.obj
 0001:00030cf7       __ehhandler$??0?$basic_ofstream@DU?$char_traits@D@std@@@std@@QAE@XZ 10031cf7 f   serialize.obj
 0001:00030d20       __unwindfunclet$??1?$basic_ofstream@DU?$char_traits@D@std@@@std@@UAE@XZ$0 10031d20 f   serialize.obj
 0001:00030d2b       __unwindfunclet$??1?$basic_ofstream@DU?$char_traits@D@std@@@std@@UAE@XZ$2 10031d2b f   serialize.obj
 0001:00030d33       __ehhandler$??1?$basic_ofstream@DU?$char_traits@D@std@@@std@@UAE@XZ 10031d33 f   serialize.obj
 0001:00030d50       __unwindfunclet$??$?6U?$char_traits@D@std@@@std@@YAAAV?$basic_ostream@DU?$char_traits@D@std@@@0@AAV10@PBD@Z$3 10031d50 f   utils.obj
 0001:00030d58       __unwindfunclet$??$?6U?$char_traits@D@std@@@std@@YAAAV?$basic_ostream@DU?$char_traits@D@std@@@0@AAV10@PBD@Z$2 10031d58 f   utils.obj
 0001:00030d60       __unwindfunclet$??$?6U?$char_traits@D@std@@@std@@YAAAV?$basic_ostream@DU?$char_traits@D@std@@@0@AAV10@PBD@Z$13 10031d60 f   utils.obj
 0001:00030d68       __ehhandler$??$?6U?$char_traits@D@std@@@std@@YAAAV?$basic_ostream@DU?$char_traits@D@std@@@0@AAV10@PBD@Z 10031d68 f   utils.obj
 0001:00030d90       __unwindfunclet$?Format@@YA?AV?$basic_string@DU?$char_traits@D@std@@V?$allocator@D@2@@std@@V12@ZZ$0 10031d90 f   utils.obj
 0001:00030d98       __ehhandler$?Format@@YA?AV?$basic_string@DU?$char_traits@D@std@@V?$allocator@D@2@@std@@V12@ZZ 10031d98 f   utils.obj
 0001:00030dc0       __unwindfunclet$?TrimRight@@YA?AV?$basic_string@DU?$char_traits@D@std@@V?$allocator@D@2@@std@@ABV12@P6A_ND@Z@Z$0 10031dc0 f   utils.obj
 0001:00030dc0       __unwindfunclet$?TrimLeft@@YA?AV?$basic_string@DU?$char_traits@D@std@@V?$allocator@D@2@@std@@ABV12@P6A_ND@Z@Z$0 10031dc0 f   utils.obj
 0001:00030dc8       __ehhandler$?TrimLeft@@YA?AV?$basic_string@DU?$char_traits@D@std@@V?$allocator@D@2@@std@@ABV12@P6A_ND@Z@Z 10031dc8 f   utils.obj
 0001:00030dc8       __ehhandler$?TrimRight@@YA?AV?$basic_string@DU?$char_traits@D@std@@V?$allocator@D@2@@std@@ABV12@P6A_ND@Z@Z 10031dc8 f   utils.obj
 0001:00030df0       __unwindfunclet$?Trim@@YA?AV?$basic_string@DU?$char_traits@D@std@@V?$allocator@D@2@@std@@ABV12@P6A_ND@Z@Z$0 10031df0 f   utils.obj
 0001:00030df8       __ehhandler$?Trim@@YA?AV?$basic_string@DU?$char_traits@D@std@@V?$allocator@D@2@@std@@ABV12@P6A_ND@Z@Z 10031df8 f   utils.obj
 0001:00030e20       __unwindfunclet$?StrToBoolean@@YA_NABV?$basic_string@DU?$char_traits@D@std@@V?$allocator@D@2@@std@@@Z$0 10031e20 f   utils.obj
 0001:00030e28       __unwindfunclet$?StrToBoolean@@YA_NABV?$basic_string@DU?$char_traits@D@std@@V?$allocator@D@2@@std@@@Z$1 10031e28 f   utils.obj
 0001:00030e30       __ehhandler$?StrToBoolean@@YA_NABV?$basic_string@DU?$char_traits@D@std@@V?$allocator@D@2@@std@@@Z 10031e30 f   utils.obj
 0001:00030e60       __unwindfunclet$?TruncateSlashes@@YA?AV?$basic_string@DU?$char_traits@D@std@@V?$allocator@D@2@@std@@ABV12@@Z$0 10031e60 f   utils.obj
 0001:00030e60       __unwindfunclet$??$?HDU?$char_traits@D@std@@V?$allocator@D@1@@std@@YA?AV?$basic_string@DU?$char_traits@D@std@@V?$allocator@D@2@@0@PBDABV10@@Z$0 10031e60 f   utils.obj
 0001:00030e79       __ehhandler$?TruncateSlashes@@YA?AV?$basic_string@DU?$char_traits@D@std@@V?$allocator@D@2@@std@@ABV12@@Z 10031e79 f   utils.obj
 0001:00030e79       __ehhandler$??$?HDU?$char_traits@D@std@@V?$allocator@D@1@@std@@YA?AV?$basic_string@DU?$char_traits@D@std@@V?$allocator@D@2@@0@PBDABV10@@Z 10031e79 f   utils.obj
 0001:00030ea0       __unwindfunclet$??$_Uninit_def_fill_n@PAV?$basic_string@DU?$char_traits@D@std@@V?$allocator@D@2@@std@@IV12@V?$allocator@V?$basic_string@DU?$char_traits@D@std@@V?$allocator@D@2@@std@@@2@V12@@std@@YAXPAV?$basic_string@DU?$char_traits@D@std@@V?$allocator@D@2@@0@IPBV10@AAV?$allocator@V?$basic_string@DU?$char_traits@D@std@@V?$allocator@D@2@@std@@@0@0U_Nonscalar_ptr_iterator_tag@0@@Z$2 10031ea0 f   utils.obj
 0001:00030ea8       __unwindfunclet$??$_Uninit_def_fill_n@PAV?$basic_string@DU?$char_traits@D@std@@V?$allocator@D@2@@std@@IV12@V?$allocator@V?$basic_string@DU?$char_traits@D@std@@V?$allocator@D@2@@std@@@2@V12@@std@@YAXPAV?$basic_string@DU?$char_traits@D@std@@V?$allocator@D@2@@0@IPBV10@AAV?$allocator@V?$basic_string@DU?$char_traits@D@std@@V?$allocator@D@2@@std@@@0@0U_Nonscalar_ptr_iterator_tag@0@@Z$3 10031ea8 f   utils.obj
 0001:00030eb9       __ehhandler$??$_Uninit_def_fill_n@PAV?$basic_string@DU?$char_traits@D@std@@V?$allocator@D@2@@std@@IV12@V?$allocator@V?$basic_string@DU?$char_traits@D@std@@V?$allocator@D@2@@std@@@2@V12@@std@@YAXPAV?$basic_string@DU?$char_traits@D@std@@V?$allocator@D@2@@0@IPBV10@AAV?$allocator@V?$basic_string@DU?$char_traits@D@std@@V?$allocator@D@2@@std@@@0@0U_Nonscalar_ptr_iterator_tag@0@@Z 10031eb9 f   utils.obj
 0001:00030ee0       __unwindfunclet$?ParseConfig@@YAXXZ$0 10031ee0 f   utils.obj
 0001:00030ee0       __unwindfunclet$?FileExists@@YA_NABV?$basic_string@DU?$char_traits@D@std@@V?$allocator@D@2@@std@@@Z$0 10031ee0 f   utils.obj
 0001:00030eeb       __ehhandler$?FileExists@@YA_NABV?$basic_string@DU?$char_traits@D@std@@V?$allocator@D@2@@std@@@Z 10031eeb f   utils.obj
 0001:00030eeb       __ehhandler$?ParseConfig@@YAXXZ 10031eeb f   utils.obj
 0001:00030f10       __unwindfunclet$?ParseCommandLine@@YA?AV?$vector@V?$basic_string@DU?$char_traits@D@std@@V?$allocator@D@2@@std@@V?$allocator@V?$basic_string@DU?$char_traits@D@std@@V?$allocator@D@2@@std@@@2@@std@@V?$basic_string@DU?$char_traits@D@std@@V?$allocator@D@2@@2@@Z$0 10031f10 f   utils.obj
 0001:00030f18       __unwindfunclet$?ParseCommandLine@@YA?AV?$vector@V?$basic_string@DU?$char_traits@D@std@@V?$allocator@D@2@@std@@V?$allocator@V?$basic_string@DU?$char_traits@D@std@@V?$allocator@D@2@@std@@@2@@std@@V?$basic_string@DU?$char_traits@D@std@@V?$allocator@D@2@@2@@Z$1 10031f18 f   utils.obj
 0001:00030f20       __unwindfunclet$?ParseCommandLine@@YA?AV?$vector@V?$basic_string@DU?$char_traits@D@std@@V?$allocator@D@2@@std@@V?$allocator@V?$basic_string@DU?$char_traits@D@std@@V?$allocator@D@2@@std@@@2@@std@@V?$basic_string@DU?$char_traits@D@std@@V?$allocator@D@2@@2@@Z$2 10031f20 f   utils.obj
 0001:00030f28       __unwindfunclet$?ParseCommandLine@@YA?AV?$vector@V?$basic_string@DU?$char_traits@D@std@@V?$allocator@D@2@@std@@V?$allocator@V?$basic_string@DU?$char_traits@D@std@@V?$allocator@D@2@@std@@@2@@std@@V?$basic_string@DU?$char_traits@D@std@@V?$allocator@D@2@@2@@Z$3 10031f28 f   utils.obj
 0001:00030f33       __unwindfunclet$?ParseCommandLine@@YA?AV?$vector@V?$basic_string@DU?$char_traits@D@std@@V?$allocator@D@2@@std@@V?$allocator@V?$basic_string@DU?$char_traits@D@std@@V?$allocator@D@2@@std@@@2@@std@@V?$basic_string@DU?$char_traits@D@std@@V?$allocator@D@2@@2@@Z$5 10031f33 f   utils.obj
 0001:00030f3b       __unwindfunclet$?ParseCommandLine@@YA?AV?$vector@V?$basic_string@DU?$char_traits@D@std@@V?$allocator@D@2@@std@@V?$allocator@V?$basic_string@DU?$char_traits@D@std@@V?$allocator@D@2@@std@@@2@@std@@V?$basic_string@DU?$char_traits@D@std@@V?$allocator@D@2@@2@@Z$6 10031f3b f   utils.obj
 0001:00030f43       __ehhandler$?ParseCommandLine@@YA?AV?$vector@V?$basic_string@DU?$char_traits@D@std@@V?$allocator@D@2@@std@@V?$allocator@V?$basic_string@DU?$char_traits@D@std@@V?$allocator@D@2@@std@@@2@@std@@V?$basic_string@DU?$char_traits@D@std@@V?$allocator@D@2@@2@@Z 10031f43 f   utils.obj
 0001:00030f70       __unwindfunclet$?Explode@@YA?AV?$vector@V?$basic_string@DU?$char_traits@D@std@@V?$allocator@D@2@@std@@V?$allocator@V?$basic_string@DU?$char_traits@D@std@@V?$allocator@D@2@@std@@@2@@std@@ABV?$basic_string@DU?$char_traits@D@std@@V?$allocator@D@2@@2@0@Z$0 10031f70 f   utils.obj
 0001:00030f78       __unwindfunclet$?Explode@@YA?AV?$vector@V?$basic_string@DU?$char_traits@D@std@@V?$allocator@D@2@@std@@V?$allocator@V?$basic_string@DU?$char_traits@D@std@@V?$allocator@D@2@@std@@@2@@std@@ABV?$basic_string@DU?$char_traits@D@std@@V?$allocator@D@2@@2@0@Z$1 10031f78 f   utils.obj
 0001:00030f91       __ehhandler$?Explode@@YA?AV?$vector@V?$basic_string@DU?$char_traits@D@std@@V?$allocator@D@2@@std@@V?$allocator@V?$basic_string@DU?$char_traits@D@std@@V?$allocator@D@2@@std@@@2@@std@@ABV?$basic_string@DU?$char_traits@D@std@@V?$allocator@D@2@@2@0@Z 10031f91 f   utils.obj
 0001:00030fc0       __unwindfunclet$?get_res@@YGXPAH0@Z$1 10031fc0 f   video_init.obj
 0001:00030fcb       __ehhandler$?get_res@@YGXPAH0@Z 10031fcb f   video_init.obj
 0001:00031000       __unwindfunclet$?ProcessStatusLine@Response@happyhttp@@AAEXABV?$basic_string@DU?$char_traits@D@std@@V?$allocator@D@2@@std@@@Z$0 10032000 f   happyhttp.obj
 0001:00031008       __ehhandler$?ProcessStatusLine@Response@happyhttp@@AAEXABV?$basic_string@DU?$char_traits@D@std@@V?$allocator@D@2@@std@@@Z 10032008 f   happyhttp.obj
 0001:00031030       __unwindfunclet$??0Connection@happyhttp@@QAE@PBDH@Z$0 10032030 f   happyhttp.obj
 0001:0003103b       __unwindfunclet$??0Connection@happyhttp@@QAE@PBDH@Z$1 1003203b f   happyhttp.obj
 0001:00031046       __ehhandler$??0Connection@happyhttp@@QAE@PBDH@Z 10032046 f   happyhttp.obj
 0001:00031070       __unwindfunclet$??$_Buynode@U?$pair@$$CBV?$basic_string@DU?$char_traits@D@std@@V?$allocator@D@2@@std@@V12@@std@@@?$_Tree_val@V?$_Tmap_traits@V?$basic_string@DU?$char_traits@D@std@@V?$allocator@D@2@@std@@V12@U?$less@V?$basic_string@DU?$char_traits@D@std@@V?$allocator@D@2@@std@@@2@V?$allocator@U?$pair@$$CBV?$basic_string@DU?$char_traits@D@std@@V?$allocator@D@2@@std@@V12@@std@@@2@$0A@@std@@@std@@QAEPAU_Node@?$_Tree_nod@V?$_Tmap_traits@V?$basic_string@DU?$char_traits@D@std@@V?$allocator@D@2@@std@@V12@U?$less@V?$basic_string@DU?$char_traits@D@std@@V?$allocator@D@2@@std@@@2@V?$allocator@U?$pair@$$CBV?$basic_string@DU?$char_traits@D@std@@V?$allocator@D@2@@std@@V12@@std@@@2@$0A@@std@@@1@$$QAU?$pair@$$CBV?$basic_string@DU?$char_traits@D@std@@V?$allocator@D@2@@std@@V12@@1@@Z$2 10032070 f   happyhttp.obj
 0001:00031081       __unwindfunclet$??$_Buynode@U?$pair@$$CBV?$basic_string@DU?$char_traits@D@std@@V?$allocator@D@2@@std@@V12@@std@@@?$_Tree_val@V?$_Tmap_traits@V?$basic_string@DU?$char_traits@D@std@@V?$allocator@D@2@@std@@V12@U?$less@V?$basic_string@DU?$char_traits@D@std@@V?$allocator@D@2@@std@@@2@V?$allocator@U?$pair@$$CBV?$basic_string@DU?$char_traits@D@std@@V?$allocator@D@2@@std@@V12@@std@@@2@$0A@@std@@@std@@QAEPAU_Node@?$_Tree_nod@V?$_Tmap_traits@V?$basic_string@DU?$char_traits@D@std@@V?$allocator@D@2@@std@@V12@U?$less@V?$basic_string@DU?$char_traits@D@std@@V?$allocator@D@2@@std@@@2@V?$allocator@U?$pair@$$CBV?$basic_string@DU?$char_traits@D@std@@V?$allocator@D@2@@std@@V12@@std@@@2@$0A@@std@@@1@$$QAU?$pair@$$CBV?$basic_string@DU?$char_traits@D@std@@V?$allocator@D@2@@std@@V12@@1@@Z$4 10032081 f   happyhttp.obj
 0001:00031089       __ehhandler$??$_Buynode@U?$pair@$$CBV?$basic_string@DU?$char_traits@D@std@@V?$allocator@D@2@@std@@V12@@std@@@?$_Tree_val@V?$_Tmap_traits@V?$basic_string@DU?$char_traits@D@std@@V?$allocator@D@2@@std@@V12@U?$less@V?$basic_string@DU?$char_traits@D@std@@V?$allocator@D@2@@std@@@2@V?$allocator@U?$pair@$$CBV?$basic_string@DU?$char_traits@D@std@@V?$allocator@D@2@@std@@V12@@std@@@2@$0A@@std@@@std@@QAEPAU_Node@?$_Tree_nod@V?$_Tmap_traits@V?$basic_string@DU?$char_traits@D@std@@V?$allocator@D@2@@std@@V12@U?$less@V?$basic_string@DU?$char_traits@D@std@@V?$allocator@D@2@@std@@@2@V?$allocator@U?$pair@$$CBV?$basic_string@DU?$char_traits@D@std@@V?$allocator@D@2@@std@@V12@@std@@@2@$0A@@std@@@1@$$QAU?$pair@$$CBV?$basic_string@DU?$char_traits@D@std@@V?$allocator@D@2@@std@@V12@@1@@Z 10032089 f   happyhttp.obj
 0001:000310b0       __unwindfunclet$??1Response@happyhttp@@QAE@XZ$0 100320b0 f   happyhttp.obj
 0001:000310bb       __unwindfunclet$??1Response@happyhttp@@QAE@XZ$1 100320bb f   happyhttp.obj
 0001:000310c6       __unwindfunclet$??1Response@happyhttp@@QAE@XZ$2 100320c6 f   happyhttp.obj
 0001:000310d1       __unwindfunclet$??1Response@happyhttp@@QAE@XZ$7 100320d1 f   happyhttp.obj
 0001:000310d9       __ehhandler$??1Response@happyhttp@@QAE@XZ 100320d9 f   happyhttp.obj
 0001:00031100       __unwindfunclet$??0Response@happyhttp@@IAE@PBDAAVConnection@1@@Z$0 10032100 f   happyhttp.obj
 0001:0003110b       __unwindfunclet$??0Response@happyhttp@@IAE@PBDAAVConnection@1@@Z$1 1003210b f   happyhttp.obj
 0001:00031116       __unwindfunclet$??0Response@happyhttp@@IAE@PBDAAVConnection@1@@Z$2 10032116 f   happyhttp.obj
 0001:00031121       __ehhandler$??0Response@happyhttp@@IAE@PBDAAVConnection@1@@Z 10032121 f   happyhttp.obj
 0001:00031140       __unwindfunclet$??A?$map@V?$basic_string@DU?$char_traits@D@std@@V?$allocator@D@2@@std@@V12@U?$less@V?$basic_string@DU?$char_traits@D@std@@V?$allocator@D@2@@std@@@2@V?$allocator@U?$pair@$$CBV?$basic_string@DU?$char_traits@D@std@@V?$allocator@D@2@@std@@V12@@std@@@2@@std@@QAEAAV?$basic_string@DU?$char_traits@D@std@@V?$allocator@D@2@@1@ABV21@@Z$0 10032140 f   happyhttp.obj
 0001:00031148       __unwindfunclet$??A?$map@V?$basic_string@DU?$char_traits@D@std@@V?$allocator@D@2@@std@@V12@U?$less@V?$basic_string@DU?$char_traits@D@std@@V?$allocator@D@2@@std@@@2@V?$allocator@U?$pair@$$CBV?$basic_string@DU?$char_traits@D@std@@V?$allocator@D@2@@std@@V12@@std@@@2@@std@@QAEAAV?$basic_string@DU?$char_traits@D@std@@V?$allocator@D@2@@1@ABV21@@Z$3 10032148 f   happyhttp.obj
 0001:00031150       __unwindfunclet$??A?$map@V?$basic_string@DU?$char_traits@D@std@@V?$allocator@D@2@@std@@V12@U?$less@V?$basic_string@DU?$char_traits@D@std@@V?$allocator@D@2@@std@@@2@V?$allocator@U?$pair@$$CBV?$basic_string@DU?$char_traits@D@std@@V?$allocator@D@2@@std@@V12@@std@@@2@@std@@QAEAAV?$basic_string@DU?$char_traits@D@std@@V?$allocator@D@2@@1@ABV21@@Z$1 10032150 f   happyhttp.obj
 0001:00031158       __ehhandler$??A?$map@V?$basic_string@DU?$char_traits@D@std@@V?$allocator@D@2@@std@@V12@U?$less@V?$basic_string@DU?$char_traits@D@std@@V?$allocator@D@2@@std@@@2@V?$allocator@U?$pair@$$CBV?$basic_string@DU?$char_traits@D@std@@V?$allocator@D@2@@std@@V12@@std@@@2@@std@@QAEAAV?$basic_string@DU?$char_traits@D@std@@V?$allocator@D@2@@1@ABV21@@Z 10032158 f   happyhttp.obj
 0001:00031180       __unwindfunclet$?putheader@Connection@happyhttp@@QAEXPBD0@Z$0 10032180 f   happyhttp.obj
 0001:00031188       __unwindfunclet$?putheader@Connection@happyhttp@@QAEXPBD0@Z$1 10032188 f   happyhttp.obj
 0001:00031190       __unwindfunclet$?putheader@Connection@happyhttp@@QAEXPBD0@Z$2 10032190 f   happyhttp.obj
 0001:00031198       __unwindfunclet$?putheader@Connection@happyhttp@@QAEXPBD0@Z$3 10032198 f   happyhttp.obj
 0001:000311a0       __ehhandler$?putheader@Connection@happyhttp@@QAEXPBD0@Z 100321a0 f   happyhttp.obj
 0001:000311d0       __unwindfunclet$?endheaders@Connection@happyhttp@@QAEXXZ$0 100321d0 f   happyhttp.obj
 0001:000311d8       __unwindfunclet$?endheaders@Connection@happyhttp@@QAEXXZ$1 100321d8 f   happyhttp.obj
 0001:000311e0       __unwindfunclet$?endheaders@Connection@happyhttp@@QAEXXZ$2 100321e0 f   happyhttp.obj
 0001:000311e8       __ehhandler$?endheaders@Connection@happyhttp@@QAEXXZ 100321e8 f   happyhttp.obj
 0001:00031210       __unwindfunclet$?FlushHeader@Response@happyhttp@@AAEXXZ$0 10032210 f   happyhttp.obj
 0001:00031218       __unwindfunclet$?FlushHeader@Response@happyhttp@@AAEXXZ$1 10032218 f   happyhttp.obj
 0001:00031220       __ehhandler$?FlushHeader@Response@happyhttp@@AAEXXZ 10032220 f   happyhttp.obj
 0001:00031250       __unwindfunclet$??1Connection@happyhttp@@QAE@XZ$0 10032250 f   happyhttp.obj
 0001:0003125b       __unwindfunclet$??1Connection@happyhttp@@QAE@XZ$1 1003225b f   happyhttp.obj
 0001:00031266       __unwindfunclet$??1Connection@happyhttp@@QAE@XZ$2 10032266 f   happyhttp.obj
 0001:00031271       __ehhandler$??1Connection@happyhttp@@QAE@XZ 10032271 f   happyhttp.obj
 0001:00031290       __unwindfunclet$?putrequest@Connection@happyhttp@@QAEXPBD0@Z$0 10032290 f   happyhttp.obj
 0001:0003129b       __unwindfunclet$?putrequest@Connection@happyhttp@@QAEXPBD0@Z$1 1003229b f   happyhttp.obj
 0001:000312a9       __ehhandler$?putrequest@Connection@happyhttp@@QAEXPBD0@Z 100322a9 f   happyhttp.obj
 0001:000312d1       __unwindfunclet$?_Init@locale@std@@CAPAV_Locimp@12@XZ$0 100322d1 f   libcpmt:locale0.obj
 0001:000312d1       __unwindfunclet$??1_Fac_tidy_reg_t@std@@QAE@XZ$0 100322d1 f   libcpmt:locale0.obj
 0001:000312d1       __unwindfunclet$?_Locimp_dtor@_Locimp@locale@std@@CAXPAV123@@Z$0 100322d1 f   libcpmt:locale0.obj
 0001:000312d9       __ehhandler$?_Init@locale@std@@CAPAV_Locimp@12@XZ 100322d9 f   libcpmt:locale0.obj
 0001:000312d9       __ehhandler$?_Locimp_dtor@_Locimp@locale@std@@CAXPAV123@@Z 100322d9 f   libcpmt:locale0.obj
 0001:000312d9       __ehhandler$??1_Fac_tidy_reg_t@std@@QAE@XZ 100322d9 f   libcpmt:locale0.obj
 0001:000312f4       __unwindfunclet$??1_Locimp@locale@std@@MAE@XZ$0 100322f4 f   libcpmt:locale0.obj
 0001:000312fc       __unwindfunclet$??1_Locimp@locale@std@@MAE@XZ$1 100322fc f   libcpmt:locale0.obj
 0001:00031307       __ehhandler$??1_Locimp@locale@std@@MAE@XZ 10032307 f   libcpmt:locale0.obj
 0001:00031322       __ehhandler$?CallUnexpected@@YAXPBU_s_ESTypeList@@@Z 10032322 f   LIBCMT:frame.obj
 0001:00031340       ??__Estart_time@@YAXXZ     10032340 f   add_info.obj
 0001:00031360       ??__E__chat_history@@YAXXZ 10032360 f   chat_history.obj
 0001:00031370       ??__EAssocList@@YAXXZ      10032370 f   class_extend.obj
 0001:000313f0       ??__Ecurrent_directory@@YAXXZ 100323f0 f   config.obj
 0001:00031410       ??__Ed_strings@@YAXXZ      10032410 f   debug.obj
 0001:00031490       ??__ENames@@YAXXZ          10032490 f   debug.obj
 0001:00031510       ??__EArchives@@YAXXZ       10032510 f   File.obj
 0001:00031520       ??__ETiles@@YAXXZ          10032520 f   landscape_renderer.obj
 0001:00031550       ??__EcmdLine@@YAXXZ        10032550 f   network_hat_enter.obj
 0001:00031560       ??__Ematch@@YAXXZ          10032560 f   network_hat_enter.obj
 0001:00031570       ??__EhhC@@YAXXZ            10032570 f   network_protocol_ext.obj
 0001:00031590       ??__EScanrange@@YAXXZ      10032590 f   scanrange.obj
 0001:000315a0       ??__E_LOG_FILE@@YAXXZ      100325a0 f   utils.obj
 0001:000315c0       ??__E_LOG_NAME@@YAXXZ      100325c0 f   utils.obj
 0001:000315cc       ??__Einitlocks@std@@YAXXZ  100325cc f   libcpmt:xlock.obj
 0001:000315e2       ??__E_Fac_tidy_reg@std@@YAXXZ 100325e2 f   libcpmt:locale0.obj
 0001:000315ee       ??__Eclassic_locale@std@@YAXXZ 100325ee f   libcpmt:locale0.obj
 0001:000315fa       ??__E_Generic_object@std@@YAXXZ 100325fa f   libcpmt:syserror.obj
 0001:00031606       ??__E_Iostream_object@std@@YAXXZ 10032606 f   libcpmt:syserror.obj
 0001:00031612       ??__E_System_object@std@@YAXXZ 10032612 f   libcpmt:syserror.obj
 0001:0003161e       ??__Einitlocks@std@@YAXXZ  1003261e f   libcpmt:iosptrs.obj
 0001:00031634       ??__Einit_atexit@@YAXXZ    10032634 f   libcpmt:iosptrs.obj
 0001:00031640       ??__F__chat_history@@YAXXZ 10032640 f   chat_history.obj
 0001:000316a0       ??__FAssocList@@YAXXZ      100326a0 f   class_extend.obj
 0001:00031700       ??__Fcurrent_directory@@YAXXZ 10032700 f   config.obj
 0001:00031730       ??__Fd_strings@@YAXXZ      10032730 f   debug.obj
 0001:00031790       ??__FNames@@YAXXZ          10032790 f   debug.obj
 0001:000317f0       ??__Frec@?1??GetRecord@FileArchive@@QAEABURecord@1@V?$basic_string@DU?$char_traits@D@std@@V?$allocator@D@2@@std@@@Z@YAXXZ 100327f0 f   File.obj
 0001:000318d0       ??__FArchives@@YAXXZ       100328d0 f   File.obj
 0001:000319b0       ??__FcmdLine@@YAXXZ        100329b0 f   network_hat_enter.obj
 0001:000319e0       ??__Fmatch@@YAXXZ          100329e0 f   network_hat_enter.obj
 0001:00031a10       ??__FhhC@@YAXXZ            10032a10 f   network_protocol_ext.obj
 0001:00031a20       ??__F_LOG_NAME@@YAXXZ      10032a20 f   utils.obj
 0001:00031a50       ??__F_LOG_FILE@@YAXXZ      10032a50 f   utils.obj
 0001:00031a70       ??__Finitlocks@std@@YAXXZ  10032a70 f   libcpmt:xlock.obj
 0001:00031a7a       ??__Fclassic_locale@std@@YAXXZ 10032a7a f   libcpmt:locale0.obj
 0001:00031a84       ??__F_Fac_tidy_reg@std@@YAXXZ 10032a84 f   libcpmt:locale0.obj
 0001:00031a8e       ??__F_Generic_object@std@@YAXXZ 10032a8e f   libcpmt:syserror.obj
 0001:00031a99       ??__F_Iostream_object@std@@YAXXZ 10032a99 f   libcpmt:syserror.obj
 0001:00031aa4       ??__F_System_object@std@@YAXXZ 10032aa4 f   libcpmt:syserror.obj
 0001:00031aaf       ??__Finitlocks@std@@YAXXZ  10032aaf f   libcpmt:iosptrs.obj
 0001:00031ab9       ??__Finit_atexit@@YAXXZ    10032ab9 f   libcpmt:iosptrs.obj
 0001:00031ac3       ??__Fnomem@?5???2@YAPAXI@Z@YAXXZ 10032ac3 f   LIBCMT:new.obj

 Exports

  ordinal    name

        1    ?RES_loadFile@@YAHH@Z (int __cdecl RES_loadFile(int))
        2    ?FIL_patch0@@YAXXZ (void __cdecl FIL_patch0(void))
        3    ?FIL_patch1@@YAXXZ (void __cdecl FIL_patch1(void))
        4    ?FIL_world0@@YAXXZ (void __cdecl FIL_world0(void))
        5    ?FIL_world1@@YAXXZ (void __cdecl FIL_world1(void))
        6    ?FIL_world2@@YAXXZ (void __cdecl FIL_world2(void))
        7    ?FIL_world3@@YAXXZ (void __cdecl FIL_world3(void))
        8    ?FIL_world4@@YAXXZ (void __cdecl FIL_world4(void))
        9    ?FIL_world5@@YAXXZ (void __cdecl FIL_world5(void))
       10    ?FIL_world6@@YAXXZ (void __cdecl FIL_world6(void))
       11    ?FIL_world7@@YAXXZ (void __cdecl FIL_world7(void))
       12    ?FIL_world8@@YAXXZ (void __cdecl FIL_world8(void))
       13    ?FIL_world9@@YAXXZ (void __cdecl FIL_world9(void))
       14    ?FIL_worldA@@YAXXZ (void __cdecl FIL_worldA(void))
       15    ?NETPROTO_createAuthorizationPacket@@YAHXZ (int __cdecl NETPROTO_createAuthorizationPacket(void))
       16    ?NETPROTO_sendAuthorizationPacket@@YAHXZ (int __cdecl NETPROTO_sendAuthorizationPacket(void))
       17    ?VIDEO_checkVideoMode@@YAXXZ (void __cdecl VIDEO_checkVideoMode(void))
       18    ?NET_cryptPacket@@YAXPAEH@Z (void __cdecl NET_cryptPacket(unsigned char *,int))
       19    ?MAP_loadFromServer@@YAXXZ (void __cdecl MAP_loadFromServer(void))
       20    ?SYSTEM_setThreadPriority@@YAXXZ (void __cdecl SYSTEM_setThreadPriority(void))
       21    ?CHAT_tilde0@@YAXXZ (void __cdecl CHAT_tilde0(void))
       22    ?CHAT_tilde1@@YAXXZ (void __cdecl CHAT_tilde1(void))
       23    ?CHAT_tilde2@@YAXXZ (void __cdecl CHAT_tilde2(void))
       24    ?CHAT_wmCharHandler@@YAXXZ (void __cdecl CHAT_wmCharHandler(void))
       25    ?CHAT_convWinToDos@@YAXXZ (void __cdecl CHAT_convWinToDos(void))
       26    ?CHAT_convDosToIdx@@YAXXZ (void __cdecl CHAT_convDosToIdx(void))
       27    ?DBG_logStrings@@YAXXZ (void __cdecl DBG_logStrings(void))
       28    ?GUI_textField_MeasurePosition@@YGKK@Z (unsigned long __stdcall GUI_textField_MeasurePosition(unsigned long))
       29    ?CHAT_logStrings@@YAHPADHH@Z (int __cdecl CHAT_logStrings(char *,int,int))
       30    ?CHAT_keyDown@@YAXXZ (void __cdecl CHAT_keyDown(void))
       31    ?CHAT_getMessageLast@@YAXXZ (void __cdecl CHAT_getMessageLast(void))
       33    ?CRASH_fix_414994@@YAXXZ (void __cdecl CRASH_fix_414994(void))
       34    ?CRASH_fix_42353A@@YAXXZ (void __cdecl CRASH_fix_42353A(void))
       35    ?CRASH_fix_523295@@YAXXZ (void __cdecl CRASH_fix_523295(void))
       36    ?CRASH_fix_46AD10@@YAXXZ (void __cdecl CRASH_fix_46AD10(void))
       37    ?CRASH_fix_420450@@YAXXZ (void __cdecl CRASH_fix_420450(void))
       38    ?CRASH_fix_45FC3B@@YAXXZ (void __cdecl CRASH_fix_45FC3B(void))
       39    ?CRASH_fix_458CF9@@YAXXZ (void __cdecl CRASH_fix_458CF9(void))
       40    ?CRASH_fix_4657AD@@YAXXZ (void __cdecl CRASH_fix_4657AD(void))
       41    ?CRASH_fix_46B685@@YAXXZ (void __cdecl CRASH_fix_46B685(void))
       42    ?CRASH_fix_4BEE2D@@YAXXZ (void __cdecl CRASH_fix_4BEE2D(void))
       43    ?HATENT_url_text@@YAXXZ (void __cdecl HATENT_url_text(void))
       44    ?HATENT_url_connect@@YAXXZ (void __cdecl HATENT_url_connect(void))
       45    ?SCREENSHOT_take@@YAXXZ (void __cdecl SCREENSHOT_take(void))
       46    ?CRASH_fix_4AAB7E@@YAXXZ (void __cdecl CRASH_fix_4AAB7E(void))
       47    ?INFO_fps@@YAXXZ (void __cdecl INFO_fps(void))
       48    ?RES_loadDirectories@@YAXXZ (void __cdecl RES_loadDirectories(void))
       49    ?RES_loadException@@YAXXZ (void __cdecl RES_loadException(void))
       50    ?LANG_change_43EDEB@@YAXXZ (void __cdecl LANG_change_43EDEB(void))
       51    ?LANG_change_474F27@@YAXXZ (void __cdecl LANG_change_474F27(void))
       52    ?LANG_change_48626D@@YAXXZ (void __cdecl LANG_change_48626D(void))
       53    ?LANG_change_48BA07@@YAXXZ (void __cdecl LANG_change_48BA07(void))
       54    ?LANG_change_48CA55@@YAXXZ (void __cdecl LANG_change_48CA55(void))
       55    ?LANG_change_491CDF@@YAXXZ (void __cdecl LANG_change_491CDF(void))
       56    ?LANG_change_4939A2@@YAXXZ (void __cdecl LANG_change_4939A2(void))
       57    ?CRASH_fix_multiwindow_1@@YAXXZ (void __cdecl CRASH_fix_multiwindow_1(void))
       58    ?CRASH_fix_multiwindow_2@@YAXXZ (void __cdecl CRASH_fix_multiwindow_2(void))
       59    ?CRASH_fix_multiwindow_3@@YAXXZ (void __cdecl CRASH_fix_multiwindow_3(void))
       60    ?CRASH_fix_multiwindow_4@@YAXXZ (void __cdecl CRASH_fix_multiwindow_4(void))
       61    ?LANG_change_493B23@@YAXXZ (void __cdecl LANG_change_493B23(void))
       62    ?LANG_change_4B018F@@YAXXZ (void __cdecl LANG_change_4B018F(void))
       63    ?SCROLL_part1@@YAXXZ (void __cdecl SCROLL_part1(void))
       64    ?SCROLL_part2@@YAXXZ (void __cdecl SCROLL_part2(void))
       65    ?GRID_part1@@YAXXZ (void __cdecl GRID_part1(void))
       66    ?GRID_part2@@YAXXZ (void __cdecl GRID_part2(void))
       67    ?GRID_part3@@YAXXZ (void __cdecl GRID_part3(void))
       68    ?GRID_part4@@YAXXZ (void __cdecl GRID_part4(void))
       69    ?GRID_part5@@YAXXZ (void __cdecl GRID_part5(void))
       70    ?LANG_change_42B3D5@@YAXXZ (void __cdecl LANG_change_42B3D5(void))
       71    ?LANG_change_43EEC3@@YAXXZ (void __cdecl LANG_change_43EEC3(void))
       72    ?LANG_change_460F9B@@YAXXZ (void __cdecl LANG_change_460F9B(void))
       73    ?LANG_change_474375@@YAXXZ (void __cdecl LANG_change_474375(void))
       74    ?LANG_change_4743C9@@YAXXZ (void __cdecl LANG_change_4743C9(void))
       75    ?LANG_change_496638@@YAXXZ (void __cdecl LANG_change_496638(void))
       76    ?LANG_change_4AEE20@@YAXXZ (void __cdecl LANG_change_4AEE20(void))
       77    ?LANG_change_4AEE6D@@YAXXZ (void __cdecl LANG_change_4AEE6D(void))
       78    ?LANG_change_4AEF2A@@YAXXZ (void __cdecl LANG_change_4AEF2A(void))
       79    ?LANG_change_4AEF9C@@YAXXZ (void __cdecl LANG_change_4AEF9C(void))
       80    ?LANG_change_4AF00E@@YAXXZ (void __cdecl LANG_change_4AF00E(void))
       81    ?LANG_fix_codepage@@YAXXZ (void __cdecl LANG_fix_codepage(void))
       84    ?NETPROTO_loginToHat@@YGHXZ (int __stdcall NETPROTO_loginToHat(void))
       85    ?BASE_setCurrentDirectory1@@YGHPAD@Z (int __stdcall BASE_setCurrentDirectory1(char *))
       86    ?CHAT_prependType_part1@@YAXXZ (void __cdecl CHAT_prependType_part1(void))
       87    ?CHAT_prependType_part2@@YAXXZ (void __cdecl CHAT_prependType_part2(void))
       88    ?ADMINISTRAT@@YAXXZ (void __cdecl ADMINISTRAT(void))
       89    ?_fix_launcher@@YAXXZ (void __cdecl _fix_launcher(void))
       90    ?MAP_CFileOpen1@@YAXXZ (void __cdecl MAP_CFileOpen1(void))
       91    ?MAP_CFileOpen2@@YAXXZ (void __cdecl MAP_CFileOpen2(void))
       92    ?GUI_gmEnter@@YAXXZ (void __cdecl GUI_gmEnter(void))
       93    ?CalcVisMapCLIENT@@YGHPAD@Z (int __stdcall CalcVisMapCLIENT(char *))
       94    ?TILES_loadTiles@@YAXXZ (void __cdecl TILES_loadTiles(void))
       95    ?TILES_displayTile1@@YAXXZ (void __cdecl TILES_displayTile1(void))
       96    ?TILES_debug@@YAXXZ (void __cdecl TILES_debug(void))
       97    ?recv_@@YGHIPADHH@Z (int __stdcall recv_(unsigned int,char *,int,int))
       98    ?CHAT_fixEscape@@YAXXZ (void __cdecl CHAT_fixEscape(void))
       99    ?CHAT_dbg@@YAXXZ (void __cdecl CHAT_dbg(void))
      100    ?NETPROTO_enlargeBuffer@@YAXXZ (void __cdecl NETPROTO_enlargeBuffer(void))
      101    ?NETPROTO_enlargeBuffer2@@YAXXZ (void __cdecl NETPROTO_enlargeBuffer2(void))
      102    ?ITEMPNG_loadPng@@YAXXZ (void __cdecl ITEMPNG_loadPng(void))
      103    ?ITEMPNG_loadPngChar@@YAXXZ (void __cdecl ITEMPNG_loadPngChar(void))
      104    ?GUI_softcoreSwitch@@YAXXZ (void __cdecl GUI_softcoreSwitch(void))
      105    ?GUI_softcoreResetSwitch@@YAXXZ (void __cdecl GUI_softcoreResetSwitch(void))
      106    ?GUI_softcoreSaveSwitch@@YAXXZ (void __cdecl GUI_softcoreSaveSwitch(void))
      300    ?DBG_load256@@YAXXZ (void __cdecl DBG_load256(void))
               exported name: DBG_load256
      301    ?DBG_disp256@@YAXXZ (void __cdecl DBG_disp256(void))
               exported name: DBG_disp256
      302    ?DBG_di2p256@@YAXXZ (void __cdecl DBG_di2p256(void))
               exported name: DBG_di2p256
      303    ?DBG_di3p256@@YAXXZ (void __cdecl DBG_di3p256(void))
               exported name: DBG_di3p256
      304    ?DBG_decideState@@YAXXZ (void __cdecl DBG_decideState(void))
               exported name: DBG_decideState
