 a2mgr

 Timestamp is 52626130 (Sat Oct 19 13:38:40 2013)

 Preferred load address is 10000000

 Start         Length     Name                   Class
 0001:00000000 0003331aH .text                   CODE
 0001:00033320 000019f6H .text$x                 CODE
 0001:00034d20 00000200H .text$yc                CODE
 0001:00034f20 000001fcH .text$yd                CODE
 0002:00000000 00000274H .idata$5                DATA
 0002:00000274 00000004H .CRT$XCA                DATA
 0002:00000278 0000000cH .CRT$XCC                DATA
 0002:00000284 00000030H .CRT$XCU                DATA
 0002:000002b4 00000004H .CRT$XCZ                DATA
 0002:000002b8 00000004H .CRT$XIA                DATA
 0002:000002bc 00000014H .CRT$XIC                DATA
 0002:000002d0 00000004H .CRT$XIY                DATA
 0002:000002d4 00000004H .CRT$XIZ                DATA
 0002:000002d8 00000004H .CRT$XPA                DATA
 0002:000002dc 00000004H .CRT$XPX                DATA
 0002:000002e0 00000004H .CRT$XPXA               DATA
 0002:000002e4 00000004H .CRT$XPZ                DATA
 0002:000002e8 00000004H .CRT$XTA                DATA
 0002:000002ec 00000004H .CRT$XTB                DATA
 0002:000002f0 00000004H .CRT$XTZ                DATA
 0002:00000300 000041f8H .rdata                  DATA
 0002:000044f8 000007ccH .rdata$r                DATA
 0002:00004cd0 000001c8H .rdata$sxdata           DATA
 0002:00004e98 00000004H .rtc$IAA                DATA
 0002:00004e9c 00000004H .rtc$IZZ                DATA
 0002:00004ea0 00000004H .rtc$TAA                DATA
 0002:00004ea4 00000004H .rtc$TZZ                DATA
 0002:00004ea8 0000264cH .xdata$x                DATA
 0002:000074f4 000000a0H .idata$2                DATA
 0002:00007594 00000014H .idata$3                DATA
 0002:000075a8 00000274H .idata$4                DATA
 0002:0000781c 00000a12H .idata$6                DATA
 0002:00008230 00000550H .edata                  DATA
 0003:00000000 00001bd8H .data                   DATA
 0003:00001be0 00016ac4H .bss                    DATA

  Address         Publics by Value              Rva+Base       Lib:Object

 0000:00000000       __except_list              00000000     <absolute>
 0000:00000072       ___safe_se_handler_count   00000072     <absolute>
 0000:00000000       ___ImageBase               10000000     <linker-defined>
 0001:00000000       ??1bad_alloc@std@@UAE@XZ   10001000 f i a2mgr.obj
 0001:00000010       ??_Ebad_alloc@std@@UAEPAXI@Z 10001010 f i a2mgr.obj
 0001:00000010       ??_Gbad_alloc@std@@UAEPAXI@Z 10001010 f i a2mgr.obj
 0001:00000040       ?compare@?$char_traits@D@std@@SAHPBD0I@Z 10001040 f i a2mgr.obj
 0001:000000d0       ?_fix_launcher@@YAXXZ      100010d0 f   a2mgr.obj
 0001:000000f0       ?_Myptr@?$basic_string@DU?$char_traits@D@std@@V?$allocator@D@2@@std@@IBEPBDXZ 100010f0 f i a2mgr.obj
 0001:00000100       ??$_Allocate@E@std@@YAPAEIPAE@Z 10001100 f i serialize.obj
 0001:00000100       ??$_Allocate@D@std@@YAPADIPAD@Z 10001100 f i a2mgr.obj
 0001:00000160       ??0bad_alloc@std@@QAE@ABV01@@Z 10001160 f i a2mgr.obj
 0001:00000180       ?find_last_of@?$basic_string@DU?$char_traits@D@std@@V?$allocator@D@2@@std@@QBEIPBDII@Z 10001180 f i a2mgr.obj
 0001:00000230       ?compare@?$basic_string@DU?$char_traits@D@std@@V?$allocator@D@2@@std@@QBEHIIPBDI@Z 10001230 f i a2mgr.obj
 0001:000002a0       ?erase@?$basic_string@DU?$char_traits@D@std@@V?$allocator@D@2@@std@@QAEAAV12@II@Z 100012a0 f i a2mgr.obj
 0001:00000330       ?_Tidy@?$basic_string@DU?$char_traits@D@std@@V?$allocator@D@2@@std@@IAEX_NI@Z 10001330 f i a2mgr.obj
 0001:00000380       ?_Copy@?$basic_string@DU?$char_traits@D@std@@V?$allocator@D@2@@std@@IAEXII@Z 10001380 f i a2mgr.obj
 0001:000004d0       ??1?$basic_string@DU?$char_traits@D@std@@V?$allocator@D@2@@std@@QAE@XZ 100014d0 f i a2mgr.obj
 0001:00000500       ?assign@?$basic_string@DU?$char_traits@D@std@@V?$allocator@D@2@@std@@QAEAAV12@ABV12@II@Z 10001500 f i a2mgr.obj
 0001:000005e0       ?append@?$basic_string@DU?$char_traits@D@std@@V?$allocator@D@2@@std@@QAEAAV12@ABV12@II@Z 100015e0 f i a2mgr.obj
 0001:000006e0       ?append@?$basic_string@DU?$char_traits@D@std@@V?$allocator@D@2@@std@@QAEAAV12@PBDI@Z 100016e0 f i a2mgr.obj
 0001:000007d0       ?assign@?$basic_string@DU?$char_traits@D@std@@V?$allocator@D@2@@std@@QAEAAV12@PBDI@Z 100017d0 f i a2mgr.obj
 0001:000008a0       ??0?$basic_string@DU?$char_traits@D@std@@V?$allocator@D@2@@std@@QAE@PBD@Z 100018a0 f i a2mgr.obj
 0001:000008e0       ??4?$basic_string@DU?$char_traits@D@std@@V?$allocator@D@2@@std@@QAEAAV01@PBD@Z 100018e0 f i a2mgr.obj
 0001:000008e0       ?assign@?$basic_string@DU?$char_traits@D@std@@V?$allocator@D@2@@std@@QAEAAV12@PBD@Z 100018e0 f i a2mgr.obj
 0001:00000910       ??$?HDU?$char_traits@D@std@@V?$allocator@D@1@@std@@YA?AV?$basic_string@DU?$char_traits@D@std@@V?$allocator@D@2@@0@ABV10@PBD@Z 10001910 f i a2mgr.obj
 0001:000009d0       ?BASE_setCurrentDirectory1@@YGHPAD@Z 100019d0 f   a2mgr.obj
 0001:00000ac0       ?DllMain_Init@@YG_NPAUHINSTANCE__@@KPAX@Z 10001ac0 f   a2mgr.obj
 0001:00001670       _DllMain@12                10002670 f   a2mgr.obj
 0001:000016e0       ?ConsoleProc@@YG_NEH@Z     100026e0 f   add_info.obj
 0001:00001730       ?FpsImpl@@YGXKPAUtagRECT@@@Z 10002730 f   add_info.obj
 0001:00001930       ?INFO_fps@@YAXXZ           10002930 f   add_info.obj
 0001:00001950       ?GetFirstName@@YGPADK@Z    10002950 f   administrat_fix.obj
 0001:000019c0       ?GetSecondName@@YGPADK@Z   100029c0 f   administrat_fix.obj
 0001:00001a30       ?CheckNickname@@YG_NK@Z    10002a30 f   administrat_fix.obj
 0001:00001a90       ?ADMINISTRAT@@YAXXZ        10002a90 f   administrat_fix.obj
 0001:00001b40       ?CHAT_wmCharHandler@@YAXXZ 10002b40 f   chat.obj
 0001:00001b70       ?conv_double_tilde@@YGPADPAD@Z 10002b70 f   chat.obj
 0001:00001bb0       ?CHAT_tilde0@@YAXXZ        10002bb0 f   chat.obj
 0001:00001bc0       ?CHAT_tilde1@@YAXXZ        10002bc0 f   chat.obj
 0001:00001bd0       ?CHAT_tilde2@@YAXXZ        10002bd0 f   chat.obj
 0001:00001be0       ?CHAT_convWinToDos@@YAXXZ  10002be0 f   chat.obj
 0001:00001c20       ?CHAT_convDosToIdx@@YAXXZ  10002c20 f   chat.obj
 0001:00001c60       ?CHAT_logStrings@@YAHPADHH@Z 10002c60 f   chat.obj
 0001:00001ca0       ?chatAddStringCpp@@YGPADPADH@Z 10002ca0 f   chat.obj
 0001:00001dc0       ?CHAT_prependType_part1@@YAXXZ 10002dc0 f   chat.obj
 0001:00001df0       ?CHAT_prependType_part2@@YAXXZ 10002df0 f   chat.obj
 0001:00001e20       ?CCMD_processCommand@@YAXPBD@Z 10002e20 f i client_cmd.obj
 0001:00001e20       ?TILES_debug@@YAXXZ        10002e20 f i landscape_renderer.obj
 0001:00001e20       ??3@YAXPAX0@Z              10002e20 f i chat_history.obj
 0001:00001e20       ?IdleProcessing@CWindow@GUI@zxmgr@@SAXXZ 10002e20 f i zxmgr_gui.obj
 0001:00001e30       ?str_empty@@YAXPAPAD@Z     10002e30 f   chat_history.obj
 0001:00001e50       ?str_assign@@YAXPAPADPBD@Z 10002e50 f   chat_history.obj
 0001:00001e70       ?str_array_resize@@YAXPADK@Z 10002e70 f   chat_history.obj
 0001:00001e90       ?consoleTab@@YGXPAX@Z      10002e90 f   chat_history.obj
 0001:00001e90       ?imbue@?$basic_streambuf@DU?$char_traits@D@std@@@std@@MAEXABVlocale@2@@Z 10002e90 f   config.obj
 0001:00001ea0       ?logOpen@@YGXK@Z           10002ea0 f   chat_history.obj
 0001:00001ec0       ?CHAT_fixEscape@@YAXXZ     10002ec0 f   chat_history.obj
 0001:00001f40       ?CHAT_dbg@@YAXXZ           10002f40 f   chat_history.obj
 0001:00001f60       ?size@?$vector@V?$basic_string@DU?$char_traits@D@std@@V?$allocator@D@2@@std@@V?$allocator@V?$basic_string@DU?$char_traits@D@std@@V?$allocator@D@2@@std@@@2@@std@@QBEIXZ 10002f60 f i chat_history.obj
 0001:00001f90       ??A?$vector@V?$basic_string@DU?$char_traits@D@std@@V?$allocator@D@2@@std@@V?$allocator@V?$basic_string@DU?$char_traits@D@std@@V?$allocator@D@2@@std@@@2@@std@@QAEAAV?$basic_string@DU?$char_traits@D@std@@V?$allocator@D@2@@1@I@Z 10002f90 f i chat_history.obj
 0001:00001fe0       ??$_Allocate@V?$vector@V?$basic_string@DU?$char_traits@D@std@@V?$allocator@D@2@@std@@V?$allocator@V?$basic_string@DU?$char_traits@D@std@@V?$allocator@D@2@@std@@@2@@std@@@std@@YAPAV?$vector@V?$basic_string@DU?$char_traits@D@std@@V?$allocator@D@2@@std@@V?$allocator@V?$basic_string@DU?$char_traits@D@std@@V?$allocator@D@2@@std@@@2@@0@IPAV10@@Z 10002fe0 f i chat_history.obj
 0001:00002040       ??$_Allocate@V?$basic_string@DU?$char_traits@D@std@@V?$allocator@D@2@@std@@@std@@YAPAV?$basic_string@DU?$char_traits@D@std@@V?$allocator@D@2@@0@IPAV10@@Z 10003040 f i chat_history.obj
 0001:000020b0       ?setString@@YAKPAD@Z       100030b0 f   chat_history.obj
 0001:00002250       ?consoleDown@@YGKPAD@Z     10003250 f   chat_history.obj
 0001:000022b0       ?consoleUp@@YGKPAD@Z       100032b0 f   chat_history.obj
 0001:000022f0       ??_Eout_of_range@std@@UAEPAXI@Z 100032f0 f i class_extend.obj
 0001:000022f0       ??_Gout_of_range@std@@UAEPAXI@Z 100032f0 f i class_extend.obj
 0001:000022f0       ??_Glength_error@std@@UAEPAXI@Z 100032f0 f i chat_history.obj
 0001:000022f0       ??_Elength_error@std@@UAEPAXI@Z 100032f0 f i chat_history.obj
 0001:000022f0       ??_Elogic_error@std@@UAEPAXI@Z 100032f0 f i chat_history.obj
 0001:000022f0       ??_Glogic_error@std@@UAEPAXI@Z 100032f0 f i chat_history.obj
 0001:00002340       ?destroy@?$allocator@V?$basic_string@DU?$char_traits@D@std@@V?$allocator@D@2@@std@@@std@@QAEXPAV?$basic_string@DU?$char_traits@D@std@@V?$allocator@D@2@@2@@Z 10003340 f i chat_history.obj
 0001:00002370       ??$_Copy_opt@PAV?$basic_string@DU?$char_traits@D@std@@V?$allocator@D@2@@std@@PAV12@Uforward_iterator_tag@2@@std@@YAPAV?$basic_string@DU?$char_traits@D@std@@V?$allocator@D@2@@0@PAV10@00Uforward_iterator_tag@0@U_Nonscalar_ptr_iterator_tag@0@U_Range_checked_iterator_tag@0@@Z 10003370 f i chat_history.obj
 0001:000023b0       ??0logic_error@std@@QAE@ABV?$basic_string@DU?$char_traits@D@std@@V?$allocator@D@2@@1@@Z 100033b0 f i chat_history.obj
 0001:00002420       ??1out_of_range@std@@UAE@XZ 10003420 f i class_extend.obj
 0001:00002420       ??1length_error@std@@UAE@XZ 10003420 f i chat_history.obj
 0001:00002460       ??0logic_error@std@@QAE@ABV01@@Z 10003460 f i chat_history.obj
 0001:000024e0       ??0length_error@std@@QAE@ABV01@@Z 100034e0 f i chat_history.obj
 0001:00002500       ??$_Destroy_range@V?$basic_string@DU?$char_traits@D@std@@V?$allocator@D@2@@std@@V?$allocator@V?$basic_string@DU?$char_traits@D@std@@V?$allocator@D@2@@std@@@2@@std@@YAXPAV?$basic_string@DU?$char_traits@D@std@@V?$allocator@D@2@@0@0AAV?$allocator@V?$basic_string@DU?$char_traits@D@std@@V?$allocator@D@2@@std@@@0@U_Nonscalar_ptr_iterator_tag@0@@Z 10003500 f i chat_history.obj
 0001:00002540       ??$_Uninit_copy@PBV?$basic_string@DU?$char_traits@D@std@@V?$allocator@D@2@@std@@PAV12@V?$allocator@V?$basic_string@DU?$char_traits@D@std@@V?$allocator@D@2@@std@@@2@@std@@YAPAV?$basic_string@DU?$char_traits@D@std@@V?$allocator@D@2@@0@PBV10@0PAV10@AAV?$allocator@V?$basic_string@DU?$char_traits@D@std@@V?$allocator@D@2@@std@@@0@U_Nonscalar_ptr_iterator_tag@0@U_Range_checked_iterator_tag@0@@Z 10003540 f i chat_history.obj
 0001:00002540       ??$_Uninit_copy@PAV?$basic_string@DU?$char_traits@D@std@@V?$allocator@D@2@@std@@PAV12@V?$allocator@V?$basic_string@DU?$char_traits@D@std@@V?$allocator@D@2@@std@@@2@@std@@YAPAV?$basic_string@DU?$char_traits@D@std@@V?$allocator@D@2@@0@PAV10@00AAV?$allocator@V?$basic_string@DU?$char_traits@D@std@@V?$allocator@D@2@@std@@@0@U_Nonscalar_ptr_iterator_tag@0@U_Range_checked_iterator_tag@0@@Z 10003540 f i chat_history.obj
 0001:00002600       ??$_Copy_opt@PAV?$basic_string@DU?$char_traits@D@std@@V?$allocator@D@2@@std@@PAV12@@std@@YAPAV?$basic_string@DU?$char_traits@D@std@@V?$allocator@D@2@@0@PAV10@00Urandom_access_iterator_tag@0@U_Nonscalar_ptr_iterator_tag@0@U_Range_checked_iterator_tag@0@@Z 10003600 f i chat_history.obj
 0001:00002660       ?_Buy@?$vector@V?$basic_string@DU?$char_traits@D@std@@V?$allocator@D@2@@std@@V?$allocator@V?$basic_string@DU?$char_traits@D@std@@V?$allocator@D@2@@std@@@2@@std@@IAE_NI@Z 10003660 f i chat_history.obj
 0001:000026c0       ??$fill@PAV?$basic_string@DU?$char_traits@D@std@@V?$allocator@D@2@@std@@V12@@std@@YAXPAV?$basic_string@DU?$char_traits@D@std@@V?$allocator@D@2@@0@0ABV10@@Z 100036c0 f i chat_history.obj
 0001:000026f0       ??$_Uninit_fill_n@PAV?$basic_string@DU?$char_traits@D@std@@V?$allocator@D@2@@std@@IV12@V?$allocator@V?$basic_string@DU?$char_traits@D@std@@V?$allocator@D@2@@std@@@2@@std@@YAXPAV?$basic_string@DU?$char_traits@D@std@@V?$allocator@D@2@@0@IABV10@AAV?$allocator@V?$basic_string@DU?$char_traits@D@std@@V?$allocator@D@2@@std@@@0@U_Nonscalar_ptr_iterator_tag@0@U_Range_checked_iterator_tag@0@@Z 100036f0 f i chat_history.obj
 0001:000027b0       ??$_Uninit_move@PAV?$basic_string@DU?$char_traits@D@std@@V?$allocator@D@2@@std@@PAV12@V?$allocator@V?$basic_string@DU?$char_traits@D@std@@V?$allocator@D@2@@std@@@2@@std@@YAPAV?$basic_string@DU?$char_traits@D@std@@V?$allocator@D@2@@0@PAV10@00AAV?$allocator@V?$basic_string@DU?$char_traits@D@std@@V?$allocator@D@2@@std@@@0@U_Swap_move_tag@0@U_Range_checked_iterator_tag@0@@Z 100037b0 f i chat_history.obj
 0001:000028f0       ??$_Move_backward_opt@PAV?$basic_string@DU?$char_traits@D@std@@V?$allocator@D@2@@std@@PAV12@Uforward_iterator_tag@2@@std@@YAPAV?$basic_string@DU?$char_traits@D@std@@V?$allocator@D@2@@0@PAV10@00Uforward_iterator_tag@0@U_Swap_move_tag@0@U_Range_checked_iterator_tag@0@@Z 100038f0 f i chat_history.obj
 0001:00002980       ??$unchecked_copy@PAV?$basic_string@DU?$char_traits@D@std@@V?$allocator@D@2@@std@@PAV12@@stdext@@YAPAV?$basic_string@DU?$char_traits@D@std@@V?$allocator@D@2@@std@@PAV12@00@Z 10003980 f i chat_history.obj
 0001:000029b0       ?_Destroy@?$vector@V?$basic_string@DU?$char_traits@D@std@@V?$allocator@D@2@@std@@V?$allocator@V?$basic_string@DU?$char_traits@D@std@@V?$allocator@D@2@@std@@@2@@std@@IAEXPAV?$basic_string@DU?$char_traits@D@std@@V?$allocator@D@2@@2@0@Z 100039b0 f i chat_history.obj
 0001:000029d0       ??$_Move_backward_opt@PAV?$basic_string@DU?$char_traits@D@std@@V?$allocator@D@2@@std@@PAV12@@std@@YAPAV?$basic_string@DU?$char_traits@D@std@@V?$allocator@D@2@@0@PAV10@00Urandom_access_iterator_tag@0@U_Swap_move_tag@0@U_Range_checked_iterator_tag@0@@Z 100039d0 f i chat_history.obj
 0001:00002a30       ?erase@?$vector@V?$basic_string@DU?$char_traits@D@std@@V?$allocator@D@2@@std@@V?$allocator@V?$basic_string@DU?$char_traits@D@std@@V?$allocator@D@2@@std@@@2@@std@@QAE?AV?$_Vector_iterator@V?$basic_string@DU?$char_traits@D@std@@V?$allocator@D@2@@std@@V?$allocator@V?$basic_string@DU?$char_traits@D@std@@V?$allocator@D@2@@std@@@2@@2@V32@0@Z 10003a30 f i chat_history.obj
 0001:00002aa0       ??$_Ucopy@PAV?$basic_string@DU?$char_traits@D@std@@V?$allocator@D@2@@std@@@?$vector@V?$basic_string@DU?$char_traits@D@std@@V?$allocator@D@2@@std@@V?$allocator@V?$basic_string@DU?$char_traits@D@std@@V?$allocator@D@2@@std@@@2@@std@@IAEPAV?$basic_string@DU?$char_traits@D@std@@V?$allocator@D@2@@1@PAV21@00@Z 10003aa0 f i chat_history.obj
 0001:00002ad0       ??1?$vector@V?$basic_string@DU?$char_traits@D@std@@V?$allocator@D@2@@std@@V?$allocator@V?$basic_string@DU?$char_traits@D@std@@V?$allocator@D@2@@std@@@2@@std@@QAE@XZ 10003ad0 f i chat_history.obj
 0001:00002ad0       ?_Tidy@?$vector@V?$basic_string@DU?$char_traits@D@std@@V?$allocator@D@2@@std@@V?$allocator@V?$basic_string@DU?$char_traits@D@std@@V?$allocator@D@2@@std@@@2@@std@@IAEXXZ 10003ad0 f i chat_history.obj
 0001:00002b10       ?_Ufill@?$vector@V?$basic_string@DU?$char_traits@D@std@@V?$allocator@D@2@@std@@V?$allocator@V?$basic_string@DU?$char_traits@D@std@@V?$allocator@D@2@@std@@@2@@std@@IAEPAV?$basic_string@DU?$char_traits@D@std@@V?$allocator@D@2@@2@PAV32@IABV32@@Z 10003b10 f i chat_history.obj
 0001:00002b50       ??$_Umove@PAV?$basic_string@DU?$char_traits@D@std@@V?$allocator@D@2@@std@@@?$vector@V?$basic_string@DU?$char_traits@D@std@@V?$allocator@D@2@@std@@V?$allocator@V?$basic_string@DU?$char_traits@D@std@@V?$allocator@D@2@@std@@@2@@std@@IAEPAV?$basic_string@DU?$char_traits@D@std@@V?$allocator@D@2@@1@PAV21@00@Z 10003b50 f i chat_history.obj
 0001:00002b80       ??$_Unchecked_move_backward@PAV?$basic_string@DU?$char_traits@D@std@@V?$allocator@D@2@@std@@PAV12@@stdext@@YAPAV?$basic_string@DU?$char_traits@D@std@@V?$allocator@D@2@@std@@PAV12@00@Z 10003b80 f i chat_history.obj
 0001:00002bb0       ?clear@?$vector@V?$basic_string@DU?$char_traits@D@std@@V?$allocator@D@2@@std@@V?$allocator@V?$basic_string@DU?$char_traits@D@std@@V?$allocator@D@2@@std@@@2@@std@@QAEXXZ 10003bb0 f i chat_history.obj
 0001:00002bf0       ??0?$vector@V?$basic_string@DU?$char_traits@D@std@@V?$allocator@D@2@@std@@V?$allocator@V?$basic_string@DU?$char_traits@D@std@@V?$allocator@D@2@@std@@@2@@std@@QAE@ABV01@@Z 10003bf0 f i chat_history.obj
 0001:00002cc0       ?_Insert_n@?$vector@V?$basic_string@DU?$char_traits@D@std@@V?$allocator@D@2@@std@@V?$allocator@V?$basic_string@DU?$char_traits@D@std@@V?$allocator@D@2@@std@@@2@@std@@IAEXV?$_Vector_iterator@V?$basic_string@DU?$char_traits@D@std@@V?$allocator@D@2@@std@@V?$allocator@V?$basic_string@DU?$char_traits@D@std@@V?$allocator@D@2@@std@@@2@@2@IABV?$basic_string@DU?$char_traits@D@std@@V?$allocator@D@2@@2@@Z 10003cc0 f i chat_history.obj
 0001:00003020       ??4?$vector@V?$basic_string@DU?$char_traits@D@std@@V?$allocator@D@2@@std@@V?$allocator@V?$basic_string@DU?$char_traits@D@std@@V?$allocator@D@2@@std@@@2@@std@@QAEAAV01@ABV01@@Z 10004020 f i chat_history.obj
 0001:000031d0       ?getStringLastT@@YG?AV?$basic_string@DU?$char_traits@D@std@@V?$allocator@D@2@@std@@XZ 100041d0 f   chat_history.obj
 0001:000032f0       ?getStringLast@@YGXPAPAD@Z 100042f0 f   chat_history.obj
 0001:000033b0       ?CHAT_getMessageLast@@YAXXZ 100043b0 f   chat_history.obj
 0001:000033c0       ?insert@?$vector@V?$basic_string@DU?$char_traits@D@std@@V?$allocator@D@2@@std@@V?$allocator@V?$basic_string@DU?$char_traits@D@std@@V?$allocator@D@2@@std@@@2@@std@@QAE?AV?$_Vector_iterator@V?$basic_string@DU?$char_traits@D@std@@V?$allocator@D@2@@std@@V?$allocator@V?$basic_string@DU?$char_traits@D@std@@V?$allocator@D@2@@std@@@2@@2@V32@ABV?$basic_string@DU?$char_traits@D@std@@V?$allocator@D@2@@2@@Z 100043c0 f i chat_history.obj
 0001:00003480       ?push_back@?$vector@V?$basic_string@DU?$char_traits@D@std@@V?$allocator@D@2@@std@@V?$allocator@V?$basic_string@DU?$char_traits@D@std@@V?$allocator@D@2@@std@@@2@@std@@QAEXABV?$basic_string@DU?$char_traits@D@std@@V?$allocator@D@2@@2@@Z 10004480 f i chat_history.obj
 0001:00003530       ??$fill@PAV?$vector@V?$basic_string@DU?$char_traits@D@std@@V?$allocator@D@2@@std@@V?$allocator@V?$basic_string@DU?$char_traits@D@std@@V?$allocator@D@2@@std@@@2@@std@@V12@@std@@YAXPAV?$vector@V?$basic_string@DU?$char_traits@D@std@@V?$allocator@D@2@@std@@V?$allocator@V?$basic_string@DU?$char_traits@D@std@@V?$allocator@D@2@@std@@@2@@0@0ABV10@@Z 10004530 f i chat_history.obj
 0001:00003560       ?destroy@?$allocator@V?$vector@V?$basic_string@DU?$char_traits@D@std@@V?$allocator@D@2@@std@@V?$allocator@V?$basic_string@DU?$char_traits@D@std@@V?$allocator@D@2@@std@@@2@@std@@@std@@QAEXPAV?$vector@V?$basic_string@DU?$char_traits@D@std@@V?$allocator@D@2@@std@@V?$allocator@V?$basic_string@DU?$char_traits@D@std@@V?$allocator@D@2@@std@@@2@@2@@Z 10004560 f i chat_history.obj
 0001:000035b0       ??$_Uninit_move@PAV?$vector@V?$basic_string@DU?$char_traits@D@std@@V?$allocator@D@2@@std@@V?$allocator@V?$basic_string@DU?$char_traits@D@std@@V?$allocator@D@2@@std@@@2@@std@@PAV12@V?$allocator@V?$vector@V?$basic_string@DU?$char_traits@D@std@@V?$allocator@D@2@@std@@V?$allocator@V?$basic_string@DU?$char_traits@D@std@@V?$allocator@D@2@@std@@@2@@std@@@2@@std@@YAPAV?$vector@V?$basic_string@DU?$char_traits@D@std@@V?$allocator@D@2@@std@@V?$allocator@V?$basic_string@DU?$char_traits@D@std@@V?$allocator@D@2@@std@@@2@@0@PAV10@00AAV?$allocator@V?$vector@V?$basic_string@DU?$char_traits@D@std@@V?$allocator@D@2@@std@@V?$allocator@V?$basic_string@DU?$char_traits@D@std@@V?$allocator@D@2@@std@@@2@@std@@@0@U_Swap_move_tag@0@U_Range_checked_iterator_tag@0@@Z 100045b0 f i chat_history.obj
 0001:000036b0       ??$_Move_backward_opt@PAV?$vector@V?$basic_string@DU?$char_traits@D@std@@V?$allocator@D@2@@std@@V?$allocator@V?$basic_string@DU?$char_traits@D@std@@V?$allocator@D@2@@std@@@2@@std@@PAV12@Uforward_iterator_tag@2@@std@@YAPAV?$vector@V?$basic_string@DU?$char_traits@D@std@@V?$allocator@D@2@@std@@V?$allocator@V?$basic_string@DU?$char_traits@D@std@@V?$allocator@D@2@@std@@@2@@0@PAV10@00Uforward_iterator_tag@0@U_Swap_move_tag@0@U_Range_checked_iterator_tag@0@@Z 100046b0 f i chat_history.obj
 0001:00003700       ??$_Uninit_fill_n@PAV?$vector@V?$basic_string@DU?$char_traits@D@std@@V?$allocator@D@2@@std@@V?$allocator@V?$basic_string@DU?$char_traits@D@std@@V?$allocator@D@2@@std@@@2@@std@@IV12@V?$allocator@V?$vector@V?$basic_string@DU?$char_traits@D@std@@V?$allocator@D@2@@std@@V?$allocator@V?$basic_string@DU?$char_traits@D@std@@V?$allocator@D@2@@std@@@2@@std@@@2@@std@@YAXPAV?$vector@V?$basic_string@DU?$char_traits@D@std@@V?$allocator@D@2@@std@@V?$allocator@V?$basic_string@DU?$char_traits@D@std@@V?$allocator@D@2@@std@@@2@@0@IABV10@AAV?$allocator@V?$vector@V?$basic_string@DU?$char_traits@D@std@@V?$allocator@D@2@@std@@V?$allocator@V?$basic_string@DU?$char_traits@D@std@@V?$allocator@D@2@@std@@@2@@std@@@0@U_Nonscalar_ptr_iterator_tag@0@U_Range_checked_iterator_tag@0@@Z 10004700 f i chat_history.obj
 0001:000037b0       ??$_Destroy_range@V?$vector@V?$basic_string@DU?$char_traits@D@std@@V?$allocator@D@2@@std@@V?$allocator@V?$basic_string@DU?$char_traits@D@std@@V?$allocator@D@2@@std@@@2@@std@@V?$allocator@V?$vector@V?$basic_string@DU?$char_traits@D@std@@V?$allocator@D@2@@std@@V?$allocator@V?$basic_string@DU?$char_traits@D@std@@V?$allocator@D@2@@std@@@2@@std@@@2@@std@@YAXPAV?$vector@V?$basic_string@DU?$char_traits@D@std@@V?$allocator@D@2@@std@@V?$allocator@V?$basic_string@DU?$char_traits@D@std@@V?$allocator@D@2@@std@@@2@@0@0AAV?$allocator@V?$vector@V?$basic_string@DU?$char_traits@D@std@@V?$allocator@D@2@@std@@V?$allocator@V?$basic_string@DU?$char_traits@D@std@@V?$allocator@D@2@@std@@@2@@std@@@0@U_Nonscalar_ptr_iterator_tag@0@@Z 100047b0 f i chat_history.obj
 0001:00003800       ??$_Umove@PAV?$vector@V?$basic_string@DU?$char_traits@D@std@@V?$allocator@D@2@@std@@V?$allocator@V?$basic_string@DU?$char_traits@D@std@@V?$allocator@D@2@@std@@@2@@std@@@?$vector@V?$vector@V?$basic_string@DU?$char_traits@D@std@@V?$allocator@D@2@@std@@V?$allocator@V?$basic_string@DU?$char_traits@D@std@@V?$allocator@D@2@@std@@@2@@std@@V?$allocator@V?$vector@V?$basic_string@DU?$char_traits@D@std@@V?$allocator@D@2@@std@@V?$allocator@V?$basic_string@DU?$char_traits@D@std@@V?$allocator@D@2@@std@@@2@@std@@@2@@std@@IAEPAV?$vector@V?$basic_string@DU?$char_traits@D@std@@V?$allocator@D@2@@std@@V?$allocator@V?$basic_string@DU?$char_traits@D@std@@V?$allocator@D@2@@std@@@2@@1@PAV21@00@Z 10004800 f i chat_history.obj
 0001:00003830       ??$_Unchecked_move_backward@PAV?$vector@V?$basic_string@DU?$char_traits@D@std@@V?$allocator@D@2@@std@@V?$allocator@V?$basic_string@DU?$char_traits@D@std@@V?$allocator@D@2@@std@@@2@@std@@PAV12@@stdext@@YAPAV?$vector@V?$basic_string@DU?$char_traits@D@std@@V?$allocator@D@2@@std@@V?$allocator@V?$basic_string@DU?$char_traits@D@std@@V?$allocator@D@2@@std@@@2@@std@@PAV12@00@Z 10004830 f i chat_history.obj
 0001:00003870       ?_Ufill@?$vector@V?$vector@V?$basic_string@DU?$char_traits@D@std@@V?$allocator@D@2@@std@@V?$allocator@V?$basic_string@DU?$char_traits@D@std@@V?$allocator@D@2@@std@@@2@@std@@V?$allocator@V?$vector@V?$basic_string@DU?$char_traits@D@std@@V?$allocator@D@2@@std@@V?$allocator@V?$basic_string@DU?$char_traits@D@std@@V?$allocator@D@2@@std@@@2@@std@@@2@@std@@IAEPAV?$vector@V?$basic_string@DU?$char_traits@D@std@@V?$allocator@D@2@@std@@V?$allocator@V?$basic_string@DU?$char_traits@D@std@@V?$allocator@D@2@@std@@@2@@2@PAV32@IABV32@@Z 10004870 f i chat_history.obj
 0001:000038b0       ?_Destroy@?$vector@V?$vector@V?$basic_string@DU?$char_traits@D@std@@V?$allocator@D@2@@std@@V?$allocator@V?$basic_string@DU?$char_traits@D@std@@V?$allocator@D@2@@std@@@2@@std@@V?$allocator@V?$vector@V?$basic_string@DU?$char_traits@D@std@@V?$allocator@D@2@@std@@V?$allocator@V?$basic_string@DU?$char_traits@D@std@@V?$allocator@D@2@@std@@@2@@std@@@2@@std@@IAEXPAV?$vector@V?$basic_string@DU?$char_traits@D@std@@V?$allocator@D@2@@std@@V?$allocator@V?$basic_string@DU?$char_traits@D@std@@V?$allocator@D@2@@std@@@2@@2@0@Z 100048b0 f i chat_history.obj
 0001:000038d0       ?_Insert_n@?$vector@V?$vector@V?$basic_string@DU?$char_traits@D@std@@V?$allocator@D@2@@std@@V?$allocator@V?$basic_string@DU?$char_traits@D@std@@V?$allocator@D@2@@std@@@2@@std@@V?$allocator@V?$vector@V?$basic_string@DU?$char_traits@D@std@@V?$allocator@D@2@@std@@V?$allocator@V?$basic_string@DU?$char_traits@D@std@@V?$allocator@D@2@@std@@@2@@std@@@2@@std@@IAEXV?$_Vector_iterator@V?$vector@V?$basic_string@DU?$char_traits@D@std@@V?$allocator@D@2@@std@@V?$allocator@V?$basic_string@DU?$char_traits@D@std@@V?$allocator@D@2@@std@@@2@@std@@V?$allocator@V?$vector@V?$basic_string@DU?$char_traits@D@std@@V?$allocator@D@2@@std@@V?$allocator@V?$basic_string@DU?$char_traits@D@std@@V?$allocator@D@2@@std@@@2@@std@@@2@@2@IABV?$vector@V?$basic_string@DU?$char_traits@D@std@@V?$allocator@D@2@@std@@V?$allocator@V?$basic_string@DU?$char_traits@D@std@@V?$allocator@D@2@@std@@@2@@2@@Z 100048d0 f i chat_history.obj
 0001:00003b70       ?insert@?$vector@V?$vector@V?$basic_string@DU?$char_traits@D@std@@V?$allocator@D@2@@std@@V?$allocator@V?$basic_string@DU?$char_traits@D@std@@V?$allocator@D@2@@std@@@2@@std@@V?$allocator@V?$vector@V?$basic_string@DU?$char_traits@D@std@@V?$allocator@D@2@@std@@V?$allocator@V?$basic_string@DU?$char_traits@D@std@@V?$allocator@D@2@@std@@@2@@std@@@2@@std@@QAE?AV?$_Vector_iterator@V?$vector@V?$basic_string@DU?$char_traits@D@std@@V?$allocator@D@2@@std@@V?$allocator@V?$basic_string@DU?$char_traits@D@std@@V?$allocator@D@2@@std@@@2@@std@@V?$allocator@V?$vector@V?$basic_string@DU?$char_traits@D@std@@V?$allocator@D@2@@std@@V?$allocator@V?$basic_string@DU?$char_traits@D@std@@V?$allocator@D@2@@std@@@2@@std@@@2@@2@V32@ABV?$vector@V?$basic_string@DU?$char_traits@D@std@@V?$allocator@D@2@@std@@V?$allocator@V?$basic_string@DU?$char_traits@D@std@@V?$allocator@D@2@@std@@@2@@2@@Z 10004b70 f i chat_history.obj
 0001:00003c00       ?push_back@?$vector@V?$vector@V?$basic_string@DU?$char_traits@D@std@@V?$allocator@D@2@@std@@V?$allocator@V?$basic_string@DU?$char_traits@D@std@@V?$allocator@D@2@@std@@@2@@std@@V?$allocator@V?$vector@V?$basic_string@DU?$char_traits@D@std@@V?$allocator@D@2@@std@@V?$allocator@V?$basic_string@DU?$char_traits@D@std@@V?$allocator@D@2@@std@@@2@@std@@@2@@std@@QAEXABV?$vector@V?$basic_string@DU?$char_traits@D@std@@V?$allocator@D@2@@std@@V?$allocator@V?$basic_string@DU?$char_traits@D@std@@V?$allocator@D@2@@std@@@2@@2@@Z 10004c00 f i chat_history.obj
 0001:00003c90       ?addString@@YAXPAD@Z       10004c90 f   chat_history.obj
 0001:00003de0       ?consoleEnter@@YGKPAD@Z    10004de0 f   chat_history.obj
 0001:00003e10       ?CHAT_keyDown@@YAXXZ       10004e10 f   chat_history.obj
 0001:00003ea0       ?_Max@?$_Tree@V?$_Tmap_traits@PAXPAXU?$less@PAX@std@@V?$allocator@U?$pair@QAXPAX@std@@@2@$0A@@std@@@std@@KAPAU_Node@?$_Tree_nod@V?$_Tmap_traits@PAXPAXU?$less@PAX@std@@V?$allocator@U?$pair@QAXPAX@std@@@2@$0A@@std@@@2@PAU342@@Z 10004ea0 f i class_extend.obj
 0001:00003ec0       ?_Min@?$_Tree@V?$_Tmap_traits@PAXPAXU?$less@PAX@std@@V?$allocator@U?$pair@QAXPAX@std@@@2@$0A@@std@@@std@@KAPAU_Node@?$_Tree_nod@V?$_Tmap_traits@PAXPAXU?$less@PAX@std@@V?$allocator@U?$pair@QAXPAX@std@@@2@$0A@@std@@@2@PAU342@@Z 10004ec0 f i class_extend.obj
 0001:00003ee0       ?_Rrotate@?$_Tree@V?$_Tmap_traits@PAXPAXU?$less@PAX@std@@V?$allocator@U?$pair@QAXPAX@std@@@2@$0A@@std@@@std@@IAEXPAU_Node@?$_Tree_nod@V?$_Tmap_traits@PAXPAXU?$less@PAX@std@@V?$allocator@U?$pair@QAXPAX@std@@@2@$0A@@std@@@2@@Z 10004ee0 f i class_extend.obj
 0001:00003f40       ?_Inc@const_iterator@?$_Tree@V?$_Tmap_traits@PAXPAXU?$less@PAX@std@@V?$allocator@U?$pair@QAXPAX@std@@@2@$0A@@std@@@std@@QAEXXZ 10004f40 f i class_extend.obj
 0001:00003fb0       ?_Lrotate@?$_Tree@V?$_Tmap_traits@PAXPAXU?$less@PAX@std@@V?$allocator@U?$pair@QAXPAX@std@@@2@$0A@@std@@@std@@IAEXPAU_Node@?$_Tree_nod@V?$_Tmap_traits@PAXPAXU?$less@PAX@std@@V?$allocator@U?$pair@QAXPAX@std@@@2@$0A@@std@@@2@@Z 10004fb0 f i class_extend.obj
 0001:00004000       ?_Erase@?$_Tree@V?$_Tmap_traits@PAXPAXU?$less@PAX@std@@V?$allocator@U?$pair@QAXPAX@std@@@2@$0A@@std@@@std@@IAEXPAU_Node@?$_Tree_nod@V?$_Tmap_traits@PAXPAXU?$less@PAX@std@@V?$allocator@U?$pair@QAXPAX@std@@@2@$0A@@std@@@2@@Z 10005000 f i class_extend.obj
 0001:00004040       ?_Buynode@?$_Tree@V?$_Tmap_traits@PAXPAXU?$less@PAX@std@@V?$allocator@U?$pair@QAXPAX@std@@@2@$0A@@std@@@std@@IAEPAU_Node@?$_Tree_nod@V?$_Tmap_traits@PAXPAXU?$less@PAX@std@@V?$allocator@U?$pair@QAXPAX@std@@@2@$0A@@std@@@2@XZ 10005040 f i class_extend.obj
 0001:00004080       ?erase@?$_Tree@V?$_Tmap_traits@PAXPAXU?$less@PAX@std@@V?$allocator@U?$pair@QAXPAX@std@@@2@$0A@@std@@@std@@QAE?AViterator@12@V312@@Z 10005080 f i class_extend.obj
 0001:00004340       ??0out_of_range@std@@QAE@ABV01@@Z 10005340 f i class_extend.obj
 0001:00004360       ?erase@?$_Tree@V?$_Tmap_traits@PAXPAXU?$less@PAX@std@@V?$allocator@U?$pair@QAXPAX@std@@@2@$0A@@std@@@std@@QAE?AViterator@12@V312@0@Z 10005360 f i class_extend.obj
 0001:00004430       ?_Incref@facet@locale@std@@QAEXXZ 10005430 f i config.obj
 0001:00004460       ?_Decref@facet@locale@std@@QAEPAV123@XZ 10005460 f i config.obj
 0001:000044a0       ??1locale@std@@QAE@XZ      100054a0 f i config.obj
 0001:000044f0       ??_E?$codecvt@DDH@std@@MAEPAXI@Z 100054f0 f i config.obj
 0001:000044f0       ??_G?$codecvt@DDH@std@@MAEPAXI@Z 100054f0 f i config.obj
 0001:000044f0       ??_Gfacet@locale@std@@UAEPAXI@Z 100054f0 f i config.obj
 0001:000044f0       ??_Efacet@locale@std@@UAEPAXI@Z 100054f0 f i config.obj
 0001:00004510       ??1facet@locale@std@@UAE@XZ 10005510 f i config.obj
 0001:00004510       ??1codecvt_base@std@@UAE@XZ 10005510 f i config.obj
 0001:00004510       ??1ctype_base@std@@UAE@XZ  10005510 f i config.obj
 0001:00004520       ?do_max_length@codecvt_base@std@@MBEHXZ 10005520 f i config.obj
 0001:00004520       ?do_encoding@codecvt_base@std@@MBEHXZ 10005520 f i config.obj
 0001:00004530       ?getloc@ios_base@std@@QBE?AVlocale@2@XZ 10005530 f i config.obj
 0001:00004570       ??_Eios_base@std@@UAEPAXI@Z 10005570 f i config.obj
 0001:00004570       ??_E?$basic_ios@DU?$char_traits@D@std@@@std@@UAEPAXI@Z 10005570 f i config.obj
 0001:00004570       ??_Gios_base@std@@UAEPAXI@Z 10005570 f i config.obj
 0001:00004570       ??_G?$basic_ios@DU?$char_traits@D@std@@@std@@UAEPAXI@Z 10005570 f i config.obj
 0001:000045a0       ??1?$basic_ios@DU?$char_traits@D@std@@@std@@UAE@XZ 100055a0 f i config.obj
 0001:000045b0       ??1?$basic_istream@DU?$char_traits@D@std@@@std@@UAE@XZ 100055b0 f i config.obj
 0001:000045c0       ?_Gnavail@?$basic_streambuf@DU?$char_traits@D@std@@@std@@IBEHXZ 100055c0 f i config.obj
 0001:000045e0       ?_Chassign@?$basic_string@DU?$char_traits@D@std@@V?$allocator@D@2@@std@@IAEXIID@Z 100055e0 f i config.obj
 0001:00004640       ?getloc@?$basic_streambuf@DU?$char_traits@D@std@@@std@@QBE?AVlocale@2@XZ 10005640 f i config.obj
 0001:00004680       ??1_Sentry_base@?$basic_istream@DU?$char_traits@D@std@@@std@@QAE@XZ 10005680 f i config.obj
 0001:00004680       ??1sentry@?$basic_istream@DU?$char_traits@D@std@@@std@@QAE@XZ 10005680 f i config.obj
 0001:00004680       ??1_Sentry_base@?$basic_ostream@DU?$char_traits@D@std@@@std@@QAE@XZ 10005680 f i serialize.obj
 0001:000046a0       ??1?$basic_streambuf@DU?$char_traits@D@std@@@std@@UAE@XZ 100056a0 f i config.obj
 0001:00004720       ?pbackfail@?$basic_streambuf@DU?$char_traits@D@std@@@std@@MAEHH@Z 10005720 f i config.obj
 0001:00004720       ?overflow@?$basic_streambuf@DU?$char_traits@D@std@@@std@@MAEHH@Z 10005720 f i config.obj
 0001:00004730       ?OnMessage@CWindow@GUI@zxmgr@@SAKKKK@Z 10005730 f i zxmgr_gui.obj
 0001:00004730       ?sync@?$basic_streambuf@DU?$char_traits@D@std@@@std@@MAEHXZ 10005730 f i config.obj
 0001:00004730       ?PopulateWindow@CWindow@GUI@zxmgr@@SAKKPAUtagRECT@@@Z 10005730 f i zxmgr_gui.obj
 0001:00004730       ?showmanyc@?$basic_streambuf@DU?$char_traits@D@std@@@std@@MAEHXZ 10005730 f i config.obj
 0001:00004740       ?underflow@?$basic_streambuf@DU?$char_traits@D@std@@@std@@MAEHXZ 10005740 f i config.obj
 0001:00004750       ?xsgetn@?$basic_streambuf@DU?$char_traits@D@std@@@std@@MAEHPADH@Z 10005750 f i config.obj
 0001:00004770       ?setbuf@?$basic_streambuf@DU?$char_traits@D@std@@@std@@MAEPAV12@PADH@Z 10005770 f i config.obj
 0001:00004780       ?_Pnavail@?$basic_streambuf@DU?$char_traits@D@std@@@std@@IBEHXZ 10005780 f i config.obj
 0001:000047a0       ?uflow@?$basic_streambuf@DU?$char_traits@D@std@@@std@@MAEHXZ 100057a0 f i config.obj
 0001:000047d0       ?seekoff@?$basic_streambuf@DU?$char_traits@D@std@@@std@@MAE?AV?$fpos@H@2@JHH@Z 100057d0 f i config.obj
 0001:000047f0       ?seekpos@?$basic_streambuf@DU?$char_traits@D@std@@@std@@MAE?AV?$fpos@H@2@V32@H@Z 100057f0 f i config.obj
 0001:00004810       ??_G?$basic_istream@DU?$char_traits@D@std@@@std@@UAEPAXI@Z 10005810 f i config.obj
 0001:00004810       ??_E?$basic_istream@DU?$char_traits@D@std@@@std@@UAEPAXI@Z 10005810 f i config.obj
 0001:00004850       ??_E?$basic_streambuf@DU?$char_traits@D@std@@@std@@UAEPAXI@Z 10005850 f i config.obj
 0001:00004850       ??_G?$basic_streambuf@DU?$char_traits@D@std@@@std@@UAEPAXI@Z 10005850 f i config.obj
 0001:00004870       ?find@?$basic_string@DU?$char_traits@D@std@@V?$allocator@D@2@@std@@QBEIPBDII@Z 10005870 f i config.obj
 0001:00004930       ?find_first_of@?$basic_string@DU?$char_traits@D@std@@V?$allocator@D@2@@std@@QBEIPBDII@Z 10005930 f i config.obj
 0001:000049c0       ??D?$_String_iterator@DU?$char_traits@D@std@@V?$allocator@D@2@@std@@QBEAADXZ 100059c0 f i config.obj
 0001:00004a00       ?_Init@?$basic_streambuf@DU?$char_traits@D@std@@@std@@IAEXXZ 10005a00 f i config.obj
 0001:00004a60       ??0?$_String_const_iterator@DU?$char_traits@D@std@@V?$allocator@D@2@@std@@QAE@PBDPBU_Container_base@1@@Z 10005a60 f i config.obj
 0001:00004ac0       ?snextc@?$basic_streambuf@DU?$char_traits@D@std@@@std@@QAEHXZ 10005ac0 f i config.obj
 0001:00004b40       ?_Xsgetn_s@?$basic_streambuf@DU?$char_traits@D@std@@@std@@MAEHPADIH@Z 10005b40 f i config.obj
 0001:00004be0       ?xsputn@?$basic_streambuf@DU?$char_traits@D@std@@@std@@MAEHPBDH@Z 10005be0 f i config.obj
 0001:00004c80       ??0?$basic_streambuf@DU?$char_traits@D@std@@@std@@IAE@XZ 10005c80 f i config.obj
 0001:00004d30       ??$?8DU?$char_traits@D@std@@V?$allocator@D@1@@std@@YA_NABV?$basic_string@DU?$char_traits@D@std@@V?$allocator@D@2@@0@PBD@Z 10005d30 f i config.obj
 0001:00004d70       ?begin@?$basic_string@DU?$char_traits@D@std@@V?$allocator@D@2@@std@@QAE?AV?$_String_iterator@DU?$char_traits@D@std@@V?$allocator@D@2@@2@XZ 10005d70 f i config.obj
 0001:00004db0       ??$_Fputc@D@std@@YA_NDPAU_iobuf@@@Z 10005db0 f i config.obj
 0001:00004dd0       ?sync@?$basic_filebuf@DU?$char_traits@D@std@@@std@@MAEHXZ 10005dd0 f i config.obj
 0001:00004e00       ?pbackfail@?$basic_filebuf@DU?$char_traits@D@std@@@std@@MAEHH@Z 10005e00 f i config.obj
 0001:00004e70       ?underflow@?$basic_filebuf@DU?$char_traits@D@std@@@std@@MAEHXZ 10005e70 f i config.obj
 0001:00004ec0       ?setbuf@?$basic_filebuf@DU?$char_traits@D@std@@@std@@MAEPAV?$basic_streambuf@DU?$char_traits@D@std@@@2@PADH@Z 10005ec0 f i config.obj
 0001:00004f50       ??1failure@ios_base@std@@UAE@XZ 10005f50 f i config.obj
 0001:00004f50       ??1runtime_error@std@@UAE@XZ 10005f50 f i config.obj
 0001:00004f90       ?what@runtime_error@std@@UBEPBDXZ 10005f90 f i config.obj
 0001:00004f90       ?what@logic_error@std@@UBEPBDXZ 10005f90 f i chat_history.obj
 0001:00004fa0       ??_Eruntime_error@std@@UAEPAXI@Z 10005fa0 f i config.obj
 0001:00004fa0       ??_Efailure@ios_base@std@@UAEPAXI@Z 10005fa0 f i config.obj
 0001:00004fa0       ??_Gruntime_error@std@@UAEPAXI@Z 10005fa0 f i config.obj
 0001:00004fa0       ??_Gfailure@ios_base@std@@UAEPAXI@Z 10005fa0 f i config.obj
 0001:00004ff0       ??1_Locinfo@std@@QAE@XZ    10005ff0 f i config.obj
 0001:000050d0       ?append@?$basic_string@DU?$char_traits@D@std@@V?$allocator@D@2@@std@@QAEAAV12@ID@Z 100060d0 f i config.obj
 0001:00005180       ?uflow@?$basic_filebuf@DU?$char_traits@D@std@@@std@@MAEHXZ 10006180 f i config.obj
 0001:000054e0       ?_Endwrite@?$basic_filebuf@DU?$char_traits@D@std@@@std@@IAE_NXZ 100064e0 f i config.obj
 0001:00005800       ??0runtime_error@std@@QAE@ABV?$basic_string@DU?$char_traits@D@std@@V?$allocator@D@2@@1@@Z 10006800 f i config.obj
 0001:00005870       ?overflow@?$basic_filebuf@DU?$char_traits@D@std@@@std@@MAEHH@Z 10006870 f i config.obj
 0001:00005c40       ?seekoff@?$basic_filebuf@DU?$char_traits@D@std@@@std@@MAE?AV?$fpos@H@2@JHH@Z 10006c40 f i config.obj
 0001:00005d20       ?seekpos@?$basic_filebuf@DU?$char_traits@D@std@@@std@@MAE?AV?$fpos@H@2@V32@H@Z 10006d20 f i config.obj
 0001:00005e10       ?close@?$basic_filebuf@DU?$char_traits@D@std@@@std@@QAEPAV12@XZ 10006e10 f i config.obj
 0001:00005e60       ??0_Locinfo@std@@QAE@PBD@Z 10006e60 f i config.obj
 0001:00005f30       ??0runtime_error@std@@QAE@ABV01@@Z 10006f30 f i config.obj
 0001:00005fb0       ??0?$ctype@D@std@@QAE@PBF_NI@Z 10006fb0 f i config.obj
 0001:000060b0       ?do_tolower@?$ctype@D@std@@MBEDD@Z 100070b0 f i config.obj
 0001:000060d0       ?do_tolower@?$ctype@D@std@@MBEPBDPADPBD@Z 100070d0 f i config.obj
 0001:00006100       ?do_toupper@?$ctype@D@std@@MBEDD@Z 10007100 f i config.obj
 0001:00006120       ?do_toupper@?$ctype@D@std@@MBEPBDPADPBD@Z 10007120 f i config.obj
 0001:00006150       ?do_widen@?$ctype@D@std@@MBEDD@Z 10007150 f i config.obj
 0001:00006160       ?do_widen@?$ctype@D@std@@MBEPBDPBD0PAD@Z 10007160 f i config.obj
 0001:00006190       ?_Do_widen_s@?$ctype@D@std@@MBEPBDPBD0PADI@Z 10007190 f i config.obj
 0001:000061d0       ?do_narrow@?$ctype@D@std@@MBEDDD@Z 100071d0 f i config.obj
 0001:000061e0       ?do_narrow@?$ctype@D@std@@MBEPBDPBD0DPAD@Z 100071e0 f i config.obj
 0001:00006210       ?_Do_narrow_s@?$ctype@D@std@@MBEPBDPBD0DPADI@Z 10007210 f i config.obj
 0001:00006250       ??_G?$ctype@D@std@@MAEPAXI@Z 10007250 f i config.obj
 0001:00006250       ??_E?$ctype@D@std@@MAEPAXI@Z 10007250 f i config.obj
 0001:000062a0       ?_Getcat@?$ctype@D@std@@SAIPAPBVfacet@locale@2@@Z 100072a0 f i config.obj
 0001:00006320       ?clear@ios_base@std@@QAEXH_N@Z 10007320 f i config.obj
 0001:00006450       ??0failure@ios_base@std@@QAE@ABV012@@Z 10007450 f i config.obj
 0001:00006470       ?_Init@ios_base@std@@IAEXXZ 10007470 f i config.obj
 0001:000064f0       ??1?$basic_filebuf@DU?$char_traits@D@std@@@std@@UAE@XZ 100074f0 f i config.obj
 0001:00006560       ??1?$basic_ifstream@DU?$char_traits@D@std@@@std@@UAE@XZ 10007560 f i config.obj
 0001:000065d0       ??_G?$basic_filebuf@DU?$char_traits@D@std@@@std@@UAEPAXI@Z 100075d0 f i config.obj
 0001:000065d0       ??_E?$basic_filebuf@DU?$char_traits@D@std@@@std@@UAEPAXI@Z 100075d0 f i config.obj
 0001:000065f0       ??$use_facet@V?$ctype@D@std@@@std@@YAABV?$ctype@D@0@ABVlocale@0@@Z 100075f0 f i config.obj
 0001:00006720       ??0?$codecvt@DDH@std@@QAE@I@Z 10007720 f i config.obj
 0001:000067b0       ?do_in@?$codecvt@DDH@std@@MBEHAAHPBD1AAPBDPAD3AAPAD@Z 100077b0 f i config.obj
 0001:000067b0       ?do_out@?$codecvt@DDH@std@@MBEHAAHPBD1AAPBDPAD3AAPAD@Z 100077b0 f i config.obj
 0001:000067d0       ?do_unshift@?$codecvt@DDH@std@@MBEHAAHPAD1AAPAD@Z 100077d0 f i config.obj
 0001:000067f0       ?do_length@?$codecvt@DDH@std@@MBEHABHPBD1I@Z 100077f0 f i config.obj
 0001:00006810       ??_D?$basic_ifstream@DU?$char_traits@D@std@@@std@@QAEXXZ 10007810 f i config.obj
 0001:00006830       ?close@?$basic_ifstream@DU?$char_traits@D@std@@@std@@QAEXXZ 10007830 f i config.obj
 0001:00006860       ??_E?$basic_ifstream@DU?$char_traits@D@std@@@std@@UAEPAXI@Z 10007860 f i config.obj
 0001:00006860       ??_G?$basic_ifstream@DU?$char_traits@D@std@@@std@@UAEPAXI@Z 10007860 f i config.obj
 0001:000068a0       ?widen@?$basic_ios@DU?$char_traits@D@std@@@std@@QBEDD@Z 100078a0 f i config.obj
 0001:00006960       ?_Getcat@?$codecvt@DDH@std@@SAIPAPBVfacet@locale@2@@Z 10007960 f i config.obj
 0001:000069d0       ?flush@?$basic_ostream@DU?$char_traits@D@std@@@std@@QAEAAV12@XZ 100079d0 f i config.obj
 0001:00006a20       ?_Ipfx@?$basic_istream@DU?$char_traits@D@std@@@std@@QAE_N_N@Z 10007a20 f i config.obj
 0001:00006bc0       ??$use_facet@V?$codecvt@DDH@std@@@std@@YAABV?$codecvt@DDH@0@ABVlocale@0@@Z 10007bc0 f i config.obj
 0001:00006cf0       ??0sentry@?$basic_istream@DU?$char_traits@D@std@@@std@@QAE@AAV12@_N@Z 10007cf0 f i config.obj
 0001:00006d60       ?imbue@?$basic_filebuf@DU?$char_traits@D@std@@@std@@MAEXABVlocale@2@@Z 10007d60 f i config.obj
 0001:00006da0       ?open@?$basic_filebuf@DU?$char_traits@D@std@@@std@@QAEPAV12@PBDHH@Z 10007da0 f i config.obj
 0001:00006ec0       ??$getline@DU?$char_traits@D@std@@V?$allocator@D@2@@std@@YAAAV?$basic_istream@DU?$char_traits@D@std@@@0@AAV10@AAV?$basic_string@DU?$char_traits@D@std@@V?$allocator@D@2@@0@D@Z 10007ec0 f i config.obj
 0001:00007060       ??0?$basic_ifstream@DU?$char_traits@D@std@@@std@@QAE@XZ 10008060 f i config.obj
 0001:00007160       ?open@?$basic_ifstream@DU?$char_traits@D@std@@@std@@QAEXPBDHH@Z 10008160 f i config.obj
 0001:000071b0       ?ParseConfig2x@@YAXAAV?$basic_ifstream@DU?$char_traits@D@std@@@std@@@Z 100081b0 f   config.obj
 0001:00007d30       ?ParseConfig1x@@YAXAAV?$basic_ifstream@DU?$char_traits@D@std@@@std@@@Z 10008d30 f   config.obj
 0001:000080e0       ?ParseConfig@@YAXXZ        100090e0 f   config.obj
 0001:00008250       ?CheckValid@@YGKPAXK@Z     10009250 f   crash.obj
 0001:00008270       ?CheckValidW@@YGKPAXK@Z    10009270 f   crash.obj
 0001:00008290       ?CRASH_fix_414994@@YAXXZ   10009290 f   crash.obj
 0001:000082c0       ?CRASH_fix_42353A@@YAXXZ   100092c0 f   crash.obj
 0001:000082f0       ?CRASH_fix_523295@@YAXXZ   100092f0 f   crash.obj
 0001:00008320       ?CRASH_fix_46AD10@@YAXXZ   10009320 f   crash.obj
 0001:00008380       ?CRASH_fix_420450@@YAXXZ   10009380 f   crash.obj
 0001:000083b0       ?CRASH_fix_45FC3B@@YAXXZ   100093b0 f   crash.obj
 0001:000083e0       ?CRASH_fix_458CF9@@YAXXZ   100093e0 f   crash.obj
 0001:00008420       ?CRASH_fix_4657AD@@YAXXZ   10009420 f   crash.obj
 0001:00008450       ?CRASH_fix_46B685@@YAXXZ   10009450 f   crash.obj
 0001:00008480       ?shop_init_2@@YAXXZ        10009480 f   crash.obj
 0001:000084d0       ?CRASH_fix_4BEE2D@@YAXXZ   100094d0 f   crash.obj
 0001:000084e0       ?CRASH_fix_4AAB7E@@YAXXZ   100094e0 f   crash.obj
 0001:00008500       ?CRASH_fix_multiwindow_1@@YAXXZ 10009500 f   crash.obj
 0001:00008520       ?CRASH_fix_multiwindow_2@@YAXXZ 10009520 f   crash.obj
 0001:00008540       ?CRASH_fix_multiwindow_3@@YAXXZ 10009540 f   crash.obj
 0001:00008560       ?CRASH_fix_multiwindow_4@@YAXXZ 10009560 f   crash.obj
 0001:00008580       ?Calculate@CRC_32@@AAEXQAEIAAK@Z 10009580 f   CRC_32.obj
 0001:000085c0       ?CRC32ThreadProc@CRC_32@@CGKPAX@Z 100095c0 f   CRC_32.obj
 0001:00008830       ??0CRC_32@@QAE@XZ          10009830 f   CRC_32.obj
 0001:00008980       ?CalcCRC@CRC_32@@QAEKPAXIPAUHWND__@@@Z 10009980 f   CRC_32.obj
 0001:00008a80       ?log_str@@YAXPADK@Z        10009a80 f   debug.obj
 0001:00008aa0       ?DBG_logStrings@@YAXXZ     10009aa0 f   debug.obj
 0001:00008ae0       ?exc_handler_run@@YAKPAU_EXCEPTION_POINTERS@@@Z 10009ae0 f   debug.obj
 0001:00008c10       ?setup_handler@@YAXXZ      10009c10 f   debug.obj
 0001:00008c20       ?_decideState@@YGXK@Z      10009c20 f   debug.obj
 0001:00008c40       ?DBG_decideState@@YAXXZ    10009c40 f   debug.obj
 0001:00008c70       ??8const_iterator@?$_Tree@V?$_Tmap_traits@V?$basic_string@DU?$char_traits@D@std@@V?$allocator@D@2@@std@@V12@U?$less@V?$basic_string@DU?$char_traits@D@std@@V?$allocator@D@2@@std@@@2@V?$allocator@U?$pair@$$CBV?$basic_string@DU?$char_traits@D@std@@V?$allocator@D@2@@std@@V12@@std@@@2@$0A@@std@@@std@@QBE_NABV012@@Z 10009c70 f i happyhttp.obj
 0001:00008c70       ??8const_iterator@?$_Tree@V?$_Tmap_traits@PBDV?$basic_string@DU?$char_traits@D@std@@V?$allocator@D@2@@std@@U?$less@PBD@2@V?$allocator@U?$pair@QBDV?$basic_string@DU?$char_traits@D@std@@V?$allocator@D@2@@std@@@std@@@2@$0A@@std@@@std@@QBE_NABV012@@Z 10009c70 f i debug.obj
 0001:00008ca0       ?_Min@?$_Tree@V?$_Tmap_traits@KV?$basic_string@DU?$char_traits@D@std@@V?$allocator@D@2@@std@@U?$less@K@2@V?$allocator@U?$pair@$$CBKV?$basic_string@DU?$char_traits@D@std@@V?$allocator@D@2@@std@@@std@@@2@$0A@@std@@@std@@KAPAU_Node@?$_Tree_nod@V?$_Tmap_traits@KV?$basic_string@DU?$char_traits@D@std@@V?$allocator@D@2@@std@@U?$less@K@2@V?$allocator@U?$pair@$$CBKV?$basic_string@DU?$char_traits@D@std@@V?$allocator@D@2@@std@@@std@@@2@$0A@@std@@@2@PAU342@@Z 10009ca0 f i debug.obj
 0001:00008ca0       ?_Min@?$_Tree@V?$_Tmap_traits@PBDV?$basic_string@DU?$char_traits@D@std@@V?$allocator@D@2@@std@@U?$less@PBD@2@V?$allocator@U?$pair@QBDV?$basic_string@DU?$char_traits@D@std@@V?$allocator@D@2@@std@@@std@@@2@$0A@@std@@@std@@KAPAU_Node@?$_Tree_nod@V?$_Tmap_traits@PBDV?$basic_string@DU?$char_traits@D@std@@V?$allocator@D@2@@std@@U?$less@PBD@2@V?$allocator@U?$pair@QBDV?$basic_string@DU?$char_traits@D@std@@V?$allocator@D@2@@std@@@std@@@2@$0A@@std@@@2@PAU342@@Z 10009ca0 f i debug.obj
 0001:00008cc0       ?_Rrotate@?$_Tree@V?$_Tmap_traits@KV?$basic_string@DU?$char_traits@D@std@@V?$allocator@D@2@@std@@U?$less@K@2@V?$allocator@U?$pair@$$CBKV?$basic_string@DU?$char_traits@D@std@@V?$allocator@D@2@@std@@@std@@@2@$0A@@std@@@std@@IAEXPAU_Node@?$_Tree_nod@V?$_Tmap_traits@KV?$basic_string@DU?$char_traits@D@std@@V?$allocator@D@2@@std@@U?$less@K@2@V?$allocator@U?$pair@$$CBKV?$basic_string@DU?$char_traits@D@std@@V?$allocator@D@2@@std@@@std@@@2@$0A@@std@@@2@@Z 10009cc0 f i debug.obj
 0001:00008cc0       ?_Rrotate@?$_Tree@V?$_Tmap_traits@PBDV?$basic_string@DU?$char_traits@D@std@@V?$allocator@D@2@@std@@U?$less@PBD@2@V?$allocator@U?$pair@QBDV?$basic_string@DU?$char_traits@D@std@@V?$allocator@D@2@@std@@@std@@@2@$0A@@std@@@std@@IAEXPAU_Node@?$_Tree_nod@V?$_Tmap_traits@PBDV?$basic_string@DU?$char_traits@D@std@@V?$allocator@D@2@@std@@U?$less@PBD@2@V?$allocator@U?$pair@QBDV?$basic_string@DU?$char_traits@D@std@@V?$allocator@D@2@@std@@@std@@@2@$0A@@std@@@2@@Z 10009cc0 f i debug.obj
 0001:00008d20       ?_Max@?$_Tree@V?$_Tmap_traits@KV?$basic_string@DU?$char_traits@D@std@@V?$allocator@D@2@@std@@U?$less@K@2@V?$allocator@U?$pair@$$CBKV?$basic_string@DU?$char_traits@D@std@@V?$allocator@D@2@@std@@@std@@@2@$0A@@std@@@std@@KAPAU_Node@?$_Tree_nod@V?$_Tmap_traits@KV?$basic_string@DU?$char_traits@D@std@@V?$allocator@D@2@@std@@U?$less@K@2@V?$allocator@U?$pair@$$CBKV?$basic_string@DU?$char_traits@D@std@@V?$allocator@D@2@@std@@@std@@@2@$0A@@std@@@2@PAU342@@Z 10009d20 f i debug.obj
 0001:00008d20       ?_Max@?$_Tree@V?$_Tmap_traits@PBDV?$basic_string@DU?$char_traits@D@std@@V?$allocator@D@2@@std@@U?$less@PBD@2@V?$allocator@U?$pair@QBDV?$basic_string@DU?$char_traits@D@std@@V?$allocator@D@2@@std@@@std@@@2@$0A@@std@@@std@@KAPAU_Node@?$_Tree_nod@V?$_Tmap_traits@PBDV?$basic_string@DU?$char_traits@D@std@@V?$allocator@D@2@@std@@U?$less@PBD@2@V?$allocator@U?$pair@QBDV?$basic_string@DU?$char_traits@D@std@@V?$allocator@D@2@@std@@@std@@@2@$0A@@std@@@2@PAU342@@Z 10009d20 f i debug.obj
 0001:00008d40       ?_Dec@const_iterator@?$_Tree@V?$_Tmap_traits@PBDV?$basic_string@DU?$char_traits@D@std@@V?$allocator@D@2@@std@@U?$less@PBD@2@V?$allocator@U?$pair@QBDV?$basic_string@DU?$char_traits@D@std@@V?$allocator@D@2@@std@@@std@@@2@$0A@@std@@@std@@QAEXXZ 10009d40 f i debug.obj
 0001:00008dd0       ?_Inc@const_iterator@?$_Tree@V?$_Tmap_traits@KV?$basic_string@DU?$char_traits@D@std@@V?$allocator@D@2@@std@@U?$less@K@2@V?$allocator@U?$pair@$$CBKV?$basic_string@DU?$char_traits@D@std@@V?$allocator@D@2@@std@@@std@@@2@$0A@@std@@@std@@QAEXXZ 10009dd0 f i debug.obj
 0001:00008dd0       ?_Inc@const_iterator@?$_Tree@V?$_Tmap_traits@PBDV?$basic_string@DU?$char_traits@D@std@@V?$allocator@D@2@@std@@U?$less@PBD@2@V?$allocator@U?$pair@QBDV?$basic_string@DU?$char_traits@D@std@@V?$allocator@D@2@@std@@@std@@@2@$0A@@std@@@std@@QAEXXZ 10009dd0 f i debug.obj
 0001:00008e40       ?_Lrotate@?$_Tree@V?$_Tmap_traits@PBDV?$basic_string@DU?$char_traits@D@std@@V?$allocator@D@2@@std@@U?$less@PBD@2@V?$allocator@U?$pair@QBDV?$basic_string@DU?$char_traits@D@std@@V?$allocator@D@2@@std@@@std@@@2@$0A@@std@@@std@@IAEXPAU_Node@?$_Tree_nod@V?$_Tmap_traits@PBDV?$basic_string@DU?$char_traits@D@std@@V?$allocator@D@2@@std@@U?$less@PBD@2@V?$allocator@U?$pair@QBDV?$basic_string@DU?$char_traits@D@std@@V?$allocator@D@2@@std@@@std@@@2@$0A@@std@@@2@@Z 10009e40 f i debug.obj
 0001:00008e40       ?_Lrotate@?$_Tree@V?$_Tmap_traits@KV?$basic_string@DU?$char_traits@D@std@@V?$allocator@D@2@@std@@U?$less@K@2@V?$allocator@U?$pair@$$CBKV?$basic_string@DU?$char_traits@D@std@@V?$allocator@D@2@@std@@@std@@@2@$0A@@std@@@std@@IAEXPAU_Node@?$_Tree_nod@V?$_Tmap_traits@KV?$basic_string@DU?$char_traits@D@std@@V?$allocator@D@2@@std@@U?$less@K@2@V?$allocator@U?$pair@$$CBKV?$basic_string@DU?$char_traits@D@std@@V?$allocator@D@2@@std@@@std@@@2@$0A@@std@@@2@@Z 10009e40 f i debug.obj
 0001:00008e90       ?_Buynode@?$_Tree@V?$_Tmap_traits@KV?$basic_string@DU?$char_traits@D@std@@V?$allocator@D@2@@std@@U?$less@K@2@V?$allocator@U?$pair@$$CBKV?$basic_string@DU?$char_traits@D@std@@V?$allocator@D@2@@std@@@std@@@2@$0A@@std@@@std@@IAEPAU_Node@?$_Tree_nod@V?$_Tmap_traits@KV?$basic_string@DU?$char_traits@D@std@@V?$allocator@D@2@@std@@U?$less@K@2@V?$allocator@U?$pair@$$CBKV?$basic_string@DU?$char_traits@D@std@@V?$allocator@D@2@@std@@@std@@@2@$0A@@std@@@2@XZ 10009e90 f i debug.obj
 0001:00008e90       ?_Buynode@?$_Tree@V?$_Tmap_traits@PBDV?$basic_string@DU?$char_traits@D@std@@V?$allocator@D@2@@std@@U?$less@PBD@2@V?$allocator@U?$pair@QBDV?$basic_string@DU?$char_traits@D@std@@V?$allocator@D@2@@std@@@std@@@2@$0A@@std@@@std@@IAEPAU_Node@?$_Tree_nod@V?$_Tmap_traits@PBDV?$basic_string@DU?$char_traits@D@std@@V?$allocator@D@2@@std@@U?$less@PBD@2@V?$allocator@U?$pair@QBDV?$basic_string@DU?$char_traits@D@std@@V?$allocator@D@2@@std@@@std@@@2@$0A@@std@@@2@XZ 10009e90 f i debug.obj
 0001:00008ed0       ??1?$pair@QBDV?$basic_string@DU?$char_traits@D@std@@V?$allocator@D@2@@std@@@std@@QAE@XZ 10009ed0 f i debug.obj
 0001:00008f00       ??0_Node@?$_Tree_nod@V?$_Tmap_traits@PBDV?$basic_string@DU?$char_traits@D@std@@V?$allocator@D@2@@std@@U?$less@PBD@2@V?$allocator@U?$pair@QBDV?$basic_string@DU?$char_traits@D@std@@V?$allocator@D@2@@std@@@std@@@2@$0A@@std@@@std@@QAE@PAU012@00ABU?$pair@QBDV?$basic_string@DU?$char_traits@D@std@@V?$allocator@D@2@@std@@@2@D@Z 10009f00 f i debug.obj
 0001:00008f60       ?_disp256@@YGXPBDK@Z       10009f60 f   debug.obj
 0001:00009090       ?DBG_disp256@@YAXXZ        1000a090 f   debug.obj
 0001:000090b0       ?DBG_di2p256@@YAXXZ        1000a0b0 f   debug.obj
 0001:000090d0       ?DBG_di3p256@@YAXXZ        1000a0d0 f   debug.obj
 0001:000090f0       ?erase@?$_Tree@V?$_Tmap_traits@KV?$basic_string@DU?$char_traits@D@std@@V?$allocator@D@2@@std@@U?$less@K@2@V?$allocator@U?$pair@$$CBKV?$basic_string@DU?$char_traits@D@std@@V?$allocator@D@2@@std@@@std@@@2@$0A@@std@@@std@@QAE?AViterator@12@V312@@Z 1000a0f0 f i debug.obj
 0001:000090f0       ?erase@?$_Tree@V?$_Tmap_traits@PBDV?$basic_string@DU?$char_traits@D@std@@V?$allocator@D@2@@std@@U?$less@PBD@2@V?$allocator@U?$pair@QBDV?$basic_string@DU?$char_traits@D@std@@V?$allocator@D@2@@std@@@std@@@2@$0A@@std@@@std@@QAE?AViterator@12@V312@@Z 1000a0f0 f i debug.obj
 0001:000093e0       ?_Buynode@?$_Tree@V?$_Tmap_traits@PBDV?$basic_string@DU?$char_traits@D@std@@V?$allocator@D@2@@std@@U?$less@PBD@2@V?$allocator@U?$pair@QBDV?$basic_string@DU?$char_traits@D@std@@V?$allocator@D@2@@std@@@std@@@2@$0A@@std@@@std@@IAEPAU_Node@?$_Tree_nod@V?$_Tmap_traits@PBDV?$basic_string@DU?$char_traits@D@std@@V?$allocator@D@2@@std@@U?$less@PBD@2@V?$allocator@U?$pair@QBDV?$basic_string@DU?$char_traits@D@std@@V?$allocator@D@2@@std@@@std@@@2@$0A@@std@@@2@PAU342@00ABU?$pair@QBDV?$basic_string@DU?$char_traits@D@std@@V?$allocator@D@2@@std@@@2@D@Z 1000a3e0 f i debug.obj
 0001:00009480       ?_Erase@?$_Tree@V?$_Tmap_traits@PBDV?$basic_string@DU?$char_traits@D@std@@V?$allocator@D@2@@std@@U?$less@PBD@2@V?$allocator@U?$pair@QBDV?$basic_string@DU?$char_traits@D@std@@V?$allocator@D@2@@std@@@std@@@2@$0A@@std@@@std@@IAEXPAU_Node@?$_Tree_nod@V?$_Tmap_traits@PBDV?$basic_string@DU?$char_traits@D@std@@V?$allocator@D@2@@std@@U?$less@PBD@2@V?$allocator@U?$pair@QBDV?$basic_string@DU?$char_traits@D@std@@V?$allocator@D@2@@std@@@std@@@2@$0A@@std@@@2@@Z 1000a480 f i debug.obj
 0001:00009480       ?_Erase@?$_Tree@V?$_Tmap_traits@KV?$basic_string@DU?$char_traits@D@std@@V?$allocator@D@2@@std@@U?$less@K@2@V?$allocator@U?$pair@$$CBKV?$basic_string@DU?$char_traits@D@std@@V?$allocator@D@2@@std@@@std@@@2@$0A@@std@@@std@@IAEXPAU_Node@?$_Tree_nod@V?$_Tmap_traits@KV?$basic_string@DU?$char_traits@D@std@@V?$allocator@D@2@@std@@U?$less@K@2@V?$allocator@U?$pair@$$CBKV?$basic_string@DU?$char_traits@D@std@@V?$allocator@D@2@@std@@@std@@@2@$0A@@std@@@2@@Z 1000a480 f i debug.obj
 0001:000094e0       ?_Insert@?$_Tree@V?$_Tmap_traits@PBDV?$basic_string@DU?$char_traits@D@std@@V?$allocator@D@2@@std@@U?$less@PBD@2@V?$allocator@U?$pair@QBDV?$basic_string@DU?$char_traits@D@std@@V?$allocator@D@2@@std@@@std@@@2@$0A@@std@@@std@@IAE?AViterator@12@_NPAU_Node@?$_Tree_nod@V?$_Tmap_traits@PBDV?$basic_string@DU?$char_traits@D@std@@V?$allocator@D@2@@std@@U?$less@PBD@2@V?$allocator@U?$pair@QBDV?$basic_string@DU?$char_traits@D@std@@V?$allocator@D@2@@std@@@std@@@2@$0A@@std@@@2@ABU?$pair@QBDV?$basic_string@DU?$char_traits@D@std@@V?$allocator@D@2@@std@@@2@@Z 1000a4e0 f i debug.obj
 0001:000096e0       ?insert@?$_Tree@V?$_Tmap_traits@PBDV?$basic_string@DU?$char_traits@D@std@@V?$allocator@D@2@@std@@U?$less@PBD@2@V?$allocator@U?$pair@QBDV?$basic_string@DU?$char_traits@D@std@@V?$allocator@D@2@@std@@@std@@@2@$0A@@std@@@std@@QAE?AU?$pair@Viterator@?$_Tree@V?$_Tmap_traits@PBDV?$basic_string@DU?$char_traits@D@std@@V?$allocator@D@2@@std@@U?$less@PBD@2@V?$allocator@U?$pair@QBDV?$basic_string@DU?$char_traits@D@std@@V?$allocator@D@2@@std@@@std@@@2@$0A@@std@@@std@@_N@2@ABU?$pair@QBDV?$basic_string@DU?$char_traits@D@std@@V?$allocator@D@2@@std@@@2@@Z 1000a6e0 f i debug.obj
 0001:000097a0       ?erase@?$_Tree@V?$_Tmap_traits@PBDV?$basic_string@DU?$char_traits@D@std@@V?$allocator@D@2@@std@@U?$less@PBD@2@V?$allocator@U?$pair@QBDV?$basic_string@DU?$char_traits@D@std@@V?$allocator@D@2@@std@@@std@@@2@$0A@@std@@@std@@QAE?AViterator@12@V312@0@Z 1000a7a0 f i debug.obj
 0001:000097a0       ?erase@?$_Tree@V?$_Tmap_traits@KV?$basic_string@DU?$char_traits@D@std@@V?$allocator@D@2@@std@@U?$less@K@2@V?$allocator@U?$pair@$$CBKV?$basic_string@DU?$char_traits@D@std@@V?$allocator@D@2@@std@@@std@@@2@$0A@@std@@@std@@QAE?AViterator@12@V312@0@Z 1000a7a0 f i debug.obj
 0001:00009870       ?insert@?$_Tree@V?$_Tmap_traits@PBDV?$basic_string@DU?$char_traits@D@std@@V?$allocator@D@2@@std@@U?$less@PBD@2@V?$allocator@U?$pair@QBDV?$basic_string@DU?$char_traits@D@std@@V?$allocator@D@2@@std@@@std@@@2@$0A@@std@@@std@@QAE?AViterator@12@V312@ABU?$pair@QBDV?$basic_string@DU?$char_traits@D@std@@V?$allocator@D@2@@std@@@2@@Z 1000a870 f i debug.obj
 0001:00009a30       ??A?$map@PBDV?$basic_string@DU?$char_traits@D@std@@V?$allocator@D@2@@std@@U?$less@PBD@2@V?$allocator@U?$pair@QBDV?$basic_string@DU?$char_traits@D@std@@V?$allocator@D@2@@std@@@std@@@2@@std@@QAEAAV?$basic_string@DU?$char_traits@D@std@@V?$allocator@D@2@@1@ABQBD@Z 1000aa30 f i debug.obj
 0001:00009b60       ?_load256@@YGXPBD0@Z       1000ab60 f   debug.obj
 0001:00009ba0       ?DBG_load256@@YAXXZ        1000aba0 f   debug.obj
 0001:00009be0       ?GetLength@File@@QAEIXZ    1000abe0 f   File.obj
 0001:00009bf0       ?size@?$vector@URecord@FileArchive@@V?$allocator@URecord@FileArchive@@@std@@@std@@QBEIXZ 1000abf0 f i File.obj
 0001:00009c10       ??Y?$_String_const_iterator@DU?$char_traits@D@std@@V?$allocator@D@2@@std@@QAEAAV01@H@Z 1000ac10 f i File.obj
 0001:00009c70       ??$_Allocate@URecord@FileArchive@@@std@@YAPAURecord@FileArchive@@IPAU12@@Z 1000ac70 f i File.obj
 0001:00009cd0       ??$_Allocate@PAURecord@FileArchive@@@std@@YAPAPAURecord@FileArchive@@IPAPAU12@@Z 1000acd0 f i File.obj
 0001:00009cd0       ??$_Allocate@PAPAVResponse@happyhttp@@@std@@YAPAPAPAVResponse@happyhttp@@IPAPAPAV12@@Z 1000acd0 f i happyhttp.obj
 0001:00009cd0       ??$_Allocate@I@std@@YAPAIIPAI@Z 1000acd0 f i File.obj
 0001:00009d30       ?tellg@?$basic_istream@DU?$char_traits@D@std@@@std@@QAE?AV?$fpos@H@2@XZ 1000ad30 f i File.obj
 0001:00009d80       ?_Tidy@?$vector@URecord@FileArchive@@V?$allocator@URecord@FileArchive@@@std@@@std@@IAEXXZ 1000ad80 f i File.obj
 0001:00009dd0       ??$_Copy_opt@PAURecord@FileArchive@@PAU12@@std@@YAPAURecord@FileArchive@@PAU12@00Urandom_access_iterator_tag@0@U_Nonscalar_ptr_iterator_tag@0@U_Range_checked_iterator_tag@0@@Z 1000add0 f i File.obj
 0001:00009e20       ??1?$vector@URecord@FileArchive@@V?$allocator@URecord@FileArchive@@@std@@@std@@QAE@XZ 1000ae20 f i File.obj
 0001:00009e30       ??$fill@PAPAURecord@FileArchive@@PAU12@@std@@YAXPAPAURecord@FileArchive@@0ABQAU12@@Z 1000ae30 f i File.obj
 0001:00009e30       ??$fill@PAII@std@@YAXPAI0ABI@Z 1000ae30 f i File.obj
 0001:00009e50       ??$_Unchecked_move_backward@PAPAURecord@FileArchive@@PAPAU12@@stdext@@YAPAPAURecord@FileArchive@@PAPAU12@00@Z 1000ae50 f i File.obj
 0001:00009e50       ??$_Unchecked_move_backward@PAIPAI@stdext@@YAPAIPAI00@Z 1000ae50 f i File.obj
 0001:00009e80       ??$unchecked_copy@PAURecord@FileArchive@@PAU12@@stdext@@YAPAURecord@FileArchive@@PAU12@00@Z 1000ae80 f i File.obj
 0001:00009eb0       ??1?$vector@PAURecord@FileArchive@@V?$allocator@PAURecord@FileArchive@@@std@@@std@@QAE@XZ 1000aeb0 f i File.obj
 0001:00009eb0       ??1?$vector@IV?$allocator@I@std@@@std@@QAE@XZ 1000aeb0 f i File.obj
 0001:00009ee0       ??1FileArchive@@QAE@XZ     1000aee0 f i File.obj
 0001:00009f70       ??1Record@FileArchive@@QAE@XZ 1000af70 f i File.obj
 0001:0000a000       ?insert@?$basic_string@DU?$char_traits@D@std@@V?$allocator@D@2@@std@@QAEAAV12@IID@Z 1000b000 f i File.obj
 0001:0000a100       ?erase@?$basic_string@DU?$char_traits@D@std@@V?$allocator@D@2@@std@@QAE?AV?$_String_iterator@DU?$char_traits@D@std@@V?$allocator@D@2@@2@V32@0@Z 1000b100 f i File.obj
 0001:0000a1d0       ??$_Umove@PAPAURecord@FileArchive@@@?$vector@PAURecord@FileArchive@@V?$allocator@PAURecord@FileArchive@@@std@@@std@@IAEPAPAURecord@FileArchive@@PAPAU23@00@Z 1000b1d0 f i File.obj
 0001:0000a1d0       ??$_Umove@PAI@?$vector@IV?$allocator@I@std@@@std@@IAEPAIPAI00@Z 1000b1d0 f i File.obj
 0001:0000a200       ?insert@?$basic_string@DU?$char_traits@D@std@@V?$allocator@D@2@@std@@QAE?AV?$_String_iterator@DU?$char_traits@D@std@@V?$allocator@D@2@@2@V32@D@Z 1000b200 f i File.obj
 0001:0000a2e0       ?clear@?$basic_string@DU?$char_traits@D@std@@V?$allocator@D@2@@std@@QAEXXZ 1000b2e0 f i File.obj
 0001:0000a380       ?_Ufill@?$vector@PAURecord@FileArchive@@V?$allocator@PAURecord@FileArchive@@@std@@@std@@IAEPAPAURecord@FileArchive@@PAPAU34@IABQAU34@@Z 1000b380 f i File.obj
 0001:0000a380       ?_Ufill@?$vector@IV?$allocator@I@std@@@std@@IAEPAIPAIIABI@Z 1000b380 f i File.obj
 0001:0000a3b0       ?_Xlen@?$vector@IV?$allocator@I@std@@@std@@KAXXZ 1000b3b0 f i File.obj
 0001:0000a3b0       ?_Xlen@?$vector@EV?$allocator@E@std@@@std@@KAXXZ 1000b3b0 f i serialize.obj
 0001:0000a3b0       ?_Xlen@?$vector@V?$vector@V?$basic_string@DU?$char_traits@D@std@@V?$allocator@D@2@@std@@V?$allocator@V?$basic_string@DU?$char_traits@D@std@@V?$allocator@D@2@@std@@@2@@std@@V?$allocator@V?$vector@V?$basic_string@DU?$char_traits@D@std@@V?$allocator@D@2@@std@@V?$allocator@V?$basic_string@DU?$char_traits@D@std@@V?$allocator@D@2@@std@@@2@@std@@@2@@std@@KAXXZ 1000b3b0 f i chat_history.obj
 0001:0000a3b0       ?_Xlen@?$vector@URecord@FileArchive@@V?$allocator@URecord@FileArchive@@@std@@@std@@KAXXZ 1000b3b0 f i File.obj
 0001:0000a3b0       ?_Xlen@?$vector@PAURecord@FileArchive@@V?$allocator@PAURecord@FileArchive@@@std@@@std@@KAXXZ 1000b3b0 f i File.obj
 0001:0000a3b0       ?_Xlen@?$vector@V?$basic_string@DU?$char_traits@D@std@@V?$allocator@D@2@@std@@V?$allocator@V?$basic_string@DU?$char_traits@D@std@@V?$allocator@D@2@@std@@@2@@std@@KAXXZ 1000b3b0 f i chat_history.obj
 0001:0000a430       ??$?HDU?$char_traits@D@std@@V?$allocator@D@1@@std@@YA?AV?$basic_string@DU?$char_traits@D@std@@V?$allocator@D@2@@0@PBDABV10@@Z 1000b430 f i File.obj
 0001:0000a4f0       ?seekg@?$basic_istream@DU?$char_traits@D@std@@@std@@QAEAAV12@V?$fpos@H@2@@Z 1000b4f0 f i File.obj
 0001:0000a580       ?seekg@?$basic_istream@DU?$char_traits@D@std@@@std@@QAEAAV12@JH@Z 1000b580 f i File.obj
 0001:0000a5f0       ?_Buy@?$vector@URecord@FileArchive@@V?$allocator@URecord@FileArchive@@@std@@@std@@IAE_NI@Z 1000b5f0 f i File.obj
 0001:0000a640       ?_Insert_n@?$vector@IV?$allocator@I@std@@@std@@IAEXV?$_Vector_iterator@IV?$allocator@I@std@@@2@IABI@Z 1000b640 f i File.obj
 0001:0000a640       ?_Insert_n@?$vector@PAURecord@FileArchive@@V?$allocator@PAURecord@FileArchive@@@std@@@std@@IAEXV?$_Vector_iterator@PAURecord@FileArchive@@V?$allocator@PAURecord@FileArchive@@@std@@@2@IABQAURecord@FileArchive@@@Z 1000b640 f i File.obj
 0001:0000a800       ?Close@File@@QAEXXZ        1000b800 f   File.obj
 0001:0000a850       ?Seek@File@@QAEXI@Z        1000b850 f   File.obj
 0001:0000a880       ?insert@?$vector@PAURecord@FileArchive@@V?$allocator@PAURecord@FileArchive@@@std@@@std@@QAE?AV?$_Vector_iterator@PAURecord@FileArchive@@V?$allocator@PAURecord@FileArchive@@@std@@@2@V32@ABQAURecord@FileArchive@@@Z 1000b880 f i File.obj
 0001:0000a880       ?insert@?$vector@IV?$allocator@I@std@@@std@@QAE?AV?$_Vector_iterator@IV?$allocator@I@std@@@2@V32@ABI@Z 1000b880 f i File.obj
 0001:0000a910       ??0Record@FileArchive@@QAE@XZ 1000b910 f i File.obj
 0001:0000a9a0       ??1File@@QAE@XZ            1000b9a0 f i File.obj
 0001:0000aa30       ?push_back@?$vector@PAURecord@FileArchive@@V?$allocator@PAURecord@FileArchive@@@std@@@std@@QAEXABQAURecord@FileArchive@@@Z 1000ba30 f i File.obj
 0001:0000aa30       ?push_back@?$vector@IV?$allocator@I@std@@@std@@QAEXABI@Z 1000ba30 f i File.obj
 0001:0000aaa0       ?_Read_s@?$basic_istream@DU?$char_traits@D@std@@@std@@QAEAAV12@PADIH@Z 1000baa0 f i File.obj
 0001:0000abc0       ?_Destroy@?$vector@URecord@FileArchive@@V?$allocator@URecord@FileArchive@@@std@@@std@@IAEXPAURecord@FileArchive@@0@Z 1000bbc0 f i File.obj
 0001:0000abf0       ??0?$vector@URecord@FileArchive@@V?$allocator@URecord@FileArchive@@@std@@@std@@QAE@ABV01@@Z 1000bbf0 f i File.obj
 0001:0000acf0       ?erase@?$vector@URecord@FileArchive@@V?$allocator@URecord@FileArchive@@@std@@@std@@QAE?AV?$_Vector_iterator@URecord@FileArchive@@V?$allocator@URecord@FileArchive@@@std@@@2@V32@0@Z 1000bcf0 f i File.obj
 0001:0000ad70       ??0Record@FileArchive@@QAE@ABU01@@Z 1000bd70 f i File.obj
 0001:0000ae20       ?clear@?$vector@URecord@FileArchive@@V?$allocator@URecord@FileArchive@@@std@@@std@@QAEXXZ 1000be20 f i File.obj
 0001:0000ae60       ?GetRecord@FileArchive@@QAEABURecord@1@V?$basic_string@DU?$char_traits@D@std@@V?$allocator@D@2@@std@@@Z 1000be60 f   File.obj
 0001:0000b260       ?Read@File@@QAEIPAXI@Z     1000c260 f   File.obj
 0001:0000b2c0       ??$_Uninit_copy@PAURecord@FileArchive@@PAU12@V?$allocator@URecord@FileArchive@@@std@@@std@@YAPAURecord@FileArchive@@PAU12@00AAV?$allocator@URecord@FileArchive@@@0@U_Nonscalar_ptr_iterator_tag@0@U_Range_checked_iterator_tag@0@@Z 1000c2c0 f i File.obj
 0001:0000b2c0       ??$_Uninit_copy@PBURecord@FileArchive@@PAU12@V?$allocator@URecord@FileArchive@@@std@@@std@@YAPAURecord@FileArchive@@PBU12@0PAU12@AAV?$allocator@URecord@FileArchive@@@0@U_Nonscalar_ptr_iterator_tag@0@U_Range_checked_iterator_tag@0@@Z 1000c2c0 f i File.obj
 0001:0000b360       ??0File@@QAE@XZ            1000c360 f   File.obj
 0001:0000b3e0       ?Open@File@@QAE_NV?$basic_string@DU?$char_traits@D@std@@V?$allocator@D@2@@std@@@Z 1000c3e0 f   File.obj
 0001:0000b6a0       ?FileExistsEx@@YA_NV?$basic_string@DU?$char_traits@D@std@@V?$allocator@D@2@@std@@@Z 1000c6a0 f   File.obj
 0001:0000b7e0       ??$_Uninit_fill_n@PAURecord@FileArchive@@IU12@V?$allocator@URecord@FileArchive@@@std@@@std@@YAXPAURecord@FileArchive@@IABU12@AAV?$allocator@URecord@FileArchive@@@0@U_Nonscalar_ptr_iterator_tag@0@U_Range_checked_iterator_tag@0@@Z 1000c7e0 f i File.obj
 0001:0000b880       ??$_Ucopy@PAURecord@FileArchive@@@?$vector@URecord@FileArchive@@V?$allocator@URecord@FileArchive@@@std@@@std@@IAEPAURecord@FileArchive@@PAU23@00@Z 1000c880 f i File.obj
 0001:0000b880       ??$_Umove@PAURecord@FileArchive@@@?$vector@URecord@FileArchive@@V?$allocator@URecord@FileArchive@@@std@@@std@@IAEPAURecord@FileArchive@@PAU23@00@Z 1000c880 f i File.obj
 0001:0000b8b0       ?_Ufill@?$vector@URecord@FileArchive@@V?$allocator@URecord@FileArchive@@@std@@@std@@IAEPAURecord@FileArchive@@PAU34@IABU34@@Z 1000c8b0 f i File.obj
 0001:0000b8f0       ??4?$vector@URecord@FileArchive@@V?$allocator@URecord@FileArchive@@@std@@@std@@QAEAAV01@ABV01@@Z 1000c8f0 f i File.obj
 0001:0000ba70       ??4Record@FileArchive@@QAEAAU01@ABU01@@Z 1000ca70 f i File.obj
 0001:0000bac0       ??$_Copy_backward_opt@PAURecord@FileArchive@@PAU12@Uforward_iterator_tag@std@@@std@@YAPAURecord@FileArchive@@PAU12@00Uforward_iterator_tag@0@U_Nonscalar_ptr_iterator_tag@0@U_Range_checked_iterator_tag@0@@Z 1000cac0 f i File.obj
 0001:0000bb30       ??$_Fill@PAURecord@FileArchive@@U12@@std@@YAXPAURecord@FileArchive@@0ABU12@@Z 1000cb30 f i File.obj
 0001:0000bb90       ??$_Copy_backward_opt@PAURecord@FileArchive@@PAU12@@std@@YAPAURecord@FileArchive@@PAU12@00Urandom_access_iterator_tag@0@U_Nonscalar_ptr_iterator_tag@0@U_Range_checked_iterator_tag@0@@Z 1000cb90 f i File.obj
 0001:0000bbf0       ??$_Unchecked_move_backward@PAURecord@FileArchive@@PAU12@@stdext@@YAPAURecord@FileArchive@@PAU12@00@Z 1000cbf0 f i File.obj
 0001:0000bc20       ?_Insert_n@?$vector@URecord@FileArchive@@V?$allocator@URecord@FileArchive@@@std@@@std@@IAEXV?$_Vector_iterator@URecord@FileArchive@@V?$allocator@URecord@FileArchive@@@std@@@2@IABURecord@FileArchive@@@Z 1000cc20 f i File.obj
 0001:0000bf20       ?insert@?$vector@URecord@FileArchive@@V?$allocator@URecord@FileArchive@@@std@@@std@@QAE?AV?$_Vector_iterator@URecord@FileArchive@@V?$allocator@URecord@FileArchive@@@std@@@2@V32@ABURecord@FileArchive@@@Z 1000cf20 f i File.obj
 0001:0000bfd0       ?push_back@?$vector@URecord@FileArchive@@V?$allocator@URecord@FileArchive@@@std@@@std@@QAEXABURecord@FileArchive@@@Z 1000cfd0 f i File.obj
 0001:0000c070       ?Open@FileArchive@@QAE_NV?$basic_string@DU?$char_traits@D@std@@V?$allocator@D@2@@std@@0@Z 1000d070 f   File.obj
 0001:0000c8f0       ?GRID_part1@@YAXXZ         1000d8f0 f   grid.obj
 0001:0000c950       ?GRID_part2@@YAXXZ         1000d950 f   grid.obj
 0001:0000c9b0       ?GRID_part3@@YAXXZ         1000d9b0 f   grid.obj
 0001:0000ca10       ?GRID_part4@@YAXXZ         1000da10 f   grid.obj
 0001:0000ca80       ?GRID_part5@@YAXXZ         1000da80 f   grid.obj
 0001:0000cae0       ?OnGMEnter@@YAKKK@Z        1000dae0 f   gui_bugfix.obj
 0001:0000cb20       ?GUI_gmEnter@@YAXXZ        1000db20 f   gui_bugfix.obj
 0001:0000cb70       ?GUI_textField_MeasurePosition@@YGKK@Z 1000db70 f   gui_bugfix.obj
 0001:0000cd30       ??1Image@@QAE@XZ           1000dd30 f   Image.obj
 0001:0000cd60       ?GetWidth@Image@@QAEIXZ    1000dd60 f   Image.obj
 0001:0000cd70       ?GetHeight@Image@@QAEIXZ   1000dd70 f   Image.obj
 0001:0000cd80       ?GetPixels@Image@@QAEPAIXZ 1000dd80 f   Image.obj
 0001:0000cd90       ??0Image@@QAE@V?$basic_string@DU?$char_traits@D@std@@V?$allocator@D@2@@std@@@Z 1000dd90 f   Image.obj
 0001:0000d1b0       ?IImage_CopyTo@@YGXHHHH@Z  1000e1b0 f   itempng.obj
 0001:0000d220       ?IImage_Display@@YGXHHHHH@Z 1000e220 f   itempng.obj
 0001:0000d460       ?IImage_Destruct@@YGXK@Z   1000e460 f   itempng.obj
 0001:0000d4a0       ?IImage_Construct@@YGPAXV?$basic_string@DU?$char_traits@D@std@@V?$allocator@D@2@@std@@@Z 1000e4a0 f   itempng.obj
 0001:0000d5a0       ?ITEMPNG_doLoadPngChar@@YGPAXPBD0@Z 1000e5a0 f   itempng.obj
 0001:0000d720       ?ITEMPNG_loadPngChar@@YAXXZ 1000e720 f   itempng.obj
 0001:0000d750       ?ITEMPNG_doLoadPng@@YGXPBDH00@Z 1000e750 f   itempng.obj
 0001:0000dbe0       ?ITEMPNG_loadPng@@YAXXZ    1000ebe0 f   itempng.obj
 0001:0000dc40       ?P_UnloadTiles@@YAXXZ      1000ec40 f   landscape_renderer.obj
 0001:0000dcb0       ?P_DisplayTileNative@@YGXGHHHHHHIIII@Z 1000ecb0 f   landscape_renderer.obj
 0001:0000dd10       ?TILES_displayTile1@@YAXXZ 1000ed10 f   landscape_renderer.obj
 0001:0000dd60       ?P_LoadTiles@@YAXXZ        1000ed60 f   landscape_renderer.obj
 0001:0000e0b0       ?P_LoadTilesNative@@YGXI@Z 1000f0b0 f   landscape_renderer.obj
 0001:0000e0d0       ?TILES_loadTiles@@YAXXZ    1000f0d0 f   landscape_renderer.obj
 0001:0000e100       ?DecideLanguage@@YAXXZ     1000f100 f   language.obj
 0001:0000e3c0       ?LANG_change_43EDEB@@YAXXZ 1000f3c0 f   language.obj
 0001:0000e3f0       ?LANG_change_474F27@@YAXXZ 1000f3f0 f   language.obj
 0001:0000e410       ?LANG_change_48626D@@YAXXZ 1000f410 f   language.obj
 0001:0000e530       ?LANG_change_48BA07@@YAXXZ 1000f530 f   language.obj
 0001:0000e550       ?LANG_change_48CA55@@YAXXZ 1000f550 f   language.obj
 0001:0000e570       ?LANG_change_491CDF@@YAXXZ 1000f570 f   language.obj
 0001:0000e590       ?LANG_change_4939A2@@YAXXZ 1000f590 f   language.obj
 0001:0000e5b0       ?LANG_change_493B23@@YAXXZ 1000f5b0 f   language.obj
 0001:0000e5d0       ?LANG_change_4B018F@@YAXXZ 1000f5d0 f   language.obj
 0001:0000e5f0       ?LANG_change_42B3D5@@YAXXZ 1000f5f0 f   language.obj
 0001:0000e600       ?LANG_change_43EEC3@@YAXXZ 1000f600 f   language.obj
 0001:0000e620       ?LANG_change_460F9B@@YAXXZ 1000f620 f   language.obj
 0001:0000e630       ?LANG_change_474375@@YAXXZ 1000f630 f   language.obj
 0001:0000e640       ?LANG_change_4743C9@@YAXXZ 1000f640 f   language.obj
 0001:0000e650       ?LANG_change_496638@@YAXXZ 1000f650 f   language.obj
 0001:0000e660       ?LANG_change_4AEE20@@YAXXZ 1000f660 f   language.obj
 0001:0000e670       ?LANG_change_4AEE6D@@YAXXZ 1000f670 f   language.obj
 0001:0000e680       ?LANG_change_4AEF2A@@YAXXZ 1000f680 f   language.obj
 0001:0000e6a0       ?LANG_change_4AEF9C@@YAXXZ 1000f6a0 f   language.obj
 0001:0000e6c0       ?LANG_change_4AF00E@@YAXXZ 1000f6c0 f   language.obj
 0001:0000e6e0       ?LANG_fix_codepage@@YAXXZ  1000f6e0 f   language.obj
 0001:0000e700       ?get_map_name@@YGPBDPBD@Z  1000f700 f   map_location.obj
 0001:0000e810       ?move_map_file@@YGXPBD0@Z  1000f810 f   map_location.obj
 0001:0000e9f0       ?MAP_loadFromServer@@YAXXZ 1000f9f0 f   map_location.obj
 0001:0000ea10       ?MAP_CFileOpen1@@YAXXZ     1000fa10 f   map_location.obj
 0001:0000ea30       ?MAP_CFileOpen2@@YAXXZ     1000fa30 f   map_location.obj
 0001:0000ea50       ?logEscape@@YGXKE@Z        1000fa50 f   chat_history.obj
 0001:0000ea50       ?SYSTEM_setThreadPriority@@YAXXZ 1000fa50 f   misc.obj
 0001:0000ea60       ?crypt@@YAXPAEPBEH@Z       1000fa60 f   network_crypt.obj
 0001:0000eab0       ?NET_cryptPacket@@YAXPAEH@Z 1000fab0 f   network_crypt.obj
 0001:0000ead0       ?HATENT_url_text@@YAXXZ    1000fad0 f   network_hat_enter.obj
 0001:0000eaf0       ?HATENT_url_connect@@YAXXZ 1000faf0 f   network_hat_enter.obj
 0001:0000eb20       ?crcmain@@YGXPAD@Z         1000fb20 f   network_protocol.obj
 0001:0000ec80       ?NETPROTO_sendAuthorizationPacket@@YAHXZ 1000fc80 f   network_protocol.obj
 0001:0000ecf0       ?NETPROTO_createAuthorizationPacket@@YAHXZ 1000fcf0 f   network_protocol.obj
 0001:0000ede0       ?recv_@@YGHIPADHH@Z        1000fde0 f   network_protocol.obj
 0001:0000efb0       ?NETPROTO_enlargeBuffer@@YAXXZ 1000ffb0 f   network_protocol.obj
 0001:0000efe0       ?NETPROTO_enlargeBuffer2@@YAXXZ 1000ffe0 f   network_protocol.obj
 0001:0000eff0       ?real_4949CD@@YAHXZ        1000fff0 f   network_protocol_ext.obj
 0001:0000f010       ?NETPROTO_showErrorDialog@@YAHPBDH@Z 10010010 f   network_protocol_ext.obj
 0001:0000f070       ?NETPROTO_hhEndReply@@YAXPBVResponse@happyhttp@@PAX@Z 10010070 f   network_protocol_ext.obj
 0001:0000f090       ?do_always_noconv@codecvt_base@std@@MBE_NXZ 10010090 f   config.obj
 0001:0000f090       ?Cl_ProcessServerPacket@@YA_NAAVBinaryStream@@@Z 10010090 f   network_protocol_ext.obj
 0001:0000f0a0       ??1NETPROTO_fileProgress@@QAE@XZ 100100a0 f i network_protocol_ext.obj
 0001:0000f0f0       ??0NETPROTO_fileProgress@@QAE@XZ 100100f0 f i network_protocol_ext.obj
 0001:0000f190       ?NETPROTO_hhStartReply@@YAXPBVResponse@happyhttp@@PAX@Z 10010190 f   network_protocol_ext.obj
 0001:0000f2a0       ?NETPROTO_hhReadReply@@YAXPBVResponse@happyhttp@@PAXPBEH@Z 100102a0 f   network_protocol_ext.obj
 0001:0000f6a0       ?CurlEscape2@@YA?AV?$basic_string@DU?$char_traits@D@std@@V?$allocator@D@2@@std@@V12@@Z 100106a0 f   network_protocol_ext.obj
 0001:0000f7b0       ?NETPROTO_hhGetBlockingReply@@YA?AV?$basic_string@DU?$char_traits@D@std@@V?$allocator@D@2@@std@@V12@00@Z 100107b0 f   network_protocol_ext.obj
 0001:0000fa20       ?NETPROTO_loginToHat@@YGHXZ 10010a20 f   network_protocol_ext.obj
 0001:00010300       ?PSCRL_rep@@YGKK@Z         10011300 f   pack_scrolling.obj
 0001:000103d0       ?PSCRL_gameInventory@@YAXXZ 100113d0 f   pack_scrolling.obj
 0001:00010460       ?PSCRL_shopShelfOnKeyDown@@YAXXZ 10011460 f   pack_scrolling.obj
 0001:000104a0       ?PSCRL_InitializeInjection@@YAXXZ 100114a0 f   pack_scrolling.obj
 0001:000104c0       ?RES_loadException@@YAXXZ  100114c0 f   resource_control.obj
 0001:000104d0       ?RES_loadDirectories@@YAXXZ 100114d0 f   resource_control.obj
 0001:00010500       ?TestGraphics@@YG_NPBD@Z   10011500 f   resource_control.obj
 0001:00010520       ?RES_loadFile@@YAHH@Z      10011520 f   resource_control.obj
 0001:000105d0       ?FIL_world0@@YAXXZ         100115d0 f   resource_files_replace.obj
 0001:000105f0       ?FIL_world1@@YAXXZ         100115f0 f   resource_files_replace.obj
 0001:00010610       ?FIL_world2@@YAXXZ         10011610 f   resource_files_replace.obj
 0001:00010630       ?FIL_world3@@YAXXZ         10011630 f   resource_files_replace.obj
 0001:00010640       ?FIL_world4@@YAXXZ         10011640 f   resource_files_replace.obj
 0001:00010650       ?FIL_world5@@YAXXZ         10011650 f   resource_files_replace.obj
 0001:00010660       ?FIL_world6@@YAXXZ         10011660 f   resource_files_replace.obj
 0001:00010670       ?FIL_world7@@YAXXZ         10011670 f   resource_files_replace.obj
 0001:00010690       ?FIL_world8@@YAXXZ         10011690 f   resource_files_replace.obj
 0001:000106a0       ?FIL_world9@@YAXXZ         100116a0 f   resource_files_replace.obj
 0001:000106b0       ?FIL_worldA@@YAXXZ         100116b0 f   resource_files_replace.obj
 0001:000106c0       ?FIL_patch0@@YAXXZ         100116c0 f   resource_files_replace.obj
 0001:000106d0       ?FIL_patch1@@YAXXZ         100116d0 f   resource_files_replace.obj
 0001:000106f0       ?a2mgr_CheckValid@@YA_NFF@Z 100116f0 f   scanrange.obj
 0001:00010740       ?a2mgr_GetHeight@@YAEFF@Z  10011740 f   scanrange.obj
 0001:000107a0       ?CalcVisMapCLIENT@@YGHPAD@Z 100117a0 f   scanrange.obj
 0001:00010820       ?GetEncoderClsid@@YAHPB_WPAU_GUID@@@Z 10011820 f   screenshot.obj
 0001:00010920       ?SCREENSHOT_take@@YAXXZ    10011920 f   screenshot.obj
 0001:00010d40       ?SCROLL_part1@@YAXXZ       10011d40 f   scrolling.obj
 0001:00010da0       ?SCROLL_part2@@YAXXZ       10011da0 f   scrolling.obj
 0001:00010dd0       ??1?$basic_ostream@DU?$char_traits@D@std@@@std@@UAE@XZ 10011dd0 f i serialize.obj
 0001:00010de0       ??_G?$basic_ostream@DU?$char_traits@D@std@@@std@@UAEPAXI@Z 10011de0 f i serialize.obj
 0001:00010de0       ??_E?$basic_ostream@DU?$char_traits@D@std@@@std@@UAEPAXI@Z 10011de0 f i serialize.obj
 0001:00010e20       ??$fill@PAEE@std@@YAXPAE0ABE@Z 10011e20 f i serialize.obj
 0001:00010e40       ??$_Unchecked_move_backward@PAEPAE@stdext@@YAPAEPAE00@Z 10011e40 f i serialize.obj
 0001:00010e70       ??$_Umove@PAE@?$vector@EV?$allocator@E@std@@@std@@IAEPAEPAE00@Z 10011e70 f i serialize.obj
 0001:00010ea0       ?_Ufill@?$vector@EV?$allocator@E@std@@@std@@IAEPAEPAEIABE@Z 10011ea0 f i serialize.obj
 0001:00010ed0       ?_Insert_n@?$vector@EV?$allocator@E@std@@@std@@IAEXV?$_Vector_iterator@EV?$allocator@E@std@@@2@IABE@Z 10011ed0 f i serialize.obj
 0001:00011080       ??1?$basic_ofstream@DU?$char_traits@D@std@@@std@@UAE@XZ 10012080 f i serialize.obj
 0001:000110f0       ?insert@?$vector@EV?$allocator@E@std@@@std@@QAE?AV?$_Vector_iterator@EV?$allocator@E@std@@@2@V32@ABE@Z 100120f0 f i serialize.obj
 0001:00011180       ??_G?$basic_ofstream@DU?$char_traits@D@std@@@std@@UAEPAXI@Z 10012180 f i serialize.obj
 0001:00011180       ??_E?$basic_ofstream@DU?$char_traits@D@std@@@std@@UAEPAXI@Z 10012180 f i serialize.obj
 0001:000111c0       ??0sentry@?$basic_ostream@DU?$char_traits@D@std@@@std@@QAE@AAV12@@Z 100121c0 f i serialize.obj
 0001:00011250       ?_Osfx@?$basic_ostream@DU?$char_traits@D@std@@@std@@QAEXXZ 10012250 f i serialize.obj
 0001:000112b0       ??1sentry@?$basic_ostream@DU?$char_traits@D@std@@@std@@QAE@XZ 100122b0 f i serialize.obj
 0001:00011320       ??0?$basic_ofstream@DU?$char_traits@D@std@@@std@@QAE@XZ 10012320 f i serialize.obj
 0001:00011420       ?IsWhitespace@@YA_ND@Z     10012420 f   utils.obj
 0001:00011550       ?_call_func@@YAKKKZZ       10012550 f   utils.obj
 0001:00011580       ?_call_member_func@@YAKKKKZZ 10012580 f   utils.obj
 0001:000115b0       ?_get_this@@YAKXZ          100125b0 f   utils.obj
 0001:000115c0       ?StrToInt@@YAKABV?$basic_string@DU?$char_traits@D@std@@V?$allocator@D@2@@std@@@Z 100125c0 f   utils.obj
 0001:000115f0       ?CheckInteger@@YA_NABV?$basic_string@DU?$char_traits@D@std@@V?$allocator@D@2@@std@@@Z 100125f0 f   utils.obj
 0001:00011660       ?rbegin@?$basic_string@DU?$char_traits@D@std@@V?$allocator@D@2@@std@@QAE?AV?$reverse_iterator@V?$_String_iterator@DU?$char_traits@D@std@@V?$allocator@D@2@@std@@@2@XZ 10012660 f i utils.obj
 0001:000116c0       ?erase@?$basic_string@DU?$char_traits@D@std@@V?$allocator@D@2@@std@@QAE?AV?$_String_iterator@DU?$char_traits@D@std@@V?$allocator@D@2@@2@V32@@Z 100126c0 f i utils.obj
 0001:00011750       ?ToLower@@YA?AV?$basic_string@DU?$char_traits@D@std@@V?$allocator@D@2@@std@@ABV12@@Z 10012750 f   utils.obj
 0001:00011880       ?Basename@@YA?AV?$basic_string@DU?$char_traits@D@std@@V?$allocator@D@2@@std@@ABV12@@Z 10012880 f   utils.obj
 0001:00011980       ?Dirname@@YA?AV?$basic_string@DU?$char_traits@D@std@@V?$allocator@D@2@@std@@ABV12@@Z 10012980 f   utils.obj
 0001:00011a80       ?FixSlashes@@YA?AV?$basic_string@DU?$char_traits@D@std@@V?$allocator@D@2@@std@@ABV12@@Z 10012a80 f   utils.obj
 0001:00011bb0       ?TruncateSlashes@@YA?AV?$basic_string@DU?$char_traits@D@std@@V?$allocator@D@2@@std@@ABV12@@Z 10012bb0 f   utils.obj
 0001:00011d60       ?Format@@YA?AV?$basic_string@DU?$char_traits@D@std@@V?$allocator@D@2@@std@@V12@ZZ 10012d60 f   utils.obj
 0001:00011e60       ?TrimLeft@@YA?AV?$basic_string@DU?$char_traits@D@std@@V?$allocator@D@2@@std@@ABV12@P6A_ND@Z@Z 10012e60 f   utils.obj
 0001:000120b0       ?TrimRight@@YA?AV?$basic_string@DU?$char_traits@D@std@@V?$allocator@D@2@@std@@ABV12@P6A_ND@Z@Z 100130b0 f   utils.obj
 0001:00012310       ?Trim@@YA?AV?$basic_string@DU?$char_traits@D@std@@V?$allocator@D@2@@std@@ABV12@P6A_ND@Z@Z 10013310 f   utils.obj
 0001:00012390       ?StrToBoolean@@YA_NABV?$basic_string@DU?$char_traits@D@std@@V?$allocator@D@2@@std@@@Z 10013390 f   utils.obj
 0001:000124c0       ??$?6U?$char_traits@D@std@@@std@@YAAAV?$basic_ostream@DU?$char_traits@D@std@@@0@AAV10@PBD@Z 100134c0 f i utils.obj
 0001:000126d0       ?resize@?$vector@V?$basic_string@DU?$char_traits@D@std@@V?$allocator@D@2@@std@@V?$allocator@V?$basic_string@DU?$char_traits@D@std@@V?$allocator@D@2@@std@@@2@@std@@QAEXIV?$basic_string@DU?$char_traits@D@std@@V?$allocator@D@2@@2@@Z 100136d0 f i utils.obj
 0001:00012800       ?log_format@@YAXPADZZ      10013800 f   utils.obj
 0001:00012940       ?log_format2@@YAXPADZZ     10013940 f   utils.obj
 0001:00012a40       ?FileExists@@YA_NABV?$basic_string@DU?$char_traits@D@std@@V?$allocator@D@2@@std@@@Z 10013a40 f   utils.obj
 0001:00012b90       ?ParseCommandLine@@YA?AV?$vector@V?$basic_string@DU?$char_traits@D@std@@V?$allocator@D@2@@std@@V?$allocator@V?$basic_string@DU?$char_traits@D@std@@V?$allocator@D@2@@std@@@2@@std@@V?$basic_string@DU?$char_traits@D@std@@V?$allocator@D@2@@2@@Z 10013b90 f   utils.obj
 0001:000131a0       ?Explode@@YA?AV?$vector@V?$basic_string@DU?$char_traits@D@std@@V?$allocator@D@2@@std@@V?$allocator@V?$basic_string@DU?$char_traits@D@std@@V?$allocator@D@2@@std@@@2@@std@@ABV?$basic_string@DU?$char_traits@D@std@@V?$allocator@D@2@@2@0@Z 100141a0 f   utils.obj
 0001:000132e0       ?get_res@@YGXPAH0@Z        100142e0 f   video_init.obj
 0001:000135f0       ?VIDEO_checkVideoMode@@YAXXZ 100145f0 f   video_init.obj
 0001:00013610       ?GetClientRect@GUI@zxmgr@@YAXKPAUtagRECT@@@Z 10014610 f   zxmgr.obj
 0001:00013640       ?DrawText@Font@zxmgr@@YAXKHHPBDKKK@Z 10014640 f   zxmgr.obj
 0001:00013670       ?MeasureTextWidth@Font@zxmgr@@YAKKPBD@Z 10014670 f   zxmgr.obj
 0001:00013690       ?WriteChatRaw@zxmgr@@YAXPBD@Z 10014690 f   zxmgr.obj
 0001:000136d0       ?WriteChat@zxmgr@@YAXPBDZZ 100146d0 f   zxmgr.obj
 0001:00013730       ?FillRect@zxmgr@@YAXHHHHK@Z 10014730 f   zxmgr.obj
 0001:00013750       ?UpdateScreen@zxmgr@@YAXXZ 10014750 f   zxmgr.obj
 0001:00013760       ?GetPatchString@zxmgr@@YAPADK@Z 10014760 f   zxmgr.obj
 0001:00013780       ?LockBuffer@zxmgr@@YAXXZ   10014780 f   zxmgr.obj
 0001:00013790       ?UnlockBuffer@zxmgr@@YAXXZ 10014790 f   zxmgr.obj
 0001:000137a0       ?DisplayMouse@zxmgr@@YAXXZ 100147a0 f   zxmgr.obj
 0001:000137b0       ?GetHWND@zxmgr@@YAPAUHWND__@@XZ 100147b0 f   zxmgr.obj
 0001:000137e0       ?DoMessageLoop@zxmgr@@YAXXZ 100147e0 f   zxmgr.obj
 0001:00013840       ?AfxAbort@zxmgr@@YAXXZ     10014840 f   zxmgr.obj
 0001:00013850       ?GetWinsockErrorString@happyhttp@@YAPBDH@Z 10014850 f   happyhttp.obj
 0001:00013af0       ??0Wobbly@happyhttp@@QAA@PBDZZ 10014af0 f   happyhttp.obj
 0001:00013b20       ?setcallbacks@Connection@happyhttp@@QAEXP6AXPBVResponse@2@PAX@ZP6AX01PBEH@Z21@Z 10014b20 f   happyhttp.obj
 0001:00013b40       ?getstatus@Response@happyhttp@@QBEHXZ 10014b40 f   happyhttp.obj
 0001:00013b50       ?ProcessDataChunked@Response@happyhttp@@AAEHPBEH@Z 10014b50 f   happyhttp.obj
 0001:00013b90       ?Finish@Response@happyhttp@@AAEXXZ 10014b90 f   happyhttp.obj
 0001:00013bb0       ?_Rrotate@?$_Tree@V?$_Tmap_traits@V?$basic_string@DU?$char_traits@D@std@@V?$allocator@D@2@@std@@V12@U?$less@V?$basic_string@DU?$char_traits@D@std@@V?$allocator@D@2@@std@@@2@V?$allocator@U?$pair@$$CBV?$basic_string@DU?$char_traits@D@std@@V?$allocator@D@2@@std@@V12@@std@@@2@$0A@@std@@@std@@IAEXPAU_Node@?$_Tree_nod@V?$_Tmap_traits@V?$basic_string@DU?$char_traits@D@std@@V?$allocator@D@2@@std@@V12@U?$less@V?$basic_string@DU?$char_traits@D@std@@V?$allocator@D@2@@std@@@2@V?$allocator@U?$pair@$$CBV?$basic_string@DU?$char_traits@D@std@@V?$allocator@D@2@@std@@V12@@std@@@2@$0A@@std@@@2@@Z 10014bb0 f i happyhttp.obj
 0001:00013c10       ?_Max@?$_Tree@V?$_Tmap_traits@V?$basic_string@DU?$char_traits@D@std@@V?$allocator@D@2@@std@@V12@U?$less@V?$basic_string@DU?$char_traits@D@std@@V?$allocator@D@2@@std@@@2@V?$allocator@U?$pair@$$CBV?$basic_string@DU?$char_traits@D@std@@V?$allocator@D@2@@std@@V12@@std@@@2@$0A@@std@@@std@@KAPAU_Node@?$_Tree_nod@V?$_Tmap_traits@V?$basic_string@DU?$char_traits@D@std@@V?$allocator@D@2@@std@@V12@U?$less@V?$basic_string@DU?$char_traits@D@std@@V?$allocator@D@2@@std@@@2@V?$allocator@U?$pair@$$CBV?$basic_string@DU?$char_traits@D@std@@V?$allocator@D@2@@std@@V12@@std@@@2@$0A@@std@@@2@PAU342@@Z 10014c10 f i happyhttp.obj
 0001:00013c30       ?_Min@?$_Tree@V?$_Tmap_traits@V?$basic_string@DU?$char_traits@D@std@@V?$allocator@D@2@@std@@V12@U?$less@V?$basic_string@DU?$char_traits@D@std@@V?$allocator@D@2@@std@@@2@V?$allocator@U?$pair@$$CBV?$basic_string@DU?$char_traits@D@std@@V?$allocator@D@2@@std@@V12@@std@@@2@$0A@@std@@@std@@KAPAU_Node@?$_Tree_nod@V?$_Tmap_traits@V?$basic_string@DU?$char_traits@D@std@@V?$allocator@D@2@@std@@V12@U?$less@V?$basic_string@DU?$char_traits@D@std@@V?$allocator@D@2@@std@@@2@V?$allocator@U?$pair@$$CBV?$basic_string@DU?$char_traits@D@std@@V?$allocator@D@2@@std@@V12@@std@@@2@$0A@@std@@@2@PAU342@@Z 10014c30 f i happyhttp.obj
 0001:00013c50       ?_Dec@const_iterator@?$_Tree@V?$_Tmap_traits@V?$basic_string@DU?$char_traits@D@std@@V?$allocator@D@2@@std@@V12@U?$less@V?$basic_string@DU?$char_traits@D@std@@V?$allocator@D@2@@std@@@2@V?$allocator@U?$pair@$$CBV?$basic_string@DU?$char_traits@D@std@@V?$allocator@D@2@@std@@V12@@std@@@2@$0A@@std@@@std@@QAEXXZ 10014c50 f i happyhttp.obj
 0001:00013ce0       ?_Inc@const_iterator@?$_Tree@V?$_Tmap_traits@V?$basic_string@DU?$char_traits@D@std@@V?$allocator@D@2@@std@@V12@U?$less@V?$basic_string@DU?$char_traits@D@std@@V?$allocator@D@2@@std@@@2@V?$allocator@U?$pair@$$CBV?$basic_string@DU?$char_traits@D@std@@V?$allocator@D@2@@std@@V12@@std@@@2@$0A@@std@@@std@@QAEXXZ 10014ce0 f i happyhttp.obj
 0001:00013d50       ??$_Transform@PADPADP6AHH@ZUforward_iterator_tag@std@@@std@@YAPADPAD00P6AHH@ZUforward_iterator_tag@0@U_Range_checked_iterator_tag@0@@Z 10014d50 f i happyhttp.obj
 0001:00013d90       ?BailOnSocketError@happyhttp@@YAXPBD@Z 10014d90 f   happyhttp.obj
 0001:00013df0       ?datawaiting@happyhttp@@YA_NH@Z 10014df0 f   happyhttp.obj
 0001:00013e50       ?notifyconnectionclosed@Response@happyhttp@@IAEXXZ 10014e50 f   happyhttp.obj
 0001:00013ec0       ?ProcessDataNonChunked@Response@happyhttp@@AAEHPBEH@Z 10014ec0 f   happyhttp.obj
 0001:00013f30       ?_Lrotate@?$_Tree@V?$_Tmap_traits@V?$basic_string@DU?$char_traits@D@std@@V?$allocator@D@2@@std@@V12@U?$less@V?$basic_string@DU?$char_traits@D@std@@V?$allocator@D@2@@std@@@2@V?$allocator@U?$pair@$$CBV?$basic_string@DU?$char_traits@D@std@@V?$allocator@D@2@@std@@V12@@std@@@2@$0A@@std@@@std@@IAEXPAU_Node@?$_Tree_nod@V?$_Tmap_traits@V?$basic_string@DU?$char_traits@D@std@@V?$allocator@D@2@@std@@V12@U?$less@V?$basic_string@DU?$char_traits@D@std@@V?$allocator@D@2@@std@@@2@V?$allocator@U?$pair@$$CBV?$basic_string@DU?$char_traits@D@std@@V?$allocator@D@2@@std@@V12@@std@@@2@$0A@@std@@@2@@Z 10014f30 f i happyhttp.obj
 0001:00013f80       ?connect@Connection@happyhttp@@QAEXXZ 10014f80 f   happyhttp.obj
 0001:000140a0       ?send@Connection@happyhttp@@QAEXPBEH@Z 100150a0 f   happyhttp.obj
 0001:000140f0       ?pop_front@?$deque@PAVResponse@happyhttp@@V?$allocator@PAVResponse@happyhttp@@@std@@@std@@QAEXXZ 100150f0 f i happyhttp.obj
 0001:00014130       ?_Tidy@?$deque@PAVResponse@happyhttp@@V?$allocator@PAVResponse@happyhttp@@@std@@@std@@IAEXXZ 10015130 f i happyhttp.obj
 0001:000141a0       ?_Buynode@?$_Tree@V?$_Tmap_traits@V?$basic_string@DU?$char_traits@D@std@@V?$allocator@D@2@@std@@V12@U?$less@V?$basic_string@DU?$char_traits@D@std@@V?$allocator@D@2@@std@@@2@V?$allocator@U?$pair@$$CBV?$basic_string@DU?$char_traits@D@std@@V?$allocator@D@2@@std@@V12@@std@@@2@$0A@@std@@@std@@IAEPAU_Node@?$_Tree_nod@V?$_Tmap_traits@V?$basic_string@DU?$char_traits@D@std@@V?$allocator@D@2@@std@@V12@U?$less@V?$basic_string@DU?$char_traits@D@std@@V?$allocator@D@2@@std@@@2@V?$allocator@U?$pair@$$CBV?$basic_string@DU?$char_traits@D@std@@V?$allocator@D@2@@std@@V12@@std@@@2@$0A@@std@@@2@XZ 100151a0 f i happyhttp.obj
 0001:000141e0       ??1?$deque@PAVResponse@happyhttp@@V?$allocator@PAVResponse@happyhttp@@@std@@@std@@QAE@XZ 100151e0 f i happyhttp.obj
 0001:000141f0       ??1?$pair@$$CBV?$basic_string@DU?$char_traits@D@std@@V?$allocator@D@2@@std@@V12@@std@@QAE@XZ 100151f0 f i happyhttp.obj
 0001:00014240       ??R?$less@V?$basic_string@DU?$char_traits@D@std@@V?$allocator@D@2@@std@@@std@@QBE_NABV?$basic_string@DU?$char_traits@D@std@@V?$allocator@D@2@@1@0@Z 10015240 f i happyhttp.obj
 0001:00014280       ?_Lbound@?$_Tree@V?$_Tmap_traits@V?$basic_string@DU?$char_traits@D@std@@V?$allocator@D@2@@std@@V12@U?$less@V?$basic_string@DU?$char_traits@D@std@@V?$allocator@D@2@@std@@@2@V?$allocator@U?$pair@$$CBV?$basic_string@DU?$char_traits@D@std@@V?$allocator@D@2@@std@@V12@@std@@@2@$0A@@std@@@std@@IBEPAU_Node@?$_Tree_nod@V?$_Tmap_traits@V?$basic_string@DU?$char_traits@D@std@@V?$allocator@D@2@@std@@V12@U?$less@V?$basic_string@DU?$char_traits@D@std@@V?$allocator@D@2@@std@@@2@V?$allocator@U?$pair@$$CBV?$basic_string@DU?$char_traits@D@std@@V?$allocator@D@2@@std@@V12@@std@@@2@$0A@@std@@@2@ABV?$basic_string@DU?$char_traits@D@std@@V?$allocator@D@2@@2@@Z 10015280 f i happyhttp.obj
 0001:00014310       ??$_Transform@PADV?$_String_iterator@DU?$char_traits@D@std@@V?$allocator@D@2@@std@@P6AHH@Z@std@@YA?AV?$_String_iterator@DU?$char_traits@D@std@@V?$allocator@D@2@@0@PAD0V10@P6AHH@ZUrandom_access_iterator_tag@0@U_Range_checked_iterator_tag@0@@Z 10015310 f i happyhttp.obj
 0001:00014380       ?front@?$deque@PAVResponse@happyhttp@@V?$allocator@PAVResponse@happyhttp@@@std@@@std@@QAEAAPAVResponse@happyhttp@@XZ 10015380 f i happyhttp.obj
 0001:000143d0       ?ProcessChunkLenLine@Response@happyhttp@@AAEXABV?$basic_string@DU?$char_traits@D@std@@V?$allocator@D@2@@std@@@Z 100153d0 f   happyhttp.obj
 0001:00014420       ?find@?$_Tree@V?$_Tmap_traits@V?$basic_string@DU?$char_traits@D@std@@V?$allocator@D@2@@std@@V12@U?$less@V?$basic_string@DU?$char_traits@D@std@@V?$allocator@D@2@@std@@@2@V?$allocator@U?$pair@$$CBV?$basic_string@DU?$char_traits@D@std@@V?$allocator@D@2@@std@@V12@@std@@@2@$0A@@std@@@std@@QBE?AVconst_iterator@12@ABV?$basic_string@DU?$char_traits@D@std@@V?$allocator@D@2@@2@@Z 10015420 f i happyhttp.obj
 0001:000144a0       ??0?$pair@$$CBV?$basic_string@DU?$char_traits@D@std@@V?$allocator@D@2@@std@@V12@@std@@QAE@ABV?$basic_string@DU?$char_traits@D@std@@V?$allocator@D@2@@1@0@Z 100154a0 f i happyhttp.obj
 0001:00014520       ??0?$pair@$$CBV?$basic_string@DU?$char_traits@D@std@@V?$allocator@D@2@@std@@V12@@std@@QAE@ABU01@@Z 10015520 f i happyhttp.obj
 0001:000145a0       ?ProcessStatusLine@Response@happyhttp@@AAEXABV?$basic_string@DU?$char_traits@D@std@@V?$allocator@D@2@@std@@@Z 100155a0 f   happyhttp.obj
 0001:00014840       ?_Xlen@?$deque@PAVResponse@happyhttp@@V?$allocator@PAVResponse@happyhttp@@@std@@@std@@KAXXZ 10015840 f i happyhttp.obj
 0001:000148c0       ??$?HDU?$char_traits@D@std@@V?$allocator@D@1@@std@@YA?AV?$basic_string@DU?$char_traits@D@std@@V?$allocator@D@2@@0@ABV10@0@Z 100158c0 f i happyhttp.obj
 0001:00014970       ?getheader@Response@happyhttp@@QBEPBDPBD@Z 10015970 f   happyhttp.obj
 0001:00014b90       ?_Growmap@?$deque@PAVResponse@happyhttp@@V?$allocator@PAVResponse@happyhttp@@@std@@@std@@IAEXI@Z 10015b90 f i happyhttp.obj
 0001:00014cf0       ?erase@?$_Tree@V?$_Tmap_traits@V?$basic_string@DU?$char_traits@D@std@@V?$allocator@D@2@@std@@V12@U?$less@V?$basic_string@DU?$char_traits@D@std@@V?$allocator@D@2@@std@@@2@V?$allocator@U?$pair@$$CBV?$basic_string@DU?$char_traits@D@std@@V?$allocator@D@2@@std@@V12@@std@@@2@$0A@@std@@@std@@QAE?AViterator@12@V312@@Z 10015cf0 f i happyhttp.obj
 0001:00015000       ?_Buynode@?$_Tree@V?$_Tmap_traits@V?$basic_string@DU?$char_traits@D@std@@V?$allocator@D@2@@std@@V12@U?$less@V?$basic_string@DU?$char_traits@D@std@@V?$allocator@D@2@@std@@@2@V?$allocator@U?$pair@$$CBV?$basic_string@DU?$char_traits@D@std@@V?$allocator@D@2@@std@@V12@@std@@@2@$0A@@std@@@std@@IAEPAU_Node@?$_Tree_nod@V?$_Tmap_traits@V?$basic_string@DU?$char_traits@D@std@@V?$allocator@D@2@@std@@V12@U?$less@V?$basic_string@DU?$char_traits@D@std@@V?$allocator@D@2@@std@@@2@V?$allocator@U?$pair@$$CBV?$basic_string@DU?$char_traits@D@std@@V?$allocator@D@2@@std@@V12@@std@@@2@$0A@@std@@@2@PAU342@00ABU?$pair@$$CBV?$basic_string@DU?$char_traits@D@std@@V?$allocator@D@2@@std@@V12@@2@D@Z 10016000 f i happyhttp.obj
 0001:000150a0       ?_Erase@?$_Tree@V?$_Tmap_traits@V?$basic_string@DU?$char_traits@D@std@@V?$allocator@D@2@@std@@V12@U?$less@V?$basic_string@DU?$char_traits@D@std@@V?$allocator@D@2@@std@@@2@V?$allocator@U?$pair@$$CBV?$basic_string@DU?$char_traits@D@std@@V?$allocator@D@2@@std@@V12@@std@@@2@$0A@@std@@@std@@IAEXPAU_Node@?$_Tree_nod@V?$_Tmap_traits@V?$basic_string@DU?$char_traits@D@std@@V?$allocator@D@2@@std@@V12@U?$less@V?$basic_string@DU?$char_traits@D@std@@V?$allocator@D@2@@std@@@2@V?$allocator@U?$pair@$$CBV?$basic_string@DU?$char_traits@D@std@@V?$allocator@D@2@@std@@V12@@std@@@2@$0A@@std@@@2@@Z 100160a0 f i happyhttp.obj
 0001:00015120       ?BeginBody@Response@happyhttp@@AAEXXZ 10016120 f   happyhttp.obj
 0001:00015250       ?push_back@?$deque@PAVResponse@happyhttp@@V?$allocator@PAVResponse@happyhttp@@@std@@@std@@QAEXABQAVResponse@happyhttp@@@Z 10016250 f i happyhttp.obj
 0001:000152d0       ?_Insert@?$_Tree@V?$_Tmap_traits@V?$basic_string@DU?$char_traits@D@std@@V?$allocator@D@2@@std@@V12@U?$less@V?$basic_string@DU?$char_traits@D@std@@V?$allocator@D@2@@std@@@2@V?$allocator@U?$pair@$$CBV?$basic_string@DU?$char_traits@D@std@@V?$allocator@D@2@@std@@V12@@std@@@2@$0A@@std@@@std@@IAE?AViterator@12@_NPAU_Node@?$_Tree_nod@V?$_Tmap_traits@V?$basic_string@DU?$char_traits@D@std@@V?$allocator@D@2@@std@@V12@U?$less@V?$basic_string@DU?$char_traits@D@std@@V?$allocator@D@2@@std@@@2@V?$allocator@U?$pair@$$CBV?$basic_string@DU?$char_traits@D@std@@V?$allocator@D@2@@std@@V12@@std@@@2@$0A@@std@@@2@ABU?$pair@$$CBV?$basic_string@DU?$char_traits@D@std@@V?$allocator@D@2@@std@@V12@@2@@Z 100162d0 f i happyhttp.obj
 0001:000154d0       ?insert@?$_Tree@V?$_Tmap_traits@V?$basic_string@DU?$char_traits@D@std@@V?$allocator@D@2@@std@@V12@U?$less@V?$basic_string@DU?$char_traits@D@std@@V?$allocator@D@2@@std@@@2@V?$allocator@U?$pair@$$CBV?$basic_string@DU?$char_traits@D@std@@V?$allocator@D@2@@std@@V12@@std@@@2@$0A@@std@@@std@@QAE?AU?$pair@Viterator@?$_Tree@V?$_Tmap_traits@V?$basic_string@DU?$char_traits@D@std@@V?$allocator@D@2@@std@@V12@U?$less@V?$basic_string@DU?$char_traits@D@std@@V?$allocator@D@2@@std@@@2@V?$allocator@U?$pair@$$CBV?$basic_string@DU?$char_traits@D@std@@V?$allocator@D@2@@std@@V12@@std@@@2@$0A@@std@@@std@@_N@2@ABU?$pair@$$CBV?$basic_string@DU?$char_traits@D@std@@V?$allocator@D@2@@std@@V12@@2@@Z 100164d0 f i happyhttp.obj
 0001:00015600       ?erase@?$_Tree@V?$_Tmap_traits@V?$basic_string@DU?$char_traits@D@std@@V?$allocator@D@2@@std@@V12@U?$less@V?$basic_string@DU?$char_traits@D@std@@V?$allocator@D@2@@std@@@2@V?$allocator@U?$pair@$$CBV?$basic_string@DU?$char_traits@D@std@@V?$allocator@D@2@@std@@V12@@std@@@2@$0A@@std@@@std@@QAE?AViterator@12@V312@0@Z 10016600 f i happyhttp.obj
 0001:000156d0       ?insert@?$_Tree@V?$_Tmap_traits@V?$basic_string@DU?$char_traits@D@std@@V?$allocator@D@2@@std@@V12@U?$less@V?$basic_string@DU?$char_traits@D@std@@V?$allocator@D@2@@std@@@2@V?$allocator@U?$pair@$$CBV?$basic_string@DU?$char_traits@D@std@@V?$allocator@D@2@@std@@V12@@std@@@2@$0A@@std@@@std@@QAE?AViterator@12@V312@ABU?$pair@$$CBV?$basic_string@DU?$char_traits@D@std@@V?$allocator@D@2@@std@@V12@@2@@Z 100166d0 f i happyhttp.obj
 0001:000158d0       ??0Connection@happyhttp@@QAE@PBDH@Z 100168d0 f   happyhttp.obj
 0001:00015970       ??A?$map@V?$basic_string@DU?$char_traits@D@std@@V?$allocator@D@2@@std@@V12@U?$less@V?$basic_string@DU?$char_traits@D@std@@V?$allocator@D@2@@std@@@2@V?$allocator@U?$pair@$$CBV?$basic_string@DU?$char_traits@D@std@@V?$allocator@D@2@@std@@V12@@std@@@2@@std@@QAEAAV?$basic_string@DU?$char_traits@D@std@@V?$allocator@D@2@@1@ABV21@@Z 10016970 f i happyhttp.obj
 0001:00015ac0       ?FlushHeader@Response@happyhttp@@AAEXXZ 10016ac0 f   happyhttp.obj
 0001:00015c40       ?ProcessHeaderLine@Response@happyhttp@@AAEXABV?$basic_string@DU?$char_traits@D@std@@V?$allocator@D@2@@std@@@Z 10016c40 f   happyhttp.obj
 0001:00015d20       ??1Response@happyhttp@@QAE@XZ 10016d20 f i happyhttp.obj
 0001:00015e50       ??0Response@happyhttp@@IAE@PBDAAVConnection@1@@Z 10016e50 f   happyhttp.obj
 0001:00015f60       ?pump@Response@happyhttp@@IAEHPBEH@Z 10016f60 f   happyhttp.obj
 0001:000160b0       ?putheader@Connection@happyhttp@@QAEXPBD0@Z 100170b0 f   happyhttp.obj
 0001:00016270       ?putheader@Connection@happyhttp@@QAEXPBDH@Z 10017270 f   happyhttp.obj
 0001:000162c0       ?endheaders@Connection@happyhttp@@QAEXXZ 100172c0 f   happyhttp.obj
 0001:000164f0       ?close@Connection@happyhttp@@QAEXXZ 100174f0 f   happyhttp.obj
 0001:000165a0       ??1Connection@happyhttp@@QAE@XZ 100175a0 f   happyhttp.obj
 0001:00016650       ?putrequest@Connection@happyhttp@@QAEXPBD0@Z 10017650 f   happyhttp.obj
 0001:00016820       ?pump@Connection@happyhttp@@QAEXXZ 10017820 f   happyhttp.obj
 0001:00016960       ?request@Connection@happyhttp@@QAEXPBD0QAPBDPBEH@Z 10017960 f   happyhttp.obj
 0001:00016a10       ??0CScanrangeCalc@@QAE@XZ  10017a10 f   ScanrangeCalc.obj
 0001:00016a20       ?InitializeTables@CScanrangeCalc@@QAEXXZ 10017a20 f   ScanrangeCalc.obj
 0001:00016bf0       ?CalculateVision@CScanrangeCalc@@QAEXHHGP6AEFF@ZP6A_NFF@Z@Z 10017bf0 f   ScanrangeCalc.obj
 0001:00016f10       ?Seek@BinaryStream@@QAEII@Z 10017f10 f   serialize1.obj
 0001:00016f50       ?Reset@BinaryStream@@QAEXXZ 10017f50 f   serialize1.obj
 0001:00016fa0       ??1BinaryStream@@QAE@XZ    10017fa0 f   serialize1.obj
 0001:00017010       ??0BinaryStream@@QAE@XZ    10018010 f   serialize1.obj
 0001:00017030       ?WriteUInt8@BinaryStream@@QAEXE@Z 10018030 f   serialize1.obj
 0001:00018560       _sha1_update               10019560 f   sha1.obj
 0001:00018600       _sha1_finish               10019600 f   sha1.obj
 0001:00018750       _sha1                      10019750 f   sha1.obj
 0001:000187e0       _sha1_file                 100197e0 f   sha1.obj
 0001:000188fe       _SDL_Init                  100198fe f   SDL:SDL.dll
 0001:00018904       _SDL_ConvertSurface        10019904 f   SDL:SDL.dll
 0001:0001890a       _SDL_FreeSurface           1001990a f   SDL:SDL.dll
 0001:00018910       _SDL_RWFromMem             10019910 f   SDL:SDL.dll
 0001:00018916       _SDL_UpperBlit             10019916 f   SDL:SDL.dll
 0001:0001891c       _SDL_CreateRGBSurface      1001991c f   SDL:SDL.dll
 0001:00018922       _SDL_LoadBMP_RW            10019922 f   SDL:SDL.dll
 0001:00018928       _SDL_RWFromFile            10019928 f   SDL:SDL.dll
 0001:0001892e       _IMG_Init                  1001992e f   SDL_image:SDL_image.dll
 0001:00018934       _IMG_Load_RW               10019934 f   SDL_image:SDL_image.dll
 0001:0001893a       ?_Xlen@_String_base@std@@SAXXZ 1001993a f   libcpmt:string.obj
 0001:00018979       ?_Xran@_String_base@std@@SAXXZ 10019979 f   libcpmt:string.obj
 0001:000189b8       ??_U@YAPAXI@Z              100199b8 f   libcpmt:newaop.obj
 0001:000189bd       __Tolower                  100199bd f   libcpmt:_tolower.obj
 0001:00018acc       __Getctype                 10019acc f   libcpmt:_tolower.obj
 0001:00018b27       ??0_Init_locks@std@@QAE@XZ 10019b27 f   libcpmt:xlock.obj
 0001:00018b56       ??1_Init_locks@std@@QAE@XZ 10019b56 f   libcpmt:xlock.obj
 0001:00018b7f       ??0_Lockit@std@@QAE@H@Z    10019b7f f   libcpmt:xlock.obj
 0001:00018ba0       ??1_Lockit@std@@QAE@XZ     10019ba0 f   libcpmt:xlock.obj
 0001:00018bb2       ??1_Fac_node@std@@QAE@XZ   10019bb2 f i libcpmt:locale0.obj
 0001:00018bc7       __Deletegloballocale       10019bc7 f   libcpmt:locale0.obj
 0001:00018c0d       ?_Getgloballocale@locale@std@@CAPAV_Locimp@12@XZ 10019c0d f   libcpmt:locale0.obj
 0001:00018c13       ?_Setgloballocale@locale@std@@CAXPAX@Z 10019c13 f   libcpmt:locale0.obj
 0001:00018c38       ?_Locimp_dtor@_Locimp@locale@std@@CAXPAV123@@Z 10019c38 f   libcpmt:locale0.obj
 0001:00018c98       __Fac_tidy                 10019c98 f   libcpmt:locale0.obj
 0001:00018cdb       ?facet_Register@facet@locale@std@@CAXPAV123@@Z 10019cdb f   libcpmt:locale0.obj
 0001:00018d14       ?_Locinfo_dtor@_Locinfo@std@@SAXPAV12@@Z 10019d14 f   libcpmt:locale0.obj
 0001:00018d37       ??0_Locimp@locale@std@@AAE@_N@Z 10019d37 f i libcpmt:locale0.obj
 0001:00018d80       ??1_Locimp@locale@std@@MAE@XZ 10019d80 f i libcpmt:locale0.obj
 0001:00018dbd       ??_E_Locimp@locale@std@@MAEPAXI@Z 10019dbd f i libcpmt:locale0.obj
 0001:00018dbd       ??_G_Locimp@locale@std@@MAEPAXI@Z 10019dbd f i libcpmt:locale0.obj
 0001:00018dd9       ?_Init@locale@std@@CAPAV_Locimp@12@XZ 10019dd9 f   libcpmt:locale0.obj
 0001:00018e73       ?_Locinfo_ctor@_Locinfo@std@@SAXPAV12@PBD@Z 10019e73 f   libcpmt:locale0.obj
 0001:00018ebd       ?_Callfns@ios_base@std@@AAEXW4event@12@@Z 10019ebd f i libcpmt:ios.obj
 0001:00018edf       ?_Tidy@ios_base@std@@AAAXXZ 10019edf f i libcpmt:ios.obj
 0001:00018f25       ?_Ios_base_dtor@ios_base@std@@CAXPAV12@@Z 10019f25 f   libcpmt:ios.obj
 0001:00018f63       ??0_Mutex@std@@QAE@XZ      10019f63 f   libcpmt:xmutex.obj
 0001:00018f7b       ??1_Mutex@std@@QAE@XZ      10019f7b f   libcpmt:xmutex.obj
 0001:00018f90       ?_Lock@_Mutex@std@@QAEXXZ  10019f90 f   libcpmt:xmutex.obj
 0001:00018f99       ?_Unlock@_Mutex@std@@QAEXXZ 10019f99 f   libcpmt:xmutex.obj
 0001:00018fa2       __Toupper                  10019fa2 f   libcpmt:_toupper.obj
 0001:000190b6       ?_Xfsopen@std@@YAPAU_iobuf@@PB_W0H@Z 1001a0b6 f   libcpmt:fiopen.obj
 0001:0001916b       ?_Fiopen@std@@YAPAU_iobuf@@PB_WHH@Z 1001a16b f   libcpmt:fiopen.obj
 0001:00019220       ?_Fiopen@std@@YAPAU_iobuf@@PBDHH@Z 1001a220 f   libcpmt:fiopen.obj
 0001:0001927b       ?uncaught_exception@std@@YA_NXZ 1001a27b f   libcpmt:uncaught.obj
 0001:00019280       __Mtxinit                  1001a280 f   libcpmt:xmtx.obj
 0001:0001928b       __Mtxdst                   1001a28b f   libcpmt:xmtx.obj
 0001:00019296       __Mtxlock                  1001a296 f   libcpmt:xmtx.obj
 0001:000192a1       __Mtxunlock                1001a2a1 f   libcpmt:xmtx.obj
 0001:000192ac       ?_Atexit@@YAXP6AXXZ@Z      1001a2ac f   libcpmt:iosptrs.obj
 0001:000192cc       ??1_Init_atexit@@QAE@XZ    1001a2cc f i libcpmt:iosptrs.obj
 0001:000192f2       _GetModuleFileNameExA@16   1001a2f2 f   psapi:PSAPI.DLL
 0001:000192f8       _EnumProcesses@12          1001a2f8 f   psapi:PSAPI.DLL
 0001:000192fe       ??0exception@std@@QAE@XZ   1001a2fe f   LIBCMT:stdexcpt.obj
 0001:0001930f       ??0exception@std@@QAE@ABQBD@Z 1001a30f f   LIBCMT:stdexcpt.obj
 0001:0001935d       ??0exception@std@@QAE@ABQBDH@Z 1001a35d f   LIBCMT:stdexcpt.obj
 0001:00019375       ??0exception@std@@QAE@ABV01@@Z 1001a375 f   LIBCMT:stdexcpt.obj
 0001:000193cd       ??1exception@std@@UAE@XZ   1001a3cd f   LIBCMT:stdexcpt.obj
 0001:000193e3       ?what@exception@std@@UBEPBDXZ 1001a3e3 f   LIBCMT:stdexcpt.obj
 0001:000193f0       ??0bad_cast@std@@QAE@PBD@Z 1001a3f0 f   LIBCMT:stdexcpt.obj
 0001:00019409       ??0bad_cast@std@@QAE@ABV01@@Z 1001a409 f   LIBCMT:stdexcpt.obj
 0001:00019421       ??1bad_cast@std@@UAE@XZ    1001a421 f   LIBCMT:stdexcpt.obj
 0001:0001942c       ??_Gexception@std@@UAEPAXI@Z 1001a42c f i LIBCMT:stdexcpt.obj
 0001:0001942c       ??_Eexception@std@@UAEPAXI@Z 1001a42c f i LIBCMT:stdexcpt.obj
 0001:00019448       ??_Ebad_cast@std@@UAEPAXI@Z 1001a448 f i LIBCMT:stdexcpt.obj
 0001:00019448       ??_Gbad_cast@std@@UAEPAXI@Z 1001a448 f i LIBCMT:stdexcpt.obj
 0001:0001946a       ??1type_info@@UAE@XZ       1001a46a f   LIBCMT:typinfo.obj
 0001:00019478       ??_Etype_info@@UAEPAXI@Z   1001a478 f i LIBCMT:typinfo.obj
 0001:00019478       ??_Gtype_info@@UAEPAXI@Z   1001a478 f i LIBCMT:typinfo.obj
 0001:00019494       ??8type_info@@QBE_NABV0@@Z 1001a494 f   LIBCMT:typinfo.obj
 0001:000194af       ??3@YAXPAX@Z               1001a4af f   LIBCMT:delete.obj
 0001:000194b4       _memcpy_s                  1001a4b4 f   LIBCMT:memcpy_s.obj
 0001:00019530       _memchr                    1001a530 f   LIBCMT:memchr.obj
 0001:000195dd       _memmove_s                 1001a5dd f   LIBCMT:memmove_s.obj
 0001:00019638       __localtime64_s            1001a638 f   LIBCMT:loctim64.obj
 0001:000198e0       __localtime64              1001a8e0 f   LIBCMT:loctim64.obj
 0001:00019904       __time64                   1001a904 f   LIBCMT:time64.obj
 0001:00019940       ??0bad_alloc@std@@QAE@XZ   1001a940 f i LIBCMT:new.obj
 0001:00019959       ??2@YAPAXI@Z               1001a959 f   LIBCMT:new.obj
 0001:000199c3       __CxxThrowException@8      1001a9c3 f   LIBCMT:throw.obj
 0001:00019a0d       ?_JumpToContinuation@@YGXPAXPAUEHRegistrationNode@@@Z 1001aa0d f   LIBCMT:trnsctrl.obj
 0001:00019a3d       ?_CallMemberFunction1@@YGXPAX00@Z 1001aa3d f   LIBCMT:trnsctrl.obj
 0001:00019a3d       ?_CallMemberFunction2@@YGXPAX00H@Z 1001aa3d f   LIBCMT:trnsctrl.obj
 0001:00019a3d       ?_CallMemberFunction0@@YGXPAX0@Z 1001aa3d f   LIBCMT:trnsctrl.obj
 0001:00019a44       ?_UnwindNestedFrames@@YGXPAUEHRegistrationNode@@PAUEHExceptionRecord@@@Z 1001aa44 f   LIBCMT:trnsctrl.obj
 0001:00019a96       ___CxxFrameHandler3        1001aa96 f   LIBCMT:trnsctrl.obj
 0001:00019afc       ?_CallSETranslator@@YAHPAUEHExceptionRecord@@PAUEHRegistrationNode@@PAX2PBU_s_FuncInfo@@H1@Z 1001aafc f   LIBCMT:trnsctrl.obj
 0001:00019c6e       ?_GetRangeOfTrysToCheck@@YAPBU_s_TryBlockMapEntry@@PBU_s_FuncInfo@@HHPAI1@Z 1001ac6e f   LIBCMT:trnsctrl.obj
 0001:00019ce1       __CreateFrameInfo          1001ace1 f   LIBCMT:trnsctrl.obj
 0001:00019d09       __IsExceptionObjectToBeDestroyed 1001ad09 f   LIBCMT:trnsctrl.obj
 0001:00019d2a       __FindAndUnlinkFrame       1001ad2a f   LIBCMT:trnsctrl.obj
 0001:00019d76       ?_CallCatchBlock2@@YAPAXPAUEHRegistrationNode@@PBU_s_FuncInfo@@PAXHK@Z 1001ad76 f   LIBCMT:trnsctrl.obj
 0001:00019dd4       @__security_check_cookie@4 1001add4 f   LIBCMT:secchk.obj
 0001:00019de3       __snprintf                 1001ade3 f   LIBCMT:snprintf.obj
 0001:00019e90       __chkstk                   1001ae90 f   LIBCMT:chkstk.obj
 0001:00019e90       __alloca_probe             1001ae90     LIBCMT:chkstk.obj
 0001:00019ec0       _memset                    1001aec0 f   LIBCMT:memset.obj
 0001:00019f40       _strstr                    1001af40 f   LIBCMT:strstr.obj
 0001:00019fd0       _strncat                   1001afd0 f   LIBCMT:strncat.obj
 0001:0001a105       __initp_misc_invarg        1001b105 f   LIBCMT:invarg.obj
 0001:0001a10f       __invoke_watson            1001b10f f   LIBCMT:invarg.obj
 0001:0001a20b       __invalid_parameter        1001b20b f   LIBCMT:invarg.obj
 0001:0001a22f       __invalid_parameter_noinfo 1001b22f f   LIBCMT:invarg.obj
 0001:0001a23f       __strdup                   1001b23f f   LIBCMT:strdup.obj
 0001:0001a33c       ___onexitinit              1001b33c f   LIBCMT:onexit.obj
 0001:0001a36b       __onexit                   1001b36b f   LIBCMT:onexit.obj
 0001:0001a3a7       _atexit                    1001b3a7 f   LIBCMT:onexit.obj
 0001:0001a3b9       ??_V@YAXPAX@Z              1001b3b9 f   LIBCMT:delete2.obj
 0001:0001a3be       _free                      1001b3be f   LIBCMT:free.obj
 0001:0001a44c       _fgetc                     1001b44c f   LIBCMT:fgetc.obj
 0001:0001a583       _fputc                     1001b583 f   LIBCMT:fputc.obj
 0001:0001a6c2       __ungetc_nolock            1001b6c2 f   LIBCMT:ungetc.obj
 0001:0001a7e0       _ungetc                    1001b7e0 f   LIBCMT:ungetc.obj
 0001:0001a852       __flush                    1001b852 f   LIBCMT:fflush.obj
 0001:0001a8b4       __fflush_nolock            1001b8b4 f   LIBCMT:fflush.obj
 0001:0001a9d0       _fflush                    1001b9d0 f   LIBCMT:fflush.obj
 0001:0001aa23       __flushall                 1001ba23 f   LIBCMT:fflush.obj
 0001:0001aa2c       _setvbuf                   1001ba2c f   LIBCMT:setvbuf.obj
 0001:0001ab2a       __fwrite_nolock            1001bb2a f   LIBCMT:fwrite.obj
 0001:0001ac44       _fwrite                    1001bc44 f   LIBCMT:fwrite.obj
 0001:0001acd1       _fgetpos                   1001bcd1 f   LIBCMT:fgetpos.obj
 0001:0001ad3c       __fseek_nolock             1001bd3c f   LIBCMT:fseek.obj
 0001:0001adc3       _fseek                     1001bdc3 f   LIBCMT:fseek.obj
 0001:0001ae48       _fsetpos                   1001be48 f   LIBCMT:fsetpos.obj
 0001:0001ae8a       __fclose_nolock            1001be8a f   LIBCMT:fclose.obj
 0001:0001aefd       _fclose                    1001befd f   LIBCMT:fclose.obj
 0001:0001af79       __fpclear                  1001bf79 f   LIBCMT:fpinit.obj
 0001:0001af79       __initp_misc_winxfltr      1001bf79 f   LIBCMT:winxfltr.obj
 0001:0001af7a       __cfltcvt_init             1001bf7a f   LIBCMT:fpinit.obj
 0001:0001afda       __fpmath                   1001bfda f   LIBCMT:fpinit.obj
 0001:0001aff8       __close_nolock             1001bff8 f   LIBCMT:close.obj
 0001:0001b08c       __close                    1001c08c f   LIBCMT:close.obj
 0001:0001b159       __read_nolock              1001c159 f   LIBCMT:read.obj
 0001:0001b6fb       __read                     1001c6fb f   LIBCMT:read.obj
 0001:0001b7d7       __lseeki64_nolock          1001c7d7 f   LIBCMT:lseeki64.obj
 0001:0001b85a       __lseeki64                 1001c85a f   LIBCMT:lseeki64.obj
 0001:0001b973       ?_sopen@@YAHPBDHHH@Z       1001c973 f   LIBCMT:openo.obj
 0001:0001b9a0       __ftol2_sse                1001c9a0 f   LIBCMT:ftol2.obj
 0001:0001b9a9       __ftol2_pentium4           1001c9a9 f   LIBCMT:ftol2.obj
 0001:0001b9bc       __ftol2_sse_excpt          1001c9bc f   LIBCMT:ftol2.obj
 0001:0001b9d6       __ftol2                    1001c9d6 f   LIBCMT:ftol2.obj
 0001:0001ba50       _memcpy                    1001ca50 f   LIBCMT:memcpy.obj
 0001:0001bdc0       _strncpy                   1001cdc0 f   LIBCMT:strncpy.obj
 0001:0001bef0       __except_handler4          1001cef0 f   LIBCMT:chandler4.obj
 0001:0001c086       _system                    1001d086 f   LIBCMT:system.obj
 0001:0001c195       __fsopen                   1001d195 f   LIBCMT:fopen.obj
 0001:0001c259       _fopen                     1001d259 f   LIBCMT:fopen.obj
 0001:0001c26c       _V6_HeapAlloc              1001d26c f   LIBCMT:malloc.obj
 0001:0001c2bb       _malloc                    1001d2bb f   LIBCMT:malloc.obj
 0001:0001c37e       ??0_LocaleUpdate@@QAE@PAUlocaleinfo_struct@@@Z 1001d37e f i LIBCMT:mbstowcs.obj
 0001:0001c400       __mbstowcs_l_helper        1001d400 f   LIBCMT:mbstowcs.obj
 0001:0001c588       _mbstowcs                  1001d588 f   LIBCMT:mbstowcs.obj
 0001:0001c5b0       __mbstowcs_s_l             1001d5b0 f   LIBCMT:mbstowcs.obj
 0001:0001c6a6       _mbstowcs_s                1001d6a6 f   LIBCMT:mbstowcs.obj
 0001:0001c72c       _sscanf                    1001d72c f   LIBCMT:sscanf.obj
 0001:0001c74b       __tolower_l                1001d74b f   LIBCMT:tolower.obj
 0001:0001c862       _tolower                   1001d862 f   LIBCMT:tolower.obj
 0001:0001c889       _sprintf                   1001d889 f   LIBCMT:sprintf.obj
 0001:0001c904       __vsnprintf_l              1001d904 f   LIBCMT:vsnprint.obj
 0001:0001c9b5       __vsnprintf                1001d9b5 f   LIBCMT:vsnprint.obj
 0001:0001c9b5       _vsnprintf                 1001d9b5 f   LIBCMT:vsnprint.obj
 0001:0001cbfb       _strtol                    1001dbfb f   LIBCMT:strtol.obj
 0001:0001cc24       _atol                      1001dc24 f   LIBCMT:atox.obj
 0001:0001cc35       _atoi                      1001dc35 f   LIBCMT:atox.obj
 0001:0001cc3a       ___ascii_stricmp           1001dc3a f   LIBCMT:stricmp.obj
 0001:0001cc6f       __stricmp_l                1001dc6f f   LIBCMT:stricmp.obj
 0001:0001cd42       __stricmp                  1001dd42 f   LIBCMT:stricmp.obj
 0001:0001cd92       __isupper_l                1001dd92 f i LIBCMT:_ctype.obj
 0001:0001cde1       _isupper                   1001dde1 f i LIBCMT:_ctype.obj
 0001:0001ce0a       __islower_l                1001de0a f i LIBCMT:_ctype.obj
 0001:0001ce59       _islower                   1001de59 f i LIBCMT:_ctype.obj
 0001:0001ce82       __isdigit_l                1001de82 f i LIBCMT:_ctype.obj
 0001:0001ced1       _isdigit                   1001ded1 f i LIBCMT:_ctype.obj
 0001:0001cefa       __isxdigit_l               1001defa f i LIBCMT:_ctype.obj
 0001:0001cf4e       _isxdigit                  1001df4e f i LIBCMT:_ctype.obj
 0001:0001cf79       __isspace_l                1001df79 f i LIBCMT:_ctype.obj
 0001:0001cfc8       _isspace                   1001dfc8 f i LIBCMT:_ctype.obj
 0001:0001d000       __CIsqrt                   1001e000 f   LIBCMT:sqrt.obj
 0001:0001d014       _sqrt                      1001e014     LIBCMT:sqrt.obj
 0001:0001d0ba       _ferror                    1001e0ba f   LIBCMT:feoferr.obj
 0001:0001d0e9       __fread_nolock_s           1001e0e9 f   LIBCMT:fread.obj
 0001:0001d27f       _fread_s                   1001e27f f   LIBCMT:fread.obj
 0001:0001d346       _fread                     1001e346 f   LIBCMT:fread.obj
 0001:0001d361       __CRT_INIT@12              1001e361 f   LIBCMT:dllcrt0.obj
 0001:0001d630       __DllMainCRTStartup@12     1001e630 f   LIBCMT:dllcrt0.obj
 0001:0001d660       _strlen                    1001e660 f   LIBCMT:strlen.obj
 0001:0001d6eb       __EH_prolog3               1001e6eb f   LIBCMT:ehprolg3.obj
 0001:0001d71e       __EH_prolog3_catch         1001e71e f   LIBCMT:ehprolg3.obj
 0001:0001d754       __EH_epilog3               1001e754 f   LIBCMT:ehprolg3.obj
 0001:0001d768       __freea                    1001e768 f i LIBCMT:a_map.obj
 0001:0001db25       ___crtLCMapStringA         1001eb25 f   LIBCMT:a_map.obj
 0001:0001db68       ___pctype_func             1001eb68 f   LIBCMT:ctype.obj
 0001:0001db91       ___init_ctype              1001eb91 f   LIBCMT:initctyp.obj
 0001:0001df26       ____lc_codepage_func       1001ef26 f   LIBCMT:initctyp.obj
 0001:0001df4c       ____lc_handle_func         1001ef4c f   LIBCMT:initctyp.obj
 0001:0001df72       __malloc_crt               1001ef72 f   LIBCMT:crtheap.obj
 0001:0001dfb2       __calloc_crt               1001efb2 f   LIBCMT:crtheap.obj
 0001:0001dffa       __realloc_crt              1001effa f   LIBCMT:crtheap.obj
 0001:0001e045       __recalloc_crt             1001f045 f   LIBCMT:crtheap.obj
 0001:0001e095       ___freetlocinfo            1001f095 f   LIBCMT:setlocal.obj
 0001:0001e1d5       ___addlocaleref            1001f1d5 f   LIBCMT:setlocal.obj
 0001:0001e25b       ___removelocaleref         1001f25b f   LIBCMT:setlocal.obj
 0001:0001e349       ___updatetlocinfo          1001f349 f   LIBCMT:setlocal.obj
 0001:0001e412       ___init_dummy              1001f412 f   LIBCMT:setlocal.obj
 0001:0001e412       ___init_collate            1001f412 f   LIBCMT:initcoll.obj
 0001:0001e412       __matherr                  1001f412 f   LIBCMT:matherr.obj
 0001:0001e415       __strcats                  1001f415 f   LIBCMT:setlocal.obj
 0001:0001e453       ___lc_strtolc              1001f453 f   LIBCMT:setlocal.obj
 0001:0001e57c       ___lc_lctostr              1001f57c f   LIBCMT:setlocal.obj
 0001:0001e758       __expandlocale             1001f758 f   LIBCMT:setlocal.obj
 0001:0001edf0       _setlocale                 1001fdf0 f   LIBCMT:setlocal.obj
 0001:0001ef60       __wcstombs_l_helper        1001ff60 f   LIBCMT:wcstombs.obj
 0001:0001f1a6       __wcstombs_s_l             100201a6 f   LIBCMT:wcstombs.obj
 0001:0001f257       _wcstombs_s                10020257 f   LIBCMT:wcstombs.obj
 0001:0001f275       __wfsopen                  10020275 f   LIBCMT:wfopen.obj
 0001:0001f33b       __amsg_exit                1002033b f   LIBCMT:crt0dat.obj
 0001:0001f35f       ___crtCorExitProcess       1002035f f   LIBCMT:crt0dat.obj
 0001:0001f385       ___crtExitProcess          10020385 f   LIBCMT:crt0dat.obj
 0001:0001f39a       __lockexit                 1002039a f   LIBCMT:crt0dat.obj
 0001:0001f3a3       __unlockexit               100203a3 f   LIBCMT:crt0dat.obj
 0001:0001f3c4       __initterm_e               100203c4 f   LIBCMT:crt0dat.obj
 0001:0001f3e4       __get_osplatform           100203e4 f   LIBCMT:crt0dat.obj
 0001:0001f41b       __get_osver                1002041b f   LIBCMT:crt0dat.obj
 0001:0001f457       __get_winmajor             10020457 f   LIBCMT:crt0dat.obj
 0001:0001f493       __cinit                    10020493 f   LIBCMT:crt0dat.obj
 0001:0001f5f3       __exit                     100205f3 f   LIBCMT:crt0dat.obj
 0001:0001f604       __cexit                    10020604 f   LIBCMT:crt0dat.obj
 0001:0001f613       __init_pointers            10020613 f   LIBCMT:crt0dat.obj
 0001:0001f65f       ??1bad_exception@std@@UAE@XZ 1002065f f i LIBCMT:frame.obj
 0001:0001f66a       ??_Ebad_exception@std@@UAEPAXI@Z 1002066a f i LIBCMT:frame.obj
 0001:0001f66a       ??_Gbad_exception@std@@UAEPAXI@Z 1002066a f i LIBCMT:frame.obj
 0001:0001f68c       ___TypeMatch               1002068c f   LIBCMT:frame.obj
 0001:0001f6e8       ___FrameUnwindFilter       100206e8 f   LIBCMT:frame.obj
 0001:0001f72c       ___FrameUnwindToState      1002072c f   LIBCMT:frame.obj
 0001:0001f852       ___DestructExceptionObject 10020852 f   LIBCMT:frame.obj
 0001:0001f8a6       ___AdjustPointer           100208a6 f   LIBCMT:frame.obj
 0001:0001f8cb       ?__uncaught_exception@@YA_NXZ 100208cb f   LIBCMT:frame.obj
 0001:0001fb3c       ___BuildCatchObjectHelper  10020b3c f   LIBCMT:frame.obj
 0001:0001fcbb       ___BuildCatchObject        10020cbb f   LIBCMT:frame.obj
 0001:00020200       ??0bad_exception@std@@QAE@ABV01@@Z 10021200 f i LIBCMT:frame.obj
 0001:00020218       ___InternalCxxFrameHandler 10021218 f   LIBCMT:frame.obj
 0001:000202fc       _abort                     100212fc f   LIBCMT:abort.obj
 0001:000203ef       _strcpy_s                  100213ef f   LIBCMT:strcpy_s.obj
 0001:00020454       ?_Type_info_dtor@type_info@@CAXPAV1@@Z 10021454 f   LIBCMT:typname.obj
 0001:000204d0       _strcmp                    100214d0 f   LIBCMT:strcmp.obj
 0001:00020558       __get_errno_from_oserr     10021558 f   LIBCMT:dosmap.obj
 0001:00020593       __errno                    10021593 f   LIBCMT:dosmap.obj
 0001:000205a6       ___doserrno                100215a6 f   LIBCMT:dosmap.obj
 0001:000205b9       __dosmaperr                100215b9 f   LIBCMT:dosmap.obj
 0001:000205e0       _memmove                   100215e0 f   LIBCMT:memmove.obj
 0001:00021027       ___tzset                   10022027 f   LIBCMT:tzset.obj
 0001:00021076       __isindst                  10022076 f   LIBCMT:tzset.obj
 0001:000210b7       __gmtime64_s               100220b7 f   LIBCMT:gmtime64.obj
 0001:000212f3       __get_daylight             100222f3 f   LIBCMT:timeset.obj
 0001:00021327       __get_dstbias              10022327 f   LIBCMT:timeset.obj
 0001:0002135b       __get_timezone             1002235b f   LIBCMT:timeset.obj
 0001:0002138f       ___daylight                1002238f f   LIBCMT:timeset.obj
 0001:00021395       ___dstbias                 10022395 f   LIBCMT:timeset.obj
 0001:0002139b       ___timezone                1002239b f   LIBCMT:timeset.obj
 0001:000213a1       ___tzname                  100223a1 f   LIBCMT:timeset.obj
 0001:000213b0       __alldiv                   100223b0 f   LIBCMT:lldiv.obj
 0001:00021460       __allrem                   10022460 f   LIBCMT:llrem.obj
 0001:00021512       ___getgmtimebuf            10022512 f   LIBCMT:gmtime.obj
 0001:00021560       __aulldiv                  10022560 f   LIBCMT:ulldiv.obj
 0001:000215c8       __initp_heap_handler       100225c8 f   LIBCMT:handler.obj
 0001:000215d2       __callnewh                 100225d2 f   LIBCMT:handler.obj
 0001:000215f4       ?__CxxUnhandledExceptionFilter@@YGJPAU_EXCEPTION_POINTERS@@@Z 100225f4 f   LIBCMT:unhandld.obj
 0001:00021660       ?__CxxSetUnhandledExceptionFilter@@YAHXZ 10022660 f   LIBCMT:unhandld.obj
 0001:00021681       ?__CxxRestoreUnhandledExceptionFilter@@YAXXZ 10022681 f   LIBCMT:unhandld.obj
 0001:000216a5       __encode_pointer           100226a5 f   LIBCMT:tidtable.obj
 0001:00021708       __encoded_null             10022708 f   LIBCMT:tidtable.obj
 0001:00021711       __decode_pointer           10022711 f   LIBCMT:tidtable.obj
 0001:00021774       ___crtTlsAlloc@4           10022774 f   LIBCMT:tidtable.obj
 0001:0002177d       ___set_flsgetvalue         1002277d f   LIBCMT:tidtable.obj
 0001:000217a7       __mtterm                   100227a7 f   LIBCMT:tidtable.obj
 0001:000217e4       __initptd                  100227e4 f   LIBCMT:tidtable.obj
 0001:00021898       __getptd_noexit            10022898 f   LIBCMT:tidtable.obj
 0001:0002191b       __getptd                   1002291b f   LIBCMT:tidtable.obj
 0001:00021933       __freefls@4                10022933 f   LIBCMT:tidtable.obj
 0001:00021a54       __freeptd                  10022a54 f   LIBCMT:tidtable.obj
 0001:00021abd       __mtinit                   10022abd f   LIBCMT:tidtable.obj
 0001:00021c41       ?terminate@@YAXXZ          10022c41 f   LIBCMT:hooks.obj
 0001:00021c7a       ?unexpected@@YAXXZ         10022c7a f   LIBCMT:hooks.obj
 0001:00021c8d       ?_inconsistency@@YAXXZ     10022c8d f   LIBCMT:hooks.obj
 0001:00021cc4       __initp_eh_hooks           10022cc4 f   LIBCMT:hooks.obj
 0001:00021ce0       __CallSettingFrame@12      10022ce0 f   LIBCMT:lowhelpr.obj
 0001:00021d07       __NLG_Return               10022d07     LIBCMT:lowhelpr.obj
 0001:00021d2c       ___report_gsfailure        10022d2c f   LIBCMT:gs_report.obj
 0001:00021e30       __flsbuf                   10022e30 f   LIBCMT:_flsbuf.obj
 0001:00022031       __output_l                 10023031 f   LIBCMT:output.obj
 0001:00022a20       __VEC_memzero              10023a20 f   LIBCMT:p4_memset.obj
 0001:00022aaf       __sse2_mathfcns_init       10023aaf f   LIBCMT:mathfcns.obj
 0001:00022ae0       _strchr                    10023ae0 f   LIBCMT:strchr.obj
 0001:00022ae6       ___from_strstr_to_strchr   10023ae6     LIBCMT:strchr.obj
 0001:00022b9e       __crt_debugger_hook        10023b9e f   LIBCMT:dbghook.obj
 0001:00022ba6       __msize                    10023ba6 f   LIBCMT:msize.obj
 0001:00022c4c       __SEH_prolog4              10023c4c f   LIBCMT:sehprolg4.obj
 0001:00022c91       __SEH_epilog4              10023c91 f   LIBCMT:sehprolg4.obj
 0001:00022ca5       ___heap_select             10023ca5 f   LIBCMT:heapinit.obj
 0001:00022d00       __heap_init                10023d00 f   LIBCMT:heapinit.obj
 0001:00022d5a       __heap_term                10023d5a f   LIBCMT:heapinit.obj
 0001:00022dce       __mtinitlocks              10023dce f   LIBCMT:mlock.obj
 0001:00022e17       __mtdeletelocks            10023e17 f   LIBCMT:mlock.obj
 0001:00022e6c       __unlock                   10023e6c f   LIBCMT:mlock.obj
 0001:00022e81       __mtinitlocknum            10023e81 f   LIBCMT:mlock.obj
 0001:00022f44       __lock                     10023f44 f   LIBCMT:mlock.obj
 0001:00022f75       ___sbh_heap_init           10023f75 f   LIBCMT:sbheap.obj
 0001:00022fbd       ___sbh_find_block          10023fbd f   LIBCMT:sbheap.obj
 0001:00022fe8       ___sbh_free_block          10023fe8 f   LIBCMT:sbheap.obj
 0001:000232fc       ___sbh_alloc_new_region    100242fc f   LIBCMT:sbheap.obj
 0001:000233ac       ___sbh_alloc_new_group     100243ac f   LIBCMT:sbheap.obj
 0001:000234b2       ___sbh_resize_block        100244b2 f   LIBCMT:sbheap.obj
 0001:00023791       ___sbh_alloc_block         10024791 f   LIBCMT:sbheap.obj
 0001:00023a74       ___iob_func                10024a74 f   LIBCMT:_file.obj
 0001:00023a7a       ___initstdio               10024a7a f   LIBCMT:_file.obj
 0001:00023b2b       ___endstdio                10024b2b f   LIBCMT:_file.obj
 0001:00023b4b       __lock_file                10024b4b f   LIBCMT:_file.obj
 0001:00023b7a       __lock_file2               10024b7a f   LIBCMT:_file.obj
 0001:00023b9d       __unlock_file              10024b9d f   LIBCMT:_file.obj
 0001:00023bcc       __unlock_file2             10024bcc f   LIBCMT:_file.obj
 0001:00023bef       __filbuf                   10024bef f   LIBCMT:_filbuf.obj
 0001:00023d0f       __ioinit                   10024d0f f   LIBCMT:ioinit.obj
 0001:00023f4f       __ioterm                   10024f4f f   LIBCMT:ioinit.obj
 0001:00023f9b       __fileno                   10024f9b f   LIBCMT:fileno.obj
 0001:00023fc8       __getbuf                   10024fc8 f   LIBCMT:_getbuf.obj
 0001:0002400c       __write_nolock             1002500c f   LIBCMT:write.obj
 0001:000245d2       __write                    100255d2 f   LIBCMT:write.obj
 0001:000246ae       __commit                   100256ae f   LIBCMT:commit.obj
 0001:0002478f       __freebuf                  1002578f f   LIBCMT:_freebuf.obj
 0001:000247bb       __ftelli64_nolock          100257bb f   LIBCMT:ftelli64.obj
 0001:0002496f       __ftelli64                 1002596f f   LIBCMT:ftelli64.obj
 0001:000249b9       __lseek_nolock             100259b9 f   LIBCMT:lseek.obj
 0001:00024a2b       __lseek                    10025a2b f   LIBCMT:lseek.obj
 0001:00024b07       __ftell_nolock             10025b07 f   LIBCMT:ftell.obj
 0001:00024c9f       __fseeki64_nolock          10025c9f f   LIBCMT:fseeki64.obj
 0001:00024d38       __fseeki64                 10025d38 f   LIBCMT:fseeki64.obj
 0001:00024d87       __forcdecpt_l              10025d87 f   LIBCMT:cvt.obj
 0001:00024df8       __cropzeros_l              10025df8 f   LIBCMT:cvt.obj
 0001:00024e78       __positive                 10025e78 f   LIBCMT:cvt.obj
 0001:00024e8e       __fassign_l                10025e8e f   LIBCMT:cvt.obj
 0001:00024ece       __fassign                  10025ece f   LIBCMT:cvt.obj
 0001:00024f02       __forcdecpt                10025f02 f   LIBCMT:cvt.obj
 0001:00024f10       __cropzeros                10025f10 f   LIBCMT:cvt.obj
 0001:0002508b       __cftoe_l                  1002608b f   LIBCMT:cvt.obj
 0001:00025159       __cftoe                    10026159 f   LIBCMT:cvt.obj
 0001:00025177       __cftoa_l                  10026177 f   LIBCMT:cvt.obj
 0001:000255dd       __cftof_l                  100265dd f   LIBCMT:cvt.obj
 0001:00025696       __cftog_l                  10026696 f   LIBCMT:cvt.obj
 0001:0002578e       __cfltcvt_l                1002678e f   LIBCMT:cvt.obj
 0001:00025814       __cfltcvt                  10026814 f   LIBCMT:cvt.obj
 0001:00025835       __initp_misc_cfltcvt_tab   10026835 f   LIBCMT:cmiscdat.obj
 0001:00025854       __setdefaultprecision      10026854 f   LIBCMT:fp8.obj
 0001:0002587d       __ms_p5_test_fdiv          1002687d f   LIBCMT:testfdiv.obj
 0001:000258b9       __ms_p5_mp_test_fdiv       100268b9 f   LIBCMT:testfdiv.obj
 0001:000258e2       __set_osfhnd               100268e2 f   LIBCMT:osfinfo.obj
 0001:0002595f       __free_osfhnd              1002695f f   LIBCMT:osfinfo.obj
 0001:000259e0       __get_osfhandle            100269e0 f   LIBCMT:osfinfo.obj
 0001:00025a51       ___lock_fhandle            10026a51 f   LIBCMT:osfinfo.obj
 0001:00025af1       __unlock_fhandle           10026af1 f   LIBCMT:osfinfo.obj
 0001:00025b13       __alloc_osfhnd             10026b13 f   LIBCMT:osfinfo.obj
 0001:000262f0       __sopen_helper             100272f0 f   LIBCMT:open.obj
 0001:000263bc       __sopen_s                  100273bc f   LIBCMT:open.obj
 0001:00026a19       __wsopen_helper            10027a19 f   LIBCMT:wopen.obj
 0001:00026ae5       __wsopen_s                 10027ae5 f   LIBCMT:wopen.obj
 0001:00026b8a       __VEC_memcpy               10027b8a f   LIBCMT:p4_memcpy.obj
 0001:00026c70       __local_unwind4            10027c70 f   LIBCMT:exsup4.obj
 0001:00026d46       __seh_longjmp_unwind4@4    10027d46 f   LIBCMT:exsup4.obj
 0001:00026d62       @_EH4_CallFilterFunc@8     10027d62 f   LIBCMT:exsup4.obj
 0001:00026d79       @_EH4_TransferToHandler@8  10027d79 f   LIBCMT:exsup4.obj
 0001:00026d92       @_EH4_GlobalUnwind@4       10027d92 f   LIBCMT:exsup4.obj
 0001:00026dac       @_EH4_LocalUnwind@16       10027dac f   LIBCMT:exsup4.obj
 0001:00026dd0       __ValidateImageBase        10027dd0 f   LIBCMT:pesect.obj
 0001:00026e00       __FindPESection            10027e00 f   LIBCMT:pesect.obj
 0001:00026e42       __IsNonwritableInCurrentImage 10027e42 f   LIBCMT:pesect.obj
 0001:00026eae       __spawnvpe                 10027eae f   LIBCMT:spawnvpe.obj
 0001:0002719c       __spawnve                  1002819c f   LIBCMT:spawnve.obj
 0001:000273bb       __access_s                 100283bb f   LIBCMT:access.obj
 0001:00027442       __getenv_helper_nolock     10028442 f   LIBCMT:getenv.obj
 0001:000274c3       __dupenv_s                 100284c3 f   LIBCMT:getenv.obj
 0001:000275a9       __openfile                 100285a9 f   LIBCMT:_open.obj
 0001:0002784b       __getstream                1002884b f   LIBCMT:stream.obj
 0001:00027971       __NMSG_WRITE               10028971 f   LIBCMT:crt0msg.obj
 0001:00027b11       __FF_MSGBANNER             10028b11 f   LIBCMT:crt0msg.obj
 0001:00027d58       ___updatetmbcinfo          10028d58 f   LIBCMT:mbctype.obj
 0001:00027e76       __setmbcp_nolock           10028e76 f   LIBCMT:mbctype.obj
 0001:00028021       __setmbcp                  10029021 f   LIBCMT:mbctype.obj
 0001:000281bb       ___initmbctable            100291bb f   LIBCMT:mbctype.obj
 0001:000281d9       __isleadbyte_l             100291d9 f i LIBCMT:_wctype.obj
 0001:0002820f       _isleadbyte                1002920f f i LIBCMT:_wctype.obj
 0001:000282ac       __input_l                  100292ac f   LIBCMT:input.obj
 0001:00028ef9       __isctype_l                10029ef9 f   LIBCMT:isctype.obj
 0001:00028fb0       __trandisp1                10029fb0 f   LIBCMT:87disp.obj
 0001:00029017       __trandisp2                1002a017 f   LIBCMT:87disp.obj
 0001:000290a3       __rttospopde               1002a0a3     LIBCMT:87disp.obj
 0001:000290a8       __rttospop                 1002a0a8     LIBCMT:87disp.obj
 0001:000290aa       __rtnospop                 1002a0aa     LIBCMT:87disp.obj
 0001:000290ac       __rttosnpop                1002a0ac     LIBCMT:87disp.obj
 0001:000290ad       __rtnospopde               1002a0ad     LIBCMT:87disp.obj
 0001:000290b4       __rtzeropop                1002a0b4     LIBCMT:87disp.obj
 0001:000290b6       __rtzeronpop               1002a0b6     LIBCMT:87disp.obj
 0001:000290bb       __rtonepop                 1002a0bb     LIBCMT:87disp.obj
 0001:000290bd       __rtonenpop                1002a0bd     LIBCMT:87disp.obj
 0001:000290c2       __tosnan1                  1002a0c2     LIBCMT:87disp.obj
 0001:000290ed       __nosnan2                  1002a0ed     LIBCMT:87disp.obj
 0001:000290ef       __tosnan2                  1002a0ef     LIBCMT:87disp.obj
 0001:00029117       __nan2                     1002a117     LIBCMT:87disp.obj
 0001:00029156       __rtindfpop                1002a156     LIBCMT:87disp.obj
 0001:00029158       __rtindfnpop               1002a158     LIBCMT:87disp.obj
 0001:00029169       __rttosnpopde              1002a169     LIBCMT:87disp.obj
 0001:00029173       __rtchsifneg               1002a173     LIBCMT:87disp.obj
 0001:00029180       __startTwoArgErrorHandling 1002a180 f   LIBCMT:genexcep.obj
 0001:00029197       __startOneArgErrorHandling 1002a197 f   LIBCMT:genexcep.obj
 0001:000291e0       __twoToTOS                 1002a1e0 f   LIBCMT:common.obj
 0001:000291f5       __load_CW                  1002a1f5 f   LIBCMT:common.obj
 0001:0002920c       __convertTOStoQNaN         1002a20c f   LIBCMT:common.obj
 0001:00029225       __fload_withFB             1002a225 f   LIBCMT:common.obj
 0001:00029268       __checkTOS_withFB          1002a268 f   LIBCMT:common.obj
 0001:0002927e       __fast_exit                1002a27e f   LIBCMT:common.obj
 0001:0002928b       __math_exit                1002a28b f   LIBCMT:common.obj
 0001:000292b5       __check_overflow_exit      1002a2b5 f   LIBCMT:common.obj
 0001:000292c9       __check_range_exit         1002a2c9 f   LIBCMT:common.obj
 0001:0002936c       __setenvp                  1002a36c f   LIBCMT:stdenvp.obj
 0001:000295df       __setargv                  1002a5df f   LIBCMT:stdargv.obj
 0001:00029698       ___crtGetEnvironmentStringsA 1002a698 f   LIBCMT:a_env.obj
 0001:000297cd       __RTC_Initialize           1002a7cd f   LIBCMT:initsect.obj
 0001:000297f1       __RTC_Terminate            1002a7f1 f   LIBCMT:initsect.obj
 0001:00029815       __XcptFilter               1002a815 f   LIBCMT:winxfltr.obj
 0001:00029984       ___CppXcptFilter           1002a984 f   LIBCMT:winxfltr.obj
 0001:0002999f       ___security_init_cookie    1002a99f f   LIBCMT:gs_support.obj
 0001:00029a33       ___ansicp                  1002aa33 f   LIBCMT:convrtcp.obj
 0001:00029a7a       ___convertcp               1002aa7a f   LIBCMT:convrtcp.obj
 0001:00029c30       __alloca_probe_16          1002ac30 f   LIBCMT:alloca16.obj
 0001:00029c46       __alloca_probe_8           1002ac46     LIBCMT:alloca16.obj
 0001:00029e14       ___crtGetStringTypeA       1002ae14 f   LIBCMT:a_str.obj
 0001:00029e54       ___getlocaleinfo           1002ae54 f   LIBCMT:inithelp.obj
 0001:00029fae       __initp_misc_purevirt      1002afae f   LIBCMT:inithelp.obj
 0001:00029fb8       __calloc_impl              1002afb8 f   LIBCMT:calloc.obj
 0001:0002a0d6       _calloc                    1002b0d6 f   LIBCMT:calloc.obj
 0001:0002a115       _realloc                   1002b115 f   LIBCMT:realloc.obj
 0001:0002a330       __recalloc                 1002b330 f   LIBCMT:realloc.obj
 0001:0002a790       ___free_lc_time            1002b790 f   LIBCMT:inittime.obj
 0001:0002a920       ___init_time               1002b920 f   LIBCMT:inittime.obj
 0001:0002a993       ___free_lconv_num          1002b993 f   LIBCMT:initnum.obj
 0001:0002a9d3       ___init_numeric            1002b9d3 f   LIBCMT:initnum.obj
 0001:0002ab9b       ___free_lconv_mon          1002bb9b f   LIBCMT:initmon.obj
 0001:0002ac24       ___init_monetary           1002bc24 f   LIBCMT:initmon.obj
 0001:0002aee8       _strcat_s                  1002bee8 f   LIBCMT:strcat_s.obj
 0001:0002af60       _strcspn                   1002bf60 f   LIBCMT:strcspn.obj
 0001:0002afa6       _strncpy_s                 1002bfa6 f   LIBCMT:strncpy_s.obj
 0001:0002b5d3       ___get_qualified_locale    1002c5d3 f   LIBCMT:getqloc.obj
 0001:0002b7b6       _memcmp                    1002c7b6 f   LIBCMT:memcmp.obj
 0001:0002ce36       _strncmp                   1002de36 f   LIBCMT:strncmp.obj
 0001:0002cf00       _strpbrk                   1002df00 f   LIBCMT:strpbrk.obj
 0001:0002cf40       _wcslen                    1002df40 f   LIBCMT:wcslen.obj
 0001:0002cf56       __wopenfile                1002df56 f   LIBCMT:_wopen.obj
 0001:0002d1e2       __initp_misc_winsig        1002e1e2 f   LIBCMT:winsig.obj
 0001:0002d22f       ___get_sigabrt             1002e22f f   LIBCMT:winsig.obj
 0001:0002d23c       _raise                     1002e23c f   LIBCMT:winsig.obj
 0001:0002d3ec       __initp_misc_rand_s        1002e3ec f   LIBCMT:rand_s.obj
 0001:0002d3f6       __initp_misc_initcrit      1002e3f6 f   LIBCMT:initcrit.obj
 0001:0002d410       ___crtInitCritSecAndSpinCount 1002e410 f   LIBCMT:initcrit.obj
 0001:0002d4d5       ?_ValidateRead@@YAHPBXI@Z  1002e4d5 f   LIBCMT:validate.obj
 0001:0002d4d5       ?_ValidateExecute@@YAHP6GHXZ@Z 1002e4d5 f   LIBCMT:validate.obj
 0001:0002d4d5       ?_ValidateWrite@@YAHPAXI@Z 1002e4d5 f   LIBCMT:validate.obj
 0001:0002d4f0       __allmul                   1002e4f0 f   LIBCMT:llmul.obj
 0001:0002d524       __global_unwind2           1002e524 f   LIBCMT:exsup.obj
 0001:0002d589       __local_unwind2            1002e589 f   LIBCMT:exsup.obj
 0001:0002d60d       __abnormal_termination     1002e60d f   LIBCMT:exsup.obj
 0001:0002d630       __NLG_Notify1              1002e630 f   LIBCMT:exsup.obj
 0001:0002d639       __NLG_Notify               1002e639 f   LIBCMT:exsup.obj
 0001:0002d650       __NLG_Dispatch             1002e650     LIBCMT:exsup.obj
 0001:0002d650       __NLG_Dispatch2            1002e650     LIBCMT:exsup.obj
 0001:0002d658       __NLG_Call                 1002e658 f   LIBCMT:exsup.obj
 0001:0002d65a       __NLG_Return2              1002e65a     LIBCMT:exsup.obj
 0001:0002d65b       __isatty                   1002e65b f   LIBCMT:isatty.obj
 0001:0002d6b9       __get_printf_count_output  1002e6b9 f   LIBCMT:printf.obj
 0001:0002d6cf       __wctomb_s_l               1002e6cf f   LIBCMT:wctomb.obj
 0001:0002d82e       _wctomb_s                  1002e82e f   LIBCMT:wctomb.obj
 0001:0002d850       __aulldvrm                 1002e850 f   LIBCMT:ulldvrm.obj
 0001:0002d935       __get_sse2_info            1002e935 f   LIBCMT:cpu_disp.obj
 0001:0002d995       ___sse2_available_init     1002e995 f   LIBCMT:cpu_disp.obj
 0001:0002d9a2       __fcloseall                1002e9a2 f   LIBCMT:closeall.obj
 0001:0002da41       __putwch_nolock            1002ea41 f   LIBCMT:putwch.obj
 0001:0002db03       __mbtowc_l                 1002eb03 f   LIBCMT:mbtowc.obj
 0001:0002dc16       _mbtowc                    1002ec16 f   LIBCMT:mbtowc.obj
 0001:0002dc30       _strrchr                   1002ec30 f   LIBCMT:strrchr.obj
 0001:0002dc5d       __atodbl_l                 1002ec5d f   LIBCMT:atodbl.obj
 0001:0002dd03       __atoflt_l                 1002ed03 f   LIBCMT:atodbl.obj
 0001:0002dda9       __fptostr                  1002eda9 f   LIBCMT:_fptostr.obj
 0001:0002de66       ___dtold                   1002ee66 f   LIBCMT:cfout.obj
 0001:0002df21       __fltout2                  1002ef21 f   LIBCMT:cfout.obj
 0001:0002dfb0       __alldvrm                  1002efb0 f   LIBCMT:lldvrm.obj
 0001:0002e090       __aullshr                  1002f090 f   LIBCMT:ullshr.obj
 0001:0002e0af       __fptrap                   1002f0af f   LIBCMT:crt0fp.obj
 0001:0002e0b8       __controlfp_s              1002f0b8 f   LIBCMT:contrlfp.obj
 0001:0002e122       __chsize_nolock            1002f122 f   LIBCMT:chsize.obj
 0001:0002e2d6       __setmode_nolock           1002f2d6 f   LIBCMT:setmode.obj
 0001:0002e392       __get_fmode                1002f392 f   LIBCMT:setmode.obj
 0001:0002e3c6       __getpath                  1002f3c6 f   LIBCMT:getpath.obj
 0001:0002e459       __mbsrchr_l                1002f459 f   LIBCMT:mbsrchr.obj
 0001:0002e519       __mbsrchr                  1002f519 f   LIBCMT:mbsrchr.obj
 0001:0002e52c       __mbschr_l                 1002f52c f   LIBCMT:mbschr.obj
 0001:0002e5e6       __mbschr                   1002f5e6 f   LIBCMT:mbschr.obj
 0001:0002e5f9       __dospawn                  1002f5f9 f   LIBCMT:dospawn.obj
 0001:0002e806       __cenvarg                  1002f806 f   LIBCMT:cenvarg.obj
 0001:0002ebdd       __mbsnbicoll_l             1002fbdd f   LIBCMT:mbsnbico.obj
 0001:0002ecc9       __mbsnbicoll               1002fcc9 f   LIBCMT:mbsnbico.obj
 0001:0002ece0       ___wtomb_environ           1002fce0 f   LIBCMT:wtombenv.obj
 0001:0002ed75       __mbsicmp_l                1002fd75 f   LIBCMT:mbsicmp.obj
 0001:0002ef8f       __mbsicmp                  1002ff8f f   LIBCMT:mbsicmp.obj
 0001:0002efa2       __mbsnbcmp_l               1002ffa2 f   LIBCMT:mbsnbcmp.obj
 0001:0002f10b       __mbsnbcmp                 1003010b f   LIBCMT:mbsnbcmp.obj
 0001:0002f122       ___crtMessageBoxA          10030122 f   LIBCMT:crtmbox.obj
 0001:0002f2c0       __set_error_mode           100302c0 f   LIBCMT:errmode.obj
 0001:0002f306       __iswctype_l               10030306 f   LIBCMT:iswctype.obj
 0001:0002f388       __87except                 10030388 f   LIBCMT:87except.obj
 0001:0002f4d5       __ismbblead                100304d5 f   LIBCMT:ismbbyte.obj
 0001:0002f623       ___crtGetLocaleInfoW       10030623 f   LIBCMT:w_loc.obj
 0001:0002f79b       ___crtGetLocaleInfoA       1003079b f   LIBCMT:a_loc.obj
 0001:0002f7d6       __strnicmp_l               100307d6 f   LIBCMT:strnicmp.obj
 0001:0002f8c6       __strnicmp                 100308c6 f   LIBCMT:strnicmp.obj
 0001:0002f9fd       __itoa_s                   100309fd f   LIBCMT:xtoas.obj
 0001:0002fa25       __wcsicmp_l                10030a25 f   LIBCMT:wcsicmp.obj
 0001:0002fb34       __wcsicmp                  10030b34 f   LIBCMT:wcsicmp.obj
 0001:0002fbc5       _wcsncmp                   10030bc5 f   LIBCMT:wcsncmp.obj
 0001:0002fbfa       ___initconout              10030bfa f   LIBCMT:initcon.obj
 0001:0002fc19       ___termcon                 10030c19 f   LIBCMT:initcon.obj
 0001:0002fc46       __ld12tod                  10030c46 f   LIBCMT:intrncvt.obj
 0001:00030188       __ld12tof                  10031188 f   LIBCMT:intrncvt.obj
 0001:000306ca       ___strgtold12_l            100316ca f   LIBCMT:strgtold.obj
 0001:00030d8e       _$I10_OUTPUT               10031d8e f   LIBCMT:x10fout.obj
 0001:00031784       __control87                10032784 f i LIBCMT:ieee87.obj
 0001:00031a87       __mbsnicmp_l               10032a87 f   LIBCMT:mbsnicmp.obj
 0001:00031c50       __mbsnicmp                 10032c50 f   LIBCMT:mbsnicmp.obj
 0001:00031ff0       ___crtCompareStringA       10032ff0 f   LIBCMT:a_cmp.obj
 0001:00032030       __strnicoll_l              10033030 f   LIBCMT:strnicol.obj
 0001:000321d2       ___crtsetenv               100331d2 f   LIBCMT:setenv.obj
 0001:0003263d       ___crtGetStringTypeW       1003363d f   LIBCMT:w_str.obj
 0001:0003267b       __raise_exc_ex             1003367b f   LIBCMT:fpexcept.obj
 0001:00032955       __raise_exc                10033955 f   LIBCMT:fpexcept.obj
 0001:00032976       __handle_exc               10033976 f   LIBCMT:fpexcept.obj
 0001:00032b57       __set_errno_from_matherr   10033b57 f   LIBCMT:fpexcept.obj
 0001:00032b7f       __statfp                   10033b7f f   LIBCMT:fpctrl.obj
 0001:00032b8a       __clrfp                    10033b8a f   LIBCMT:fpctrl.obj
 0001:00032b96       __ctrlfp                   10033b96 f   LIBCMT:fpctrl.obj
 0001:00032bbd       __set_statfp               10033bbd f   LIBCMT:fpctrl.obj
 0001:00032c13       ___set_fpsr_sse2           10033c13 f   LIBCMT:fpctrl.obj
 0001:00032c90       ___ascii_strnicmp          10033c90 f   LIBCMT:_strnicm.obj
 0001:00032cf1       __towlower_l               10033cf1 f   LIBCMT:towlower.obj
 0001:00032d9e       ___mtold12                 10033d9e f   LIBCMT:mantold.obj
 0001:00032f6a       __set_exp                  10033f6a f   LIBCMT:util.obj
 0001:00032f94       __decomp                   10033f94 f   LIBCMT:util.obj
 0001:000332a4       ___crtLCMapStringW         100342a4 f   LIBCMT:w_map.obj
 0001:000332e4       ___WSAFDIsSet@8            100342e4 f   ws2_32:WS2_32.dll
 0001:000332ea       _GdipDisposeImage@4        100342ea f   gdiplus:gdiplus.dll
 0001:000332f0       _GdipSaveImageToFile@16    100342f0 f   gdiplus:gdiplus.dll
 0001:000332f6       _GdipCreateBitmapFromHBITMAP@12 100342f6 f   gdiplus:gdiplus.dll
 0001:000332fc       _GdipGetImageEncodersSize@8 100342fc f   gdiplus:gdiplus.dll
 0001:00033302       _GdipGetImageEncoders@12   10034302 f   gdiplus:gdiplus.dll
 0001:00033308       _GdiplusShutdown@4         10034308 f   gdiplus:gdiplus.dll
 0001:0003330e       _GdiplusStartup@12         1003430e f   gdiplus:gdiplus.dll
 0001:00033314       _RtlUnwind@16              10034314 f   kernel32:KERNEL32.dll
 0002:00000000       __imp__CreateCompatibleBitmap@12 10037000     gdi32:GDI32.dll
 0002:00000004       __imp__SelectObject@8      10037004     gdi32:GDI32.dll
 0002:00000008       __imp__BitBlt@36           10037008     gdi32:GDI32.dll
 0002:0000000c       __imp__DeleteObject@4      1003700c     gdi32:GDI32.dll
 0002:00000010       __imp__CreateCompatibleDC@4 10037010     gdi32:GDI32.dll
 0002:00000014       \177GDI32_NULL_THUNK_DATA  10037014     gdi32:GDI32.dll
 0002:00000018       __imp__TlsAlloc@0          10037018     kernel32:KERNEL32.dll
 0002:0000001c       __imp__TlsGetValue@4       1003701c     kernel32:KERNEL32.dll
 0002:00000020       __imp__GetTimeZoneInformation@4 10037020     kernel32:KERNEL32.dll
 0002:00000024       __imp__CompareStringW@24   10037024     kernel32:KERNEL32.dll
 0002:00000028       __imp__CompareStringA@24   10037028     kernel32:KERNEL32.dll
 0002:0000002c       __imp__GetLocaleInfoW@16   1003702c     kernel32:KERNEL32.dll
 0002:00000030       __imp__GetFileAttributesA@4 10037030     kernel32:KERNEL32.dll
 0002:00000034       __imp__SetCurrentDirectoryA@4 10037034     kernel32:KERNEL32.dll
 0002:00000038       __imp__FindVolumeClose@4   10037038     kernel32:KERNEL32.dll
 0002:0000003c       __imp__FindFirstVolumeA@8  1003703c     kernel32:KERNEL32.dll
 0002:00000040       __imp__CloseHandle@4       10037040     kernel32:KERNEL32.dll
 0002:00000044       __imp__OpenProcess@12      10037044     kernel32:KERNEL32.dll
 0002:00000048       __imp__GetProcessId@4      10037048     kernel32:KERNEL32.dll
 0002:0000004c       __imp__GetCurrentProcess@0 1003704c     kernel32:KERNEL32.dll
 0002:00000050       __imp__CreateDirectoryA@8  10037050     kernel32:KERNEL32.dll
 0002:00000054       __imp__GetModuleFileNameA@12 10037054     kernel32:KERNEL32.dll
 0002:00000058       __imp__WaitForSingleObject@8 10037058     kernel32:KERNEL32.dll
 0002:0000005c       __imp__IsBadReadPtr@8      1003705c     kernel32:KERNEL32.dll
 0002:00000060       __imp__IsBadWritePtr@8     10037060     kernel32:KERNEL32.dll
 0002:00000064       __imp__ResumeThread@4      10037064     kernel32:KERNEL32.dll
 0002:00000068       __imp__CreateThread@24     10037068     kernel32:KERNEL32.dll
 0002:0000006c       __imp__TlsSetValue@8       1003706c     kernel32:KERNEL32.dll
 0002:00000070       __imp__SetUnhandledExceptionFilter@4 10037070     kernel32:KERNEL32.dll
 0002:00000074       __imp__GetSystemDefaultUILanguage@0 10037074     kernel32:KERNEL32.dll
 0002:00000078       __imp__MoveFileA@8         10037078     kernel32:KERNEL32.dll
 0002:0000007c       __imp__DeleteFileA@4       1003707c     kernel32:KERNEL32.dll
 0002:00000080       __imp__GetTickCount@0      10037080     kernel32:KERNEL32.dll
 0002:00000084       __imp__ExitProcess@4       10037084     kernel32:KERNEL32.dll
 0002:00000088       __imp__GetLocalTime@4      10037088     kernel32:KERNEL32.dll
 0002:0000008c       __imp__GetCommandLineA@0   1003708c     kernel32:KERNEL32.dll
 0002:00000090       __imp__CreateProcessA@40   10037090     kernel32:KERNEL32.dll
 0002:00000094       __imp__GetExitCodeProcess@8 10037094     kernel32:KERNEL32.dll
 0002:00000098       __imp__SetEndOfFile@4      10037098     kernel32:KERNEL32.dll
 0002:0000009c       __imp__WriteConsoleW@20    1003709c     kernel32:KERNEL32.dll
 0002:000000a0       __imp__GetConsoleOutputCP@0 100370a0     kernel32:KERNEL32.dll
 0002:000000a4       __imp__WriteConsoleA@20    100370a4     kernel32:KERNEL32.dll
 0002:000000a8       __imp__LoadLibraryA@4      100370a8     kernel32:KERNEL32.dll
 0002:000000ac       __imp__IsValidCodePage@4   100370ac     kernel32:KERNEL32.dll
 0002:000000b0       __imp__IsValidLocale@8     100370b0     kernel32:KERNEL32.dll
 0002:000000b4       __imp__EnumSystemLocalesA@8 100370b4     kernel32:KERNEL32.dll
 0002:000000b8       __imp__GetUserDefaultLCID@0 100370b8     kernel32:KERNEL32.dll
 0002:000000bc       __imp__TlsFree@4           100370bc     kernel32:KERNEL32.dll
 0002:000000c0       __imp__SetLastError@4      100370c0     kernel32:KERNEL32.dll
 0002:000000c4       __imp__HeapSize@12         100370c4     kernel32:KERNEL32.dll
 0002:000000c8       __imp__TerminateProcess@8  100370c8     kernel32:KERNEL32.dll
 0002:000000cc       __imp__SetEnvironmentVariableA@8 100370cc     kernel32:KERNEL32.dll
 0002:000000d0       __imp__GetModuleHandleA@4  100370d0     kernel32:KERNEL32.dll
 0002:000000d4       __imp__GetProcAddress@8    100370d4     kernel32:KERNEL32.dll
 0002:000000d8       __imp__GetCPInfo@8         100370d8     kernel32:KERNEL32.dll
 0002:000000dc       __imp__GetStringTypeW@16   100370dc     kernel32:KERNEL32.dll
 0002:000000e0       __imp__GetStringTypeA@20   100370e0     kernel32:KERNEL32.dll
 0002:000000e4       __imp__GetLocaleInfoA@16   100370e4     kernel32:KERNEL32.dll
 0002:000000e8       __imp__GetCurrentProcessId@0 100370e8     kernel32:KERNEL32.dll
 0002:000000ec       __imp__QueryPerformanceCounter@4 100370ec     kernel32:KERNEL32.dll
 0002:000000f0       __imp__GetEnvironmentStringsW@0 100370f0     kernel32:KERNEL32.dll
 0002:000000f4       __imp__FreeEnvironmentStringsW@4 100370f4     kernel32:KERNEL32.dll
 0002:000000f8       __imp__GetEnvironmentStrings@0 100370f8     kernel32:KERNEL32.dll
 0002:000000fc       __imp__FreeEnvironmentStringsA@4 100370fc     kernel32:KERNEL32.dll
 0002:00000100       __imp__GetOEMCP@0          10037100     kernel32:KERNEL32.dll
 0002:00000104       __imp__GetACP@0            10037104     kernel32:KERNEL32.dll
 0002:00000108       __imp__CreateFileW@28      10037108     kernel32:KERNEL32.dll
 0002:0000010c       __imp__CreateFileA@28      1003710c     kernel32:KERNEL32.dll
 0002:00000110       __imp__SetStdHandle@8      10037110     kernel32:KERNEL32.dll
 0002:00000114       __imp__FlushFileBuffers@4  10037114     kernel32:KERNEL32.dll
 0002:00000118       __imp__GetConsoleMode@8    10037118     kernel32:KERNEL32.dll
 0002:0000011c       __imp__GetConsoleCP@0      1003711c     kernel32:KERNEL32.dll
 0002:00000120       __imp__WriteFile@20        10037120     kernel32:KERNEL32.dll
 0002:00000124       __imp__GetStartupInfoA@4   10037124     kernel32:KERNEL32.dll
 0002:00000128       __imp__GetFileType@4       10037128     kernel32:KERNEL32.dll
 0002:0000012c       __imp__GetStdHandle@4      1003712c     kernel32:KERNEL32.dll
 0002:00000130       __imp__SetHandleCount@4    10037130     kernel32:KERNEL32.dll
 0002:00000134       __imp__HeapReAlloc@16      10037134     kernel32:KERNEL32.dll
 0002:00000138       __imp__VirtualAlloc@16     10037138     kernel32:KERNEL32.dll
 0002:0000013c       __imp__LCMapStringW@24     1003713c     kernel32:KERNEL32.dll
 0002:00000140       __imp__VirtualFree@12      10037140     kernel32:KERNEL32.dll
 0002:00000144       __imp__HeapCreate@12       10037144     kernel32:KERNEL32.dll
 0002:00000148       __imp__InterlockedIncrement@4 10037148     kernel32:KERNEL32.dll
 0002:0000014c       __imp__InterlockedDecrement@4 1003714c     kernel32:KERNEL32.dll
 0002:00000150       __imp__Sleep@4             10037150     kernel32:KERNEL32.dll
 0002:00000154       __imp__InitializeCriticalSection@4 10037154     kernel32:KERNEL32.dll
 0002:00000158       __imp__DeleteCriticalSection@4 10037158     kernel32:KERNEL32.dll
 0002:0000015c       __imp__EnterCriticalSection@4 1003715c     kernel32:KERNEL32.dll
 0002:00000160       __imp__LeaveCriticalSection@4 10037160     kernel32:KERNEL32.dll
 0002:00000164       __imp__GetSystemTimeAsFileTime@4 10037164     kernel32:KERNEL32.dll
 0002:00000168       __imp__RaiseException@16   10037168     kernel32:KERNEL32.dll
 0002:0000016c       __imp__RtlUnwind@16        1003716c     kernel32:KERNEL32.dll
 0002:00000170       __imp__UnhandledExceptionFilter@4 10037170     kernel32:KERNEL32.dll
 0002:00000174       __imp__IsDebuggerPresent@0 10037174     kernel32:KERNEL32.dll
 0002:00000178       __imp__GetLastError@0      10037178     kernel32:KERNEL32.dll
 0002:0000017c       __imp__HeapFree@12         1003717c     kernel32:KERNEL32.dll
 0002:00000180       __imp__MultiByteToWideChar@24 10037180     kernel32:KERNEL32.dll
 0002:00000184       __imp__ReadFile@20         10037184     kernel32:KERNEL32.dll
 0002:00000188       __imp__SetFilePointer@16   10037188     kernel32:KERNEL32.dll
 0002:0000018c       __imp__HeapAlloc@12        1003718c     kernel32:KERNEL32.dll
 0002:00000190       __imp__GetCurrentThreadId@0 10037190     kernel32:KERNEL32.dll
 0002:00000194       __imp__GetVersionExA@4     10037194     kernel32:KERNEL32.dll
 0002:00000198       __imp__GetProcessHeap@0    10037198     kernel32:KERNEL32.dll
 0002:0000019c       __imp__LCMapStringA@24     1003719c     kernel32:KERNEL32.dll
 0002:000001a0       __imp__WideCharToMultiByte@32 100371a0     kernel32:KERNEL32.dll
 0002:000001a4       __imp__HeapDestroy@4       100371a4     kernel32:KERNEL32.dll
 0002:000001a8       \177KERNEL32_NULL_THUNK_DATA 100371a8     kernel32:KERNEL32.dll
 0002:000001ac       __imp__EnumProcesses@12    100371ac     psapi:PSAPI.DLL
 0002:000001b0       __imp__GetModuleFileNameExA@16 100371b0     psapi:PSAPI.DLL
 0002:000001b4       \177PSAPI_NULL_THUNK_DATA  100371b4     psapi:PSAPI.DLL
 0002:000001b8       __imp__SDL_RWFromFile      100371b8     SDL:SDL.dll
 0002:000001bc       __imp__SDL_LoadBMP_RW      100371bc     SDL:SDL.dll
 0002:000001c0       __imp__SDL_CreateRGBSurface 100371c0     SDL:SDL.dll
 0002:000001c4       __imp__SDL_UpperBlit       100371c4     SDL:SDL.dll
 0002:000001c8       __imp__SDL_RWFromMem       100371c8     SDL:SDL.dll
 0002:000001cc       __imp__SDL_FreeSurface     100371cc     SDL:SDL.dll
 0002:000001d0       __imp__SDL_ConvertSurface  100371d0     SDL:SDL.dll
 0002:000001d4       __imp__SDL_Init            100371d4     SDL:SDL.dll
 0002:000001d8       \177SDL_NULL_THUNK_DATA    100371d8     SDL:SDL.dll
 0002:000001dc       __imp__IMG_Load_RW         100371dc     SDL_image:SDL_image.dll
 0002:000001e0       __imp__IMG_Init            100371e0     SDL_image:SDL_image.dll
 0002:000001e4       \177SDL_image_NULL_THUNK_DATA 100371e4     SDL_image:SDL_image.dll
 0002:000001e8       __imp__MapVirtualKeyA@8    100371e8     user32:USER32.dll
 0002:000001ec       __imp__GetAsyncKeyState@4  100371ec     user32:USER32.dll
 0002:000001f0       __imp__GetParent@4         100371f0     user32:USER32.dll
 0002:000001f4       __imp__PostMessageA@16     100371f4     user32:USER32.dll
 0002:000001f8       __imp__IsWindow@4          100371f8     user32:USER32.dll
 0002:000001fc       __imp__MessageBoxA@16      100371fc     user32:USER32.dll
 0002:00000200       __imp__ReleaseDC@8         10037200     user32:USER32.dll
 0002:00000204       __imp__EnumDisplaySettingsA@12 10037204     user32:USER32.dll
 0002:00000208       __imp__TranslateMessage@4  10037208     user32:USER32.dll
 0002:0000020c       __imp__DispatchMessageA@4  1003720c     user32:USER32.dll
 0002:00000210       __imp__PeekMessageA@20     10037210     user32:USER32.dll
 0002:00000214       __imp__GetDC@4             10037214     user32:USER32.dll
 0002:00000218       __imp__OemToCharA@8        10037218     user32:USER32.dll
 0002:0000021c       \177USER32_NULL_THUNK_DATA 1003721c     user32:USER32.dll
 0002:00000220       __imp__socket@12           10037220     ws2_32:WS2_32.dll
 0002:00000224       __imp__connect@12          10037224     ws2_32:WS2_32.dll
 0002:00000228       __imp__select@20           10037228     ws2_32:WS2_32.dll
 0002:0000022c       __imp____WSAFDIsSet@8      1003722c     ws2_32:WS2_32.dll
 0002:00000230       __imp__WSAGetLastError@0   10037230     ws2_32:WS2_32.dll
 0002:00000234       __imp__send@16             10037234     ws2_32:WS2_32.dll
 0002:00000238       __imp__gethostbyname@4     10037238     ws2_32:WS2_32.dll
 0002:0000023c       __imp__WSAStartup@8        1003723c     ws2_32:WS2_32.dll
 0002:00000240       __imp__recv@16             10037240     ws2_32:WS2_32.dll
 0002:00000244       __imp__closesocket@4       10037244     ws2_32:WS2_32.dll
 0002:00000248       __imp__htons@4             10037248     ws2_32:WS2_32.dll
 0002:0000024c       __imp__inet_addr@4         1003724c     ws2_32:WS2_32.dll
 0002:00000250       \177WS2_32_NULL_THUNK_DATA 10037250     ws2_32:WS2_32.dll
 0002:00000254       __imp__GdipDisposeImage@4  10037254     gdiplus:gdiplus.dll
 0002:00000258       __imp__GdipSaveImageToFile@16 10037258     gdiplus:gdiplus.dll
 0002:0000025c       __imp__GdipCreateBitmapFromHBITMAP@12 1003725c     gdiplus:gdiplus.dll
 0002:00000260       __imp__GdipGetImageEncodersSize@8 10037260     gdiplus:gdiplus.dll
 0002:00000264       __imp__GdipGetImageEncoders@12 10037264     gdiplus:gdiplus.dll
 0002:00000268       __imp__GdiplusShutdown@4   10037268     gdiplus:gdiplus.dll
 0002:0000026c       __imp__GdiplusStartup@12   1003726c     gdiplus:gdiplus.dll
 0002:00000270       \177gdiplus_NULL_THUNK_DATA 10037270     gdiplus:gdiplus.dll
 0002:00000274       ___xc_a                    10037274     LIBCMT:crt0init.obj
 0002:000002b4       ___xc_z                    100372b4     LIBCMT:crt0init.obj
 0002:000002b8       ___xi_a                    100372b8     LIBCMT:crt0init.obj
 0002:000002d4       ___xi_z                    100372d4     LIBCMT:crt0init.obj
 0002:000002d8       ___xp_a                    100372d8     LIBCMT:crt0init.obj
 0002:000002e4       ___xp_z                    100372e4     LIBCMT:crt0init.obj
 0002:000002e8       ___xt_a                    100372e8     LIBCMT:crt0init.obj
 0002:000002f0       ___xt_z                    100372f0     LIBCMT:crt0init.obj
 0002:00000300       ??_C@_0P@GHFPNOJB@bad?5allocation?$AA@ 10037300     a2mgr.obj
 0002:00000314       ??_7bad_alloc@std@@6B@     10037314     a2mgr.obj
 0002:0000031c       ??_C@_0P@FKBPGFLA@a2mgr?5closed?4?6?$AA@ 1003731c     a2mgr.obj
 0002:0000032c       ??_C@_01KICIPPFI@?2?$AA@   1003732c     a2mgr.obj
 0002:0000032e       ??_C@_00CNPNBAHC@?$AA@     1003732e     a2mgr.obj
 0002:00000330       ??_C@_0M@FODFMELB@?4?1patch?4res?$AA@ 10037330     a2mgr.obj
 0002:0000033c       ??_C@_05OCKFKOHN@patch?$AA@ 1003733c     a2mgr.obj
 0002:00000344       ??_C@_0L@JGLAMJNJ@?4?1main?4res?$AA@ 10037344     a2mgr.obj
 0002:00000350       ??_C@_04GHJNJNPO@main?$AA@ 10037350     a2mgr.obj
 0002:00000358       ??_C@_0P@OALGHCGH@?4?1graphics?4res?$AA@ 10037358     a2mgr.obj
 0002:00000368       ??_C@_08EIINAAAI@graphics?$AA@ 10037368     a2mgr.obj
 0002:00000374       ??_C@_0BD@OBJDALAH@?$CF?$CFsallods?9?$CFu?9?$CK?4$$$?$AA@ 10037374     a2mgr.obj
 0002:00000388       ??_C@_0BC@JGGACLFD@allods?9?$CFu?9?$CF?$CFu?4$$$?$AA@ 10037388     a2mgr.obj
 0002:0000039c       ??_C@_0CF@IBGGDHNF@a2mgr?5?$CIv1?413?$CJ?1zxmgr?5?$CIv2?40?$CJ?5start@ 1003739c     a2mgr.obj
 0002:000003c4       ??_C@_0BK@NJMHDGAG@Rage?5of?5Mages?5II?5?$CIv1?407?$CJ?6?$AA@ 100373c4     a2mgr.obj
 0002:000003e0       ??_C@_01EEMJAFIK@?6?$AA@   100373e0     a2mgr.obj
 0002:000003e4       ??_C@_04FPOLKAEB@?4log?$AA@ 100373e4     a2mgr.obj
 0002:000003ec       ??_C@_03PCJIPBFG@?4?$CFu?$AA@ 100373ec     a2mgr.obj
 0002:000003f0       ??_C@_0N@PFHDGNMG@logs?2allods2?$AA@ 100373f0     a2mgr.obj
 0002:00000400       ??_C@_0BM@ELLNADKP@logs?2allods2_?$CF02u?9?$CF02u?9?$CF04u?$AA@ 10037400     a2mgr.obj
 0002:0000041c       ??_C@_07KBFNGLLD@allods2?$AA@ 1003741c     a2mgr.obj
 0002:00000424       ??_C@_0M@KJFJNMIL@screenshots?$AA@ 10037424     a2mgr.obj
 0002:00000430       ??_C@_04ILAGGJBN@maps?$AA@ 10037430     a2mgr.obj
 0002:00000438       ??_C@_04EPNAICGL@logs?$AA@ 10037438     a2mgr.obj
 0002:00000440       ??_C@_09EPPFGAKB@world?4res?$AA@ 10037440     a2mgr.obj
 0002:0000044c       ??_C@_09CCAOBJFP@patch?4res?$AA@ 1003744c     a2mgr.obj
 0002:00000458       ??_C@_01LFCBOECM@?4?$AA@   10037458     a2mgr.obj
 0002:0000045c       ??_C@_05OIFFPMNL@time?3?$AA@ 1003745c     add_info.obj
 0002:00000464       ??_C@_0P@POAAOGDI@?$CF02u?3?$CF02u?3?$CF02u?$AA@ 10037464     add_info.obj
 0002:00000474       ??_C@_04DHIOCCOD@fps?3?$AA@ 10037474     add_info.obj
 0002:0000047c       ??_C@_05KJDOJDAE@?$CF3?41f?$AA@ 1003747c     add_info.obj
 0002:00000484       ??_C@_0BB@DOOHHMIF@TournamentMaster?$AA@ 10037484     administrat_fix.obj
 0002:00000498       ??_C@_0BC@IGILEHB@TournamentMaster?5?$AA@ 10037498     administrat_fix.obj
 0002:000004ac       ??_C@_0L@IPEHJCDA@GameMaster?$AA@ 100374ac     administrat_fix.obj
 0002:000004b8       ??_C@_0M@LDNCFDJM@GameMaster?5?$AA@ 100374b8     administrat_fix.obj
 0002:000004c4       ??_C@_0O@PMKNNGMO@Administrator?$AA@ 100374c4     administrat_fix.obj
 0002:000004d4       ??_C@_0P@OJKEGGMD@Administrator?5?$AA@ 100374d4     administrat_fix.obj
 0002:000004e4       ??_C@_05KJDPJACP@?$FL?$CFs?$FN?5?$AA@ 100374e4     chat.obj
 0002:000004ec       ??_C@_0BD@HKLAFPKI@window?5open?3?5?$CF08X?6?$AA@ 100374ec     chat_history.obj
 0002:00000504       ??_7logic_error@std@@6B@   10037504     chat_history.obj
 0002:00000510       ??_7length_error@std@@6B@  10037510     chat_history.obj
 0002:00000518       ??_C@_0BD@OLBABOEK@vector?$DMT?$DO?5too?5long?$AA@ 10037518     chat_history.obj
 0002:00000530       ??_7out_of_range@std@@6B@  10037530     class_extend.obj
 0002:00000538       ??_C@_0BE@JONHPENG@map?1set?$DMT?$DO?5too?5long?$AA@ 10037538     class_extend.obj
 0002:0000054c       ??_C@_0BM@PAPJHAGI@invalid?5map?1set?$DMT?$DO?5iterator?$AA@ 1003754c     class_extend.obj
 0002:0000056c       ??_7facet@locale@std@@6B@  1003756c     config.obj
 0002:00000574       ??_7ios_base@std@@6B@      10037574     config.obj
 0002:0000057c       ??_7?$basic_istream@DU?$char_traits@D@std@@@std@@6B@ 1003757c     config.obj
 0002:00000584       ??_7?$basic_ios@DU?$char_traits@D@std@@@std@@6B@ 10037584     config.obj
 0002:0000058c       ??_7?$basic_streambuf@DU?$char_traits@D@std@@@std@@6B@ 1003758c     config.obj
 0002:000005c8       ??_7?$basic_filebuf@DU?$char_traits@D@std@@@std@@6B@ 100375c8     config.obj
 0002:00000604       ??_7runtime_error@std@@6B@ 10037604     config.obj
 0002:00000610       ??_7failure@ios_base@std@@6B@ 10037610     config.obj
 0002:00000618       ??_C@_0BA@ELKIONDK@bad?5locale?5name?$AA@ 10037618     config.obj
 0002:0000062c       ??_7?$ctype@D@std@@6B@     1003762c     config.obj
 0002:00000658       ??_C@_01GFHCPBMG@C?$AA@    10037658     config.obj
 0002:0000065c       ??_C@_0BF@OOHOMBOF@ios_base?3?3eofbit?5set?$AA@ 1003765c     config.obj
 0002:00000674       ??_C@_0BG@FMKFHCIL@ios_base?3?3failbit?5set?$AA@ 10037674     config.obj
 0002:0000068c       ??_C@_0BF@PHHKMMFD@ios_base?3?3badbit?5set?$AA@ 1003768c     config.obj
 0002:000006a8       ??_7?$basic_ifstream@DU?$char_traits@D@std@@@std@@6B@ 100376a8     config.obj
 0002:000006ac       ??_C@_08EPJLHIJG@bad?5cast?$AA@ 100376ac     config.obj
 0002:000006bc       ??_7?$codecvt@DDH@std@@6B@ 100376bc     config.obj
 0002:000006dc       ??_8?$basic_ifstream@DU?$char_traits@D@std@@@std@@7B@ 100376dc     config.obj
 0002:000006e8       __real@404f800000000000    100376e8     config.obj
 0002:000006f0       __real@403f000000000000    100376f0     config.obj
 0002:000006f8       __real@406fe00000000000    100376f8     config.obj
 0002:00000700       __real@4f800000            10037700     config.obj
 0002:00000704       ??_C@_01JLIPDDHJ@?3?$AA@   10037704     config.obj
 0002:00000708       ??_C@_0N@CEBDCBIL@r_grid_color?$AA@ 10037708     config.obj
 0002:00000718       ??_C@_06EIAPMGOH@r_grid?$AA@ 10037718     config.obj
 0002:00000720       ??_C@_07CNNBJDHA@english?$AA@ 10037720     config.obj
 0002:00000728       ??_C@_03LKLGDMJI@eng?$AA@  10037728     config.obj
 0002:0000072c       ??_C@_07NHJPDDA@russian?$AA@ 1003772c     config.obj
 0002:00000734       ??_C@_03EJKFMIHK@rus?$AA@  10037734     config.obj
 0002:00000738       ??_C@_0L@EPDOPOPA@z_language?$AA@ 10037738     config.obj
 0002:00000744       ??_C@_0M@HOAKNDPI@z_screendir?$AA@ 10037744     config.obj
 0002:00000750       ??_C@_09OPIHKLPF@z_logsdir?$AA@ 10037750     config.obj
 0002:0000075c       ??_C@_08JEIBIBOP@r_height?$AA@ 1003775c     config.obj
 0002:00000768       ??_C@_07GJKIEGBH@r_width?$AA@ 10037768     config.obj
 0002:00000770       ??_C@_09GAAHAANA@g_altchat?$AA@ 10037770     config.obj
 0002:0000077c       ??_C@_06PGEFGCLG@r_time?$AA@ 1003777c     config.obj
 0002:00000784       ??_C@_05PMDKEADG@r_fps?$AA@ 10037784     config.obj
 0002:0000078c       ??_C@_0O@POGJFFOE@g_scrollspeed?$AA@ 1003778c     config.obj
 0002:0000079c       ??_C@_03MOLNDNH@gif?$AA@   1003779c     config.obj
 0002:000007a0       ??_C@_03CAKEDOOO@bmp?$AA@  100377a0     config.obj
 0002:000007a4       ??_C@_03PEGNKCLE@jpg?$AA@  100377a4     config.obj
 0002:000007a8       ??_C@_03NNHBJLDF@png?$AA@  100377a8     config.obj
 0002:000007ac       ??_C@_0N@CFFECJH@v_screentype?$AA@ 100377ac     config.obj
 0002:000007bc       ??_C@_02CBLDBPFN@?1?1?$AA@ 100377bc     config.obj
 0002:000007c0       ??_C@_02GAHDBGM@?$CD?$DL?$AA@ 100377c0     config.obj
 0002:000007c4       ??_C@_08BCBDEKMM@alt_chat?$AA@ 100377c4     config.obj
 0002:000007d0       ??_C@_0N@NCFAKAPJ@show_watches?$AA@ 100377d0     config.obj
 0002:000007e0       ??_C@_08EMOCBMJK@show_fps?$AA@ 100377e0     config.obj
 0002:000007ec       ??_C@_0BA@EJJCLDG@scroll_inverval?$AA@ 100377ec     config.obj
 0002:000007fc       ??_C@_01NEMOKFLO@?$DN?$AA@ 100377fc     config.obj
 0002:00000800       ??_C@_0N@JJKHJGAI@allods2?4conf?$AA@ 10037800     config.obj
 0002:00000810       ??_C@_0M@NEAFPGKI@allods2?4cfg?$AA@ 10037810     config.obj
 0002:00000820       __real@4059000000000000    10037820     CRC_32.obj
 0002:00000828       __real@41f0000000000000    10037828     CRC_32.obj
 0002:00000830       ??_C@_0CF@PJHMIKCH@string?3?5?$CC?$CFs?$CC?$DL?5return?5address?50x?$CF@ 10037830     debug.obj
 0002:00000858       ??_C@_0BH@BLBIDMEH@a2mgr?5crashed?5TWICE?4?6?6?$AA@ 10037858     debug.obj
 0002:00000870       ??_C@_0BB@EIFIKMAB@a2mgr?5crashed?4?6?6?$AA@ 10037870     debug.obj
 0002:00000884       ??_C@_0BB@KGHABLLC@END?5STACK?5TRACE?6?$AA@ 10037884     debug.obj
 0002:00000898       ??_C@_0CF@FJMKCPNO@BEGIN?5STACK?5TRACE?3?5?$CF08Xh?5?$FL?$CF08Xh?$FN@ 10037898     debug.obj
 0002:000008c0       ??_C@_0JA@BBNPFOEE@EXCEPTION?5DUMP?3?6eax?$DN?$CF08Xh?0ebx?$DN?$CF0@ 100378c0     debug.obj
 0002:00000950       ??_C@_0BB@CLCNBNMA@idle?3?5frame?3?5?$CFu?6?$AA@ 10037950     debug.obj
 0002:00000964       ??_C@_0CG@NOENENEA@?4256?5displayed?5?$CI?$CC?$CFs?$CC?0?5?$FLebp?$CL4?$FN?$DN?$CF0@ 10037964     debug.obj
 0002:0000098c       ??_C@_03HPADHAHE@N?1A?$AA@ 1003798c     debug.obj
 0002:00000990       ??_C@_01KMDKNFGN@?1?$AA@   10037990     File.obj
 0002:00000994       ??_C@_06DMEKJAEC@patch?1?$AA@ 10037994     File.obj
 0002:0000099c       ??_C@_0BL@GEFCLJN@FATAL?5ERROR?3?5can?8t?5load?5?$CFs?$AA@ 1003799c     Image.obj
 0002:000009b8       ??_C@_07FICLAJOF@Allods2?$AA@ 100379b8     Image.obj
 0002:000009c0       ??_C@_08HCMAPGPI@?$CFs?$CFd?4256?$AA@ 100379c0     itempng.obj
 0002:000009cc       ??_C@_08IAJEMLAK@?$CFs?$CFd?4png?$AA@ 100379cc     itempng.obj
 0002:000009d8       ??_C@_04LGLCBPKD@?4256?$AA@ 100379d8     itempng.obj
 0002:000009e0       ??_C@_04EEOGCCFB@?4png?$AA@ 100379e0     itempng.obj
 0002:000009e8       ??_C@_0DK@BCCILJGI@?5?5?5?5?5?5?5?5?5?5?5?5?5unk1?5?$DN?5?$CFu?0?5unk2?5?$DN?5?$CF@ 100379e8     landscape_renderer.obj
 0002:00000a28       ??_C@_0EE@EDKKNONK@tile?5?$DN?5?$CF04X?$DL?5x1?5?$DN?5?$CFd?0?5x2?5?$DN?5?$CFd?0?5h@ 10037a28     landscape_renderer.obj
 0002:00000a6c       ??_C@_0DA@JKGDLLDN@?5?5Error?5converting?5image?0?5file?5?$CC@ 10037a6c     landscape_renderer.obj
 0002:00000a9c       ??_C@_0CG@BAKBACJI@?5?5Error?5converting?5image?0?5file?5?$CC@ 10037a9c     landscape_renderer.obj
 0002:00000ac4       ??_C@_0CG@MNPECLFI@?5?5Error?5image?5dimensions?0?5file?5?$CC@ 10037ac4     landscape_renderer.obj
 0002:00000aec       ??_C@_0BM@BPLKEJNG@?5?5Error?5loading?5file?5?$CC?$CFs?$CC?$CB?6?$AA@ 10037aec     landscape_renderer.obj
 0002:00000b08       ??_C@_02JDPG@rb?$AA@       10037b08     landscape_renderer.obj
 0002:00000b0c       ??_C@_0CB@MIMCBPBE@graphics?1terrain?1tile?$CFu?9?$CF02u?4bmp@ 10037b0c     landscape_renderer.obj
 0002:00000b30       ??_C@_0BP@HBBABJFP@P_LoadTiles?3?5Loading?5tiles?4?4?4?6?$AA@ 10037b30     landscape_renderer.obj
 0002:00000b50       ??_C@_0CH@MFIMKAAL@locale?2ru?2graphics?2MainMenu?2text@ 10037b50     language.obj
 0002:00000b78       ??_C@_0CJ@NLAIOHKG@locale?2ru?2graphics?2MainMenu?2butt@ 10037b78     language.obj
 0002:00000ba4       ??_C@_0CK@PHELILHG@locale?2ru?2graphics?2MainMenu?2butt@ 10037ba4     language.obj
 0002:00000bd0       ??_C@_0CG@GBAOEBGH@locale?2ru?2graphics?2MainMenu?2menu@ 10037bd0     language.obj
 0002:00000bf8       ??_C@_0CJ@OMHLGEAE@locale?2ru?2graphics?2MainMenu?2Menu@ 10037bf8     language.obj
 0002:00000c24       ??_C@_0CD@KJEIBEAL@locale?2ru?2graphics?2logo?2allods?4b@ 10037c24     language.obj
 0002:00000c48       ??_C@_0CH@MBEAFIKB@locale?2ru?2graphics?2Global?4Map?2GM@ 10037c48     language.obj
 0002:00000c70       ??_C@_0CI@GCJLOPDI@locale?2ru?2graphics?2Global?4Map?2Um@ 10037c70     language.obj
 0002:00000c98       ??_C@_0CF@LDMKPACD@locale?2ru?2graphics?2famehall?2hall@ 10037c98     language.obj
 0002:00000cc0       ??_C@_0BJ@NOMLHOBP@locale?2ru?2graphics?2logo?2?$AA@ 10037cc0     language.obj
 0002:00000cdc       ??_C@_0CF@JMEDDIJE@locale?2ru?2graphics?2chrgen?2leftup@ 10037cdc     language.obj
 0002:00000d04       ??_C@_0BG@DPMMMIOE@locale?2ru?2docs?2?$CFd?4txt?$AA@ 10037d04     language.obj
 0002:00000d1c       ??_C@_0BE@NGFOMDGA@locale?2ru?2quest?4txt?$AA@ 10037d1c     language.obj
 0002:00000d30       ??_C@_0BI@FOJDLLPK@locale?2ru?2mission?$CFd?4txt?$AA@ 10037d30     language.obj
 0002:00000d48       ??_C@_0BD@EEFBEHEP@locale?2ru?2town?4txt?$AA@ 10037d48     language.obj
 0002:00000d5c       ??_C@_0BE@GLGLNELI@locale?2ru?2patch?4txt?$AA@ 10037d5c     language.obj
 0002:00000d70       ??_C@_0BE@HEBGINDO@locale?2ru?2tunes?4txt?$AA@ 10037d70     language.obj
 0002:00000d84       ??_C@_0BH@BLIAALOD@locale?2ru?2cutpaths?4txt?$AA@ 10037d84     language.obj
 0002:00000d9c       ??_C@_0BH@NIAPHNGP@locale?2ru?2cutscene?4txt?$AA@ 10037d9c     language.obj
 0002:00000db4       ??_C@_0BH@HIIGDHFO@locale?2ru?2npcnames?4txt?$AA@ 10037db4     language.obj
 0002:00000dcc       ??_C@_0BH@GLAHAOEG@locale?2ru?2itemname?4txt?$AA@ 10037dcc     language.obj
 0002:00000de4       ??_C@_0BH@MIFICOMO@locale?2ru?2building?4txt?$AA@ 10037de4     language.obj
 0002:00000dfc       ??_C@_0BH@HCDECMBP@locale?2ru?2unitname?4txt?$AA@ 10037dfc     language.obj
 0002:00000e14       ??_C@_0BG@GGPAFNNH@locale?2ru?2dialogs?4txt?$AA@ 10037e14     language.obj
 0002:00000e2c       ??_C@_0BE@OGCPDKMD@locale?2ru?2spell?4txt?$AA@ 10037e2c     language.obj
 0002:00000e40       ??_C@_0BF@MIKHIKFN@locale?2ru?2spells?4txt?$AA@ 10037e40     language.obj
 0002:00000e58       ??_C@_0BE@JJDIAHNC@locale?2ru?2stats?4txt?$AA@ 10037e58     language.obj
 0002:00000e6c       ??_C@_0BK@ONCBKIJH@locale?2ru?2heropicture?4txt?$AA@ 10037e6c     language.obj
 0002:00000e88       ??_C@_0BD@GGFJEGME@locale?2ru?2main?4txt?$AA@ 10037e88     language.obj
 0002:00000e9c       ??_C@_0BD@MDGAEBDN@locale?2ru?2help?4txt?$AA@ 10037e9c     language.obj
 0002:00000eb0       ??_C@_0BI@HLDHADDB@locale?2ru?2globalmap?4txt?$AA@ 10037eb0     language.obj
 0002:00000ec8       ??_C@_0BG@LNNFHKGB@locale?2ru?2credits?4txt?$AA@ 10037ec8     language.obj
 0002:00000ee0       ??_C@_0CH@OKCJCOJM@locale?2en?2graphics?2MainMenu?2text@ 10037ee0     language.obj
 0002:00000f08       ??_C@_0CJ@OPAIHKPJ@locale?2en?2graphics?2MainMenu?2butt@ 10037f08     language.obj
 0002:00000f34       ??_C@_0CK@MKLMHIO@locale?2en?2graphics?2MainMenu?2butt@ 10037f34     language.obj
 0002:00000f60       ??_C@_0CG@KLPMFBFL@locale?2en?2graphics?2MainMenu?2menu@ 10037f60     language.obj
 0002:00000f88       ??_C@_0CJ@NIHLPJFL@locale?2en?2graphics?2MainMenu?2Menu@ 10037f88     language.obj
 0002:00000fb4       ??_C@_0CD@JJHMGGJE@locale?2en?2graphics?2logo?2allods?4b@ 10037fb4     language.obj
 0002:00000fd8       ??_C@_0CH@OOOFNGDG@locale?2en?2graphics?2Global?4Map?2GM@ 10037fd8     language.obj
 0002:00001000       ??_C@_0CI@MNPEMFB@locale?2en?2graphics?2Global?4Map?2Um@ 10038000     language.obj
 0002:00001028       ??_C@_0CF@PLBIEGNC@locale?2en?2graphics?2famehall?2hall@ 10038028     language.obj
 0002:00001050       ??_C@_0BJ@LDJNKFAE@locale?2en?2graphics?2logo?2?$AA@ 10038050     language.obj
 0002:0000106c       ??_C@_0CF@NEJBIOGF@locale?2en?2graphics?2chrgen?2leftup@ 1003806c     language.obj
 0002:00001094       ??_C@_0BG@MJCFFPDA@locale?2en?2docs?2?$CFd?4txt?$AA@ 10038094     language.obj
 0002:000010ac       ??_C@_0BE@GCKACKBA@locale?2en?2quest?4txt?$AA@ 100380ac     language.obj
 0002:000010c0       ??_C@_0BI@NFKMELOP@locale?2en?2mission?$CFd?4txt?$AA@ 100380c0     language.obj
 0002:000010d8       ??_C@_0BD@LBAGAALD@locale?2en?2town?4txt?$AA@ 100380d8     language.obj
 0002:000010ec       ??_C@_0BE@NPJFDNMI@locale?2en?2patch?4txt?$AA@ 100380ec     language.obj
 0002:00001100       ??_C@_0BE@MAOIGEEO@locale?2en?2tunes?4txt?$AA@ 10038100     language.obj
 0002:00001114       ??_C@_0BH@JKMIPELJ@locale?2en?2cutpaths?4txt?$AA@ 10038114     language.obj
 0002:0000112c       ??_C@_0BH@FJEHICDF@locale?2en?2cutscene?4txt?$AA@ 1003812c     language.obj
 0002:00001144       ??_C@_0BH@PJMOMIAE@locale?2en?2npcnames?4txt?$AA@ 10038144     language.obj
 0002:0000115c       ??_C@_0BH@OKEPPBBM@locale?2en?2itemname?4txt?$AA@ 1003815c     language.obj
 0002:00001174       ??_C@_0BH@EJBANBJE@locale?2en?2building?4txt?$AA@ 10038174     language.obj
 0002:0000118c       ??_C@_0BH@PDHMNDEF@locale?2en?2unitname?4txt?$AA@ 1003818c     language.obj
 0002:000011a4       ??_C@_0BG@JABJMKAD@locale?2en?2dialogs?4txt?$AA@ 100381a4     language.obj
 0002:000011bc       ??_C@_0BE@FCNBNDLD@locale?2en?2spell?4txt?$AA@ 100381bc     language.obj
 0002:000011d0       ??_C@_0BF@JIBGAFII@locale?2en?2spells?4txt?$AA@ 100381d0     language.obj
 0002:000011e8       ??_C@_0BE@CNMGOOKC@locale?2en?2stats?4txt?$AA@ 100381e8     language.obj
 0002:000011fc       ??_C@_0BK@GHCJDHKA@locale?2en?2heropicture?4txt?$AA@ 100381fc     language.obj
 0002:00001218       ??_C@_0BD@JDAOABDI@locale?2en?2main?4txt?$AA@ 10038218     language.obj
 0002:0000122c       ??_C@_0BD@DGDHAGMB@locale?2en?2help?4txt?$AA@ 1003822c     language.obj
 0002:00001240       ??_C@_0BI@PAAIPDCE@locale?2en?2globalmap?4txt?$AA@ 10038240     language.obj
 0002:00001258       ??_C@_0BG@ELDMONLF@locale?2en?2credits?4txt?$AA@ 10038258     language.obj
 0002:00001270       ??_C@_05HFIDHIOI@maps?2?$AA@ 10038270     map_location.obj
 0002:000013b8       __real@0000000000000000    100383b8     network_protocol_ext.obj
 0002:000013c0       ??_C@_01GBGANLPD@0?$AA@    100383c0     network_protocol_ext.obj
 0002:000013c4       ??_C@_0P@HOJGPHBA@Content?9Length?$AA@ 100383c4     network_protocol_ext.obj
 0002:000013d8       __real@3f50000000000000    100383d8     network_protocol_ext.obj
 0002:000013e0       __real@3eb0000000000000    100383e0     network_protocol_ext.obj
 0002:000013e8       ??_C@_06EPABMEI@?$CF?$CF?$CF02X?$AA@ 100383e8     network_protocol_ext.obj
 0002:000013f0       ??_C@_0L@NPNLKGOJ@text?1plain?$AA@ 100383f0     network_protocol_ext.obj
 0002:000013fc       ??_C@_06MDEHPNLG@Accept?$AA@ 100383fc     network_protocol_ext.obj
 0002:00001404       ??_C@_0CC@FLKANKNI@application?1x?9www?9form?9urlencode@ 10038404     network_protocol_ext.obj
 0002:00001428       ??_C@_0N@HBJEOFKE@Content?9type?$AA@ 10038428     network_protocol_ext.obj
 0002:00001438       ??_C@_05LBOHBHFK@close?$AA@ 10038438     network_protocol_ext.obj
 0002:00001440       ??_C@_0L@PJJKMLL@Connection?$AA@ 10038440     network_protocol_ext.obj
 0002:0000144c       ??_C@_0O@HDLLGOIB@unblock_error?$AA@ 1003844c     network_protocol_ext.obj
 0002:0000145c       ??_C@_08KMKJOBJG@fuck_off?$AA@ 1003845c     network_protocol_ext.obj
 0002:00001468       ??_C@_09CANFPFML@ip_banned?$AA@ 10038468     network_protocol_ext.obj
 0002:00001474       ??_C@_0O@OOBKCKLH@login_invalid?$AA@ 10038474     network_protocol_ext.obj
 0002:00001484       ??_C@_0BB@OCMFILPG@login_banned_fvr?$AA@ 10038484     network_protocol_ext.obj
 0002:00001498       ??_C@_0N@BPEJFBLL@login_banned?$AA@ 10038498     network_protocol_ext.obj
 0002:000014a8       ??_C@_0BM@PGIMAKHD@start?5patch_setup?4exe?5?1D?$DN?$CFs?$AA@ 100384a8     network_protocol_ext.obj
 0002:000014c4       ??_C@_0BO@MPIBEDFP@action?$DNget_latest?$CGlanguage?$DN?$CFs?$AA@ 100384c4     network_protocol_ext.obj
 0002:000014e4       ??_C@_0BA@BEIGIHGL@patch_setup?4exe?$AA@ 100384e4     network_protocol_ext.obj
 0002:000014f4       ??_C@_02GMLFBBN@wb?$AA@    100384f4     network_protocol_ext.obj
 0002:000014f8       ??_C@_0N@PHDGFFIC@patch_update?$AA@ 100384f8     network_protocol_ext.obj
 0002:00001508       ??_C@_07GHAGJAEE@string?$HM?$AA@ 10038508     network_protocol_ext.obj
 0002:00001510       ??_C@_04HCJEIHPL@POST?$AA@ 10038510     network_protocol_ext.obj
 0002:00001518       ??_C@_0M@LMMJOIKI@?1redhat?4php?$AA@ 10038518     network_protocol_ext.obj
 0002:00001528       ??_C@_0HJ@JMCMDCNB@action?$DNcheck_version?$CGlanguage?$DN?$CFs@ 10038528     network_protocol_ext.obj
 0002:000015a4       ??_C@_0P@NNOKMEKN@api?4allods2?4eu?$AA@ 100385a4     network_protocol_ext.obj
 0002:000015b4       ??_C@_0BA@GLEIDBIN@patch?2patch?4txt?$AA@ 100385b4     resource_files_replace.obj
 0002:000015c4       ??_C@_0BI@JLANLLPG@world?2data?2itemname?4pkt?$AA@ 100385c4     resource_files_replace.obj
 0002:000015dc       ??_C@_0BI@NCLEAKFH@world?2data?2itemname?4bin?$AA@ 100385dc     resource_files_replace.obj
 0002:000015f4       ??_C@_0BD@MPAHKJEF@world?2mission?2scr_?$AA@ 100385f4     resource_files_replace.obj
 0002:00001608       ??_C@_0BD@MCILJEMP@world?2data?2map?4reg?$AA@ 10038608     resource_files_replace.obj
 0002:0000161c       ??_C@_0BC@IJOJGCJJ@world?2data?2ai?4reg?$AA@ 1003861c     resource_files_replace.obj
 0002:00001630       ??_C@_0BE@DMCPAPBE@world?2data?2data?4bin?$AA@ 10038630     resource_files_replace.obj
 0002:00001644       ??_C@_0M@GDJKKOLH@world?2data?2?$AA@ 10038644     resource_files_replace.obj
 0002:00001650       ??_C@_1BG@BIJOLBJP@?$AAi?$AAm?$AAa?$AAg?$AAe?$AA?1?$AAj?$AAp?$AAe?$AAg?$AA?$AA@ 10038650     screenshot.obj
 0002:00001668       ??_C@_1BE@OPHBPEE@?$AAi?$AAm?$AAa?$AAg?$AAe?$AA?1?$AAb?$AAm?$AAp?$AA?$AA@ 10038668     screenshot.obj
 0002:0000167c       ??_C@_1BE@KIPEFLHF@?$AAi?$AAm?$AAa?$AAg?$AAe?$AA?1?$AAg?$AAi?$AAf?$AA?$AA@ 1003867c     screenshot.obj
 0002:00001690       ??_C@_1BE@HLDDDEJK@?$AAi?$AAm?$AAa?$AAg?$AAe?$AA?1?$AAp?$AAn?$AAg?$AA?$AA@ 10038690     screenshot.obj
 0002:000016a4       ??_C@_0N@GMMNBBCM@screenshots?2?$AA@ 100386a4     screenshot.obj
 0002:000016b4       ??_C@_0CJ@MEKLPEEG@screenshot_?$CF02u?9?$CF02u?9?$CF04u_?$CF02u?9?$CF@ 100386b4     screenshot.obj
 0002:000016e0       ??_C@_0L@CMHOPIGK@screenshot?$AA@ 100386e0     screenshot.obj
 0002:000016f0       ??_7?$basic_ostream@DU?$char_traits@D@std@@@std@@6B@ 100386f0     serialize.obj
 0002:000016f8       ??_7?$basic_ofstream@DU?$char_traits@D@std@@@std@@6B@ 100386f8     serialize.obj
 0002:000016fc       ??_8?$basic_ofstream@DU?$char_traits@D@std@@@std@@7B@ 100386fc     serialize.obj
 0002:00001704       ??_C@_02GMHACPFF@?$CFu?$AA@ 10038704     utils.obj
 0002:00001708       ??_C@_02CFKBDFGI@?1?2?$AA@ 10038708     utils.obj
 0002:0000170c       ??_C@_01EANLCPLP@y?$AA@    1003870c     utils.obj
 0002:00001710       ??_C@_01HIHLOKLC@1?$AA@    10038710     utils.obj
 0002:00001714       ??_C@_04LOAJBDKD@true?$AA@ 10038714     utils.obj
 0002:0000171c       ??_C@_03ICICOMAL@yes?$AA@  1003871c     utils.obj
 0002:00001720       ??_C@_0BP@EDOKPPAO@?$FL?$CFd?4?$CF?42d?4?$CF?44d?5?$CFd?3?$CF?42d?3?$CF?42d?$FN?5?$CFs?$AA@ 10038720     utils.obj
 0002:00001740       ??_C@_0M@CPHHDLKE@?9?9res?3?$CFdx?$CFd?$AA@ 10038740     video_init.obj
 0002:0000174c       ??_C@_06ILDPNCNL@?9?9res?3?$AA@ 1003874c     video_init.obj
 0002:00001754       ??_C@_05FKAODCK@?91024?$AA@ 10038754     video_init.obj
 0002:0000175c       ??_C@_04MODOOAHK@?9800?$AA@ 1003875c     video_init.obj
 0002:00001764       ??_C@_04CJOIDPJF@?9640?$AA@ 10038764     video_init.obj
 0002:0000176c       ??_C@_0CE@NLAMLJKD@No?5host?5data?5of?5that?5type?5was?5fo@ 1003876c     happyhttp.obj
 0002:00001790       ??_C@_07CIFAGBMG@unknown?$AA@ 10038790     happyhttp.obj
 0002:00001798       ??_C@_0P@CAFMJNJH@Host?5not?5found?$AA@ 10038798     happyhttp.obj
 0002:000017a8       ??_C@_0BO@ILFFGILJ@Graceful?5shutdown?5in?5progress?$AA@ 100387a8     happyhttp.obj
 0002:000017c8       ??_C@_0BK@IOEFHAOC@WSAStartup?5not?5yet?5called?$AA@ 100387c8     happyhttp.obj
 0002:000017e4       ??_C@_0BN@NCBCBEJJ@Winsock?5version?5out?5of?5range?$AA@ 100387e4     happyhttp.obj
 0002:00001804       ??_C@_0BO@IEFFGCLJ@Network?5system?5is?5unavailable?$AA@ 10038804     happyhttp.obj
 0002:00001824       ??_C@_0CC@DBGGHIAG@Too?5many?5levels?5of?5remote?5in?5pat@ 10038824     happyhttp.obj
 0002:00001848       ??_C@_0BG@KNCBNNDC@Stale?5NFS?5file?5handle?$AA@ 10038848     happyhttp.obj
 0002:00001860       ??_C@_0BE@KMAIMPL@Disc?5quota?5exceeded?$AA@ 10038860     happyhttp.obj
 0002:00001874       ??_C@_0P@DAFGFIDC@Too?5many?5users?$AA@ 10038874     happyhttp.obj
 0002:00001884       ??_C@_0BD@LPHIGPM@Too?5many?5processes?$AA@ 10038884     happyhttp.obj
 0002:00001898       ??_C@_0BE@ICMCHPHH@Directory?5not?5empty?$AA@ 10038898     happyhttp.obj
 0002:000018ac       ??_C@_0BB@PFBILCPA@No?5route?5to?5host?$AA@ 100388ac     happyhttp.obj
 0002:000018c0       ??_C@_0N@OHOPOBEF@Host?5is?5down?$AA@ 100388c0     happyhttp.obj
 0002:000018d0       ??_C@_0BD@CGPKCNP@File?5name?5too?5long?$AA@ 100388d0     happyhttp.obj
 0002:000018e4       ??_C@_0CC@CPDHMANB@Too?5many?5levels?5of?5symbolic?5link@ 100388e4     happyhttp.obj
 0002:00001908       ??_C@_0BD@NPDMPPFP@Connection?5refused?$AA@ 10038908     happyhttp.obj
 0002:0000191c       ??_C@_0BF@IBBHAGLD@Connection?5timed?5out?$AA@ 1003891c     happyhttp.obj
 0002:00001934       ??_C@_0CC@BICDPOAJ@Too?5many?5references?0?5can?8t?5splic@ 10038934     happyhttp.obj
 0002:00001958       ??_C@_0CB@IOOOMFJJ@Can?8t?5send?5after?5socket?5shutdown@ 10038958     happyhttp.obj
 0002:0000197c       ??_C@_0BI@ILAOGBJJ@Socket?5is?5not?5connected?$AA@ 1003897c     happyhttp.obj
 0002:00001994       ??_C@_0BM@CCONNCKE@Socket?5is?5already?5connected?$AA@ 10038994     happyhttp.obj
 0002:000019b0       ??_C@_0BK@OCAHGMEA@No?5buffer?5space?5available?$AA@ 100389b0     happyhttp.obj
 0002:000019cc       ??_C@_0BJ@FJAMCHKE@Connection?5reset?5by?5peer?$AA@ 100389cc     happyhttp.obj
 0002:000019e8       ??_C@_0CB@DJAOADN@Software?5caused?5connection?5abort@ 100389e8     happyhttp.obj
 0002:00001a0c       ??_C@_0BF@ODIGNMHJ@Net?5connection?5reset?$AA@ 10038a0c     happyhttp.obj
 0002:00001a24       ??_C@_0BH@CIEOBPFM@Network?5is?5unreachable?$AA@ 10038a24     happyhttp.obj
 0002:00001a3c       ??_C@_0BA@LPIEBGEK@Network?5is?5down?$AA@ 10038a3c     happyhttp.obj
 0002:00001a4c       ??_C@_0BP@OKMOKAIP@Can?8t?5assign?5requested?5address?$AA@ 10038a4c     happyhttp.obj
 0002:00001a6c       ??_C@_0BH@LOKACPE@Address?5already?5in?5use?$AA@ 10038a6c     happyhttp.obj
 0002:00001a84       ??_C@_0BN@GMEBDOHK@Address?5family?5not?5supported?$AA@ 10038a84     happyhttp.obj
 0002:00001aa4       ??_C@_0BO@EBCCBLCJ@Protocol?5family?5not?5supported?$AA@ 10038aa4     happyhttp.obj
 0002:00001ac4       ??_C@_0CC@GKIJMEBA@Operation?5not?5supported?5on?5socke@ 10038ac4     happyhttp.obj
 0002:00001ae8       ??_C@_0BK@LMAIHBL@Socket?5type?5not?5supported?$AA@ 10038ae8     happyhttp.obj
 0002:00001b04       ??_C@_0BH@JNBKLLAJ@Protocol?5not?5supported?$AA@ 10038b04     happyhttp.obj
 0002:00001b1c       ??_C@_0BE@NEGCDJON@Bad?5protocol?5option?$AA@ 10038b1c     happyhttp.obj
 0002:00001b30       ??_C@_0BP@PDKJLOAE@Protocol?5wrong?5type?5for?5socket?$AA@ 10038b30     happyhttp.obj
 0002:00001b50       ??_C@_0BB@NDAKHOCP@Message?5too?5long?$AA@ 10038b50     happyhttp.obj
 0002:00001b64       ??_C@_0BN@HFCIEIME@Destination?5address?5required?$AA@ 10038b64     happyhttp.obj
 0002:00001b84       ??_C@_0BP@MCCLAMPH@Socket?5operation?5on?5non?9socket?$AA@ 10038b84     happyhttp.obj
 0002:00001ba4       ??_C@_0BO@BMABNIPB@Operation?5already?5in?5progress?$AA@ 10038ba4     happyhttp.obj
 0002:00001bc4       ??_C@_0BK@LBMNDGCG@Operation?5now?5in?5progress?$AA@ 10038bc4     happyhttp.obj
 0002:00001be0       ??_C@_0BG@GMFMDOIH@Operation?5would?5block?$AA@ 10038be0     happyhttp.obj
 0002:00001bf8       ??_C@_0BG@HDGDIOKN@Too?5many?5open?5sockets?$AA@ 10038bf8     happyhttp.obj
 0002:00001c10       ??_C@_0BB@HMGGCEBG@Invalid?5argument?$AA@ 10038c10     happyhttp.obj
 0002:00001c24       ??_C@_0M@LOEHLCJD@Bad?5address?$AA@ 10038c24     happyhttp.obj
 0002:00001c30       ??_C@_0BC@HFNFNKAI@Permission?5denied?$AA@ 10038c30     happyhttp.obj
 0002:00001c44       ??_C@_0BA@IMABKEOI@Bad?5file?5number?$AA@ 10038c44     happyhttp.obj
 0002:00001c54       ??_C@_0BI@EAGLFFDI@Interrupted?5system?5call?$AA@ 10038c54     happyhttp.obj
 0002:00001c6c       ??_C@_08INEPGKHH@No?5error?$AA@ 10038c6c     happyhttp.obj
 0002:00001c78       ??_C@_06DJHOIPC@?$CFs?3?5?$CFs?$AA@ 10038c78     happyhttp.obj
 0002:00001c80       ??_C@_06LGNCCACI@select?$AA@ 10038c80     happyhttp.obj
 0002:00001c88       ??_C@_0BP@HGOHPAK@Connection?5closed?5unexpectedly?$AA@ 10038c88     happyhttp.obj
 0002:00001ca8       ??_C@_09KLHJMPLC@connect?$CI?$CJ?$AA@ 10038ca8     happyhttp.obj
 0002:00001cb4       ??_C@_0BI@LFNHBFK@Invalid?5network?5address?$AA@ 10038cb4     happyhttp.obj
 0002:00001ccc       ??_C@_08MGOJEIPC@socket?$CI?$CJ?$AA@ 10038ccc     happyhttp.obj
 0002:00001cd8       ??_C@_06HHEFFBF@send?$CI?$CJ?$AA@ 10038cd8     happyhttp.obj
 0002:00001ce0       ??_C@_0BD@NCJBNNDM@BadStatusLine?5?$CI?$CFs?$CJ?$AA@ 10038ce0     happyhttp.obj
 0002:00001cf4       ??_C@_0BF@CHEICBID@UnknownProtocol?5?$CI?$CFs?$CJ?$AA@ 10038cf4     happyhttp.obj
 0002:00001d0c       ??_C@_07MOMMIIKD@HTTP?11?4?$AA@ 10038d0c     happyhttp.obj
 0002:00001d14       ??_C@_09PGNIKOP@HTTP?3?11?40?$AA@ 10038d14     happyhttp.obj
 0002:00001d20       ??_C@_0BC@KBDMBKEH@deque?$DMT?$DO?5too?5long?$AA@ 10038d20     happyhttp.obj
 0002:00001d34       ??_C@_0L@FFDPOIEG@keep?9alive?$AA@ 10038d34     happyhttp.obj
 0002:00001d40       ??_C@_0L@IJAFCDGM@connection?$AA@ 10038d40     happyhttp.obj
 0002:00001d4c       ??_C@_04BINJNOJD@HEAD?$AA@ 10038d4c     happyhttp.obj
 0002:00001d54       ??_C@_0P@DJOOPABC@content?9length?$AA@ 10038d54     happyhttp.obj
 0002:00001d64       ??_C@_07KCKHAHHI@chunked?$AA@ 10038d64     happyhttp.obj
 0002:00001d6c       ??_C@_0BC@JEMMGIEE@transfer?9encoding?$AA@ 10038d6c     happyhttp.obj
 0002:00001d80       ??_C@_02LMMGGCAJ@?3?5?$AA@ 10038d80     happyhttp.obj
 0002:00001d84       ??_C@_0BD@JPOEAGON@putheader?$CI?$CJ?5failed?$AA@ 10038d84     happyhttp.obj
 0002:00001d98       ??_C@_02DPKJAMEF@?$CFd?$AA@ 10038d98     happyhttp.obj
 0002:00001d9c       ??_C@_02PCIJFNDE@?$AN?6?$AA@ 10038d9c     happyhttp.obj
 0002:00001da0       ??_C@_0BD@FINKFIPP@Cannot?5send?5header?$AA@ 10038da0     happyhttp.obj
 0002:00001db4       ??_C@_0BA@KDJCHKHJ@Accept?9Encoding?$AA@ 10038db4     happyhttp.obj
 0002:00001dc4       ??_C@_08LBJOIDDC@identity?$AA@ 10038dc4     happyhttp.obj
 0002:00001dd0       ??_C@_04CPPPJGME@Host?$AA@ 10038dd0     happyhttp.obj
 0002:00001dd8       ??_C@_0P@IOKLOIJF@?$CFs?5?$CFs?5HTTP?11?41?$AA@ 10038dd8     happyhttp.obj
 0002:00001de8       ??_C@_0BH@KNAPNMIJ@Request?5already?5issued?$AA@ 10038de8     happyhttp.obj
 0002:00001e00       ??_C@_06KDIDAFAE@recv?$CI?$CJ?$AA@ 10038e00     happyhttp.obj
 0002:00001e08       ?key_08@@3QBEB             10038e08     packet.obj
 0002:00001e58       ?key_10@@3QBEB             10038e58     packet.obj
 0002:00001ea8       ?key_11@@3QBEB             10038ea8     packet.obj
 0002:00001ef8       ?key_15@@3QBEB             10038ef8     packet.obj
 0002:00001f48       ?key_20@@3QBEB             10038f48     packet.obj
 0002:00001fd8       ??_C@_0BA@JFNIOLAK@string?5too?5long?$AA@ 10038fd8     libcpmt:string.obj
 0002:00001fe8       ??_C@_0BI@CFPLBAOH@invalid?5string?5position?$AA@ 10038fe8     libcpmt:string.obj
 0002:00002004       ??_7_Locimp@locale@std@@6B@ 10039004     libcpmt:locale0.obj
 0002:00002008       ??_C@_01NBENCBCI@?$CK?$AA@ 10039008     libcpmt:locale0.obj
 0002:0000200c       ?_BADOFF@std@@3JB          1003900c     libcpmt:ios.obj
 0002:00002010       ??_C@_13BPINEIPE@?$AAr?$AA?$AA@ 10039010     libcpmt:fiopen.obj
 0002:00002050       ??_C@_13CIFDLIMG@?$AAw?$AA?$AA@ 10039050     libcpmt:fiopen.obj
 0002:00002054       ??_C@_13FNCBLAIF@?$AAa?$AA?$AA@ 10039054     libcpmt:fiopen.obj
 0002:00002058       ??_C@_15JJPIMNBO@?$AAr?$AAb?$AA?$AA@ 10039058     libcpmt:fiopen.obj
 0002:00002060       ??_C@_15MJDFFMKN@?$AAw?$AAb?$AA?$AA@ 10039060     libcpmt:fiopen.obj
 0002:00002068       ??_C@_15BMLKLNCL@?$AAa?$AAb?$AA?$AA@ 10039068     libcpmt:fiopen.obj
 0002:00002070       ??_C@_15HPOENKKJ@?$AAr?$AA?$CL?$AA?$AA@ 10039070     libcpmt:fiopen.obj
 0002:00002078       ??_C@_15CPCJELBK@?$AAw?$AA?$CL?$AA?$AA@ 10039078     libcpmt:fiopen.obj
 0002:00002080       ??_C@_15PKKGKKJM@?$AAa?$AA?$CL?$AA?$AA@ 10039080     libcpmt:fiopen.obj
 0002:00002088       ??_C@_17IIOMHMAG@?$AAr?$AA?$CL?$AAb?$AA?$AA@ 10039088     libcpmt:fiopen.obj
 0002:00002090       ??_C@_17MAAMHCGC@?$AAw?$AA?$CL?$AAb?$AA?$AA@ 10039090     libcpmt:fiopen.obj
 0002:00002098       ??_C@_17HKNIEKMO@?$AAa?$AA?$CL?$AAb?$AA?$AA@ 10039098     libcpmt:fiopen.obj
 0002:000020a4       ??_7exception@std@@6B@     100390a4     LIBCMT:stdexcpt.obj
 0002:000020ac       ??_C@_0BC@EOODALEL@Unknown?5exception?$AA@ 100390ac     LIBCMT:stdexcpt.obj
 0002:000020c4       ??_7bad_cast@std@@6B@      100390c4     LIBCMT:stdexcpt.obj
 0002:000020d0       ??_7type_info@@6B@         100390d0     LIBCMT:typinfo.obj
 0002:000020f4       __FPinit                   100390f4     LIBCMT:fpinit.obj
 0002:000020f8       __FPmtinit                 100390f8     LIBCMT:fpinit.obj
 0002:000020fc       __FPmtterm                 100390fc     LIBCMT:fpinit.obj
 0002:00002100       ??_C@_07INNMNHPJ@cmd?4exe?$AA@ 10039100     LIBCMT:system.obj
 0002:00002108       ??_C@_0M@BOIIGAL@command?4com?$AA@ 10039108     LIBCMT:system.obj
 0002:00002114       ??_C@_02HNHPBPFE@?1c?$AA@  10039114     LIBCMT:system.obj
 0002:00002118       ??_C@_07CFPBBAOO@COMSPEC?$AA@ 10039118     LIBCMT:system.obj
 0002:00002120       __pRawDllMain              10039120     LIBCMT:dllcrt0.obj
 0002:00002120       __pDefaultRawDllMain       10039120     LIBCMT:dllcrt0.obj
 0002:00002124       ??_C@_13NOLLCAOD@?$AA?$AA?$AA?$AA@ 10039124     LIBCMT:a_map.obj
 0002:00002128       ___newctype                10039128     LIBCMT:ctype.obj
 0002:00002428       __wctype                   10039428     LIBCMT:ctype.obj
 0002:00002630       ___newclmap                10039630     LIBCMT:ctype.obj
 0002:000027b0       ___newcumap                100397b0     LIBCMT:ctype.obj
 0002:00002930       ??_C@_07LCBHPJJN@LC_TIME?$AA@ 10039930     LIBCMT:setlocal.obj
 0002:00002938       ??_C@_0L@DLHIECNL@LC_NUMERIC?$AA@ 10039938     LIBCMT:setlocal.obj
 0002:00002944       ??_C@_0M@MIENIKLA@LC_MONETARY?$AA@ 10039944     LIBCMT:setlocal.obj
 0002:00002950       ??_C@_08EADHIDAD@LC_CTYPE?$AA@ 10039950     LIBCMT:setlocal.obj
 0002:0000295c       ??_C@_0L@KFJHEKIK@LC_COLLATE?$AA@ 1003995c     LIBCMT:setlocal.obj
 0002:00002968       ??_C@_06NEFDFEKB@LC_ALL?$AA@ 10039968     LIBCMT:setlocal.obj
 0002:00002970       ___lc_category             10039970     LIBCMT:setlocal.obj
 0002:00002a38       ??_C@_03EGDHDPFD@_?4?0?$AA@ 10039a38     LIBCMT:setlocal.obj
 0002:00002a3c       ??_C@_01IDAFKMJL@_?$AA@    10039a3c     LIBCMT:setlocal.obj
 0002:00002a40       ??_C@_01ICJEACDI@?$DL?$AA@ 10039a40     LIBCMT:setlocal.obj
 0002:00002a44       ??_C@_02BALPLPBG@?$DN?$DL?$AA@ 10039a44     LIBCMT:setlocal.obj
 0002:00002a48       ??_C@_0P@MIGLKIOC@CorExitProcess?$AA@ 10039a48     LIBCMT:crt0dat.obj
 0002:00002a58       ??_C@_0M@MBOPBNBK@mscoree?4dll?$AA@ 10039a58     LIBCMT:crt0dat.obj
 0002:00002a64       __pDestructExceptionObject 10039a64     LIBCMT:frame.obj
 0002:00002a6c       ??_7bad_exception@std@@6B@ 10039a6c     LIBCMT:frame.obj
 0002:00002a74       ??_C@_0O@DPKOEFFH@bad?5exception?$AA@ 10039a74     LIBCMT:frame.obj
 0002:00002a84       ??_C@_02CLFPBFFP@TZ?$AA@   10039a84     LIBCMT:tzset.obj
 0002:00002a88       ___dnames                  10039a88     LIBCMT:timeset.obj
 0002:00002aa0       ___mnames                  10039aa0     LIBCMT:timeset.obj
 0002:00002ac8       ??_C@_0O@NLDKAIKN@EncodePointer?$AA@ 10039ac8     LIBCMT:tidtable.obj
 0002:00002ad8       ??_C@_0N@NHGLKGEC@KERNEL32?4DLL?$AA@ 10039ad8     LIBCMT:tidtable.obj
 0002:00002ae8       ??_C@_0O@KBPMFGHI@DecodePointer?$AA@ 10039ae8     LIBCMT:tidtable.obj
 0002:00002af8       ??_C@_07PEJMOBNF@FlsFree?$AA@ 10039af8     LIBCMT:tidtable.obj
 0002:00002b00       ??_C@_0M@JCPCPOEF@FlsSetValue?$AA@ 10039b00     LIBCMT:tidtable.obj
 0002:00002b0c       ??_C@_0M@GDNOONDI@FlsGetValue?$AA@ 10039b0c     LIBCMT:tidtable.obj
 0002:00002b18       ??_C@_08KNHFBNJ@FlsAlloc?$AA@ 10039b18     LIBCMT:tidtable.obj
 0002:00002b2c       ??_C@_1O@CEDCILHN@?$AA?$CI?$AAn?$AAu?$AAl?$AAl?$AA?$CJ?$AA?$AA@ 10039b2c     LIBCMT:output.obj
 0002:00002b3c       ??_C@_06OJHGLDPL@?$CInull?$CJ?$AA@ 10039b3c     LIBCMT:output.obj
 0002:00002b48       ___lookuptable             10039b48     LIBCMT:output.obj
 0002:00002ba4       ??_C@_05KLBDPFGC@e?$CL000?$AA@ 10039ba4     LIBCMT:cvt.obj
 0002:00002bb0       __real@4150017ec0000000    10039bb0     LIBCMT:testfdiv.obj
 0002:00002bb8       __real@4147ffff80000000    10039bb8     LIBCMT:testfdiv.obj
 0002:00002bc0       ??_C@_0BK@NHEOCAHP@IsProcessorFeaturePresent?$AA@ 10039bc0     LIBCMT:testfdiv.obj
 0002:00002bdc       ??_C@_08CPNIBGIE@KERNEL32?$AA@ 10039bdc     LIBCMT:testfdiv.obj
 0002:00002be8       ??_C@_04HBHDLLBA@PATH?$AA@ 10039be8     LIBCMT:spawnvpe.obj
 0002:00002bf0       ??_C@_04PNGHFIJN@?4com?$AA@ 10039bf0     LIBCMT:spawnve.obj
 0002:00002bf8       ??_C@_04JLMDILM@?4exe?$AA@ 10039bf8     LIBCMT:spawnve.obj
 0002:00002c00       ??_C@_04NEEFLLOK@?4bat?$AA@ 10039c00     LIBCMT:spawnve.obj
 0002:00002c08       ??_C@_04CPCBDHLK@?4cmd?$AA@ 10039c08     LIBCMT:spawnve.obj
 0002:00002c10       ??_C@_02CEGDFPFP@?4?2?$AA@ 10039c10     LIBCMT:spawnve.obj
 0002:00002c38       ??_C@_0P@GGKDKEEG@runtime?5error?5?$AA@ 10039c38     LIBCMT:crt0msg.obj
 0002:00002c48       ??_C@_0O@MJNIPGOH@TLOSS?5error?$AN?6?$AA@ 10039c48     LIBCMT:crt0msg.obj
 0002:00002c58       ??_C@_0N@BONNPDHF@SING?5error?$AN?6?$AA@ 10039c58     LIBCMT:crt0msg.obj
 0002:00002c68       ??_C@_0P@MBDAJNE@DOMAIN?5error?$AN?6?$AA@ 10039c68     LIBCMT:crt0msg.obj
 0002:00002c78       ??_C@_0JL@DFDOOABL@R6034?$AN?6An?5application?5has?5made?5a@ 10039c78     LIBCMT:crt0msg.obj
 0002:00002d18       ??_C@_0PH@EPAFIJ@R6033?$AN?6?9?5Attempt?5to?5use?5MSIL?5cod@ 10039d18     LIBCMT:crt0msg.obj
 0002:00002e10       ??_C@_0DD@BKEEABMM@R6032?$AN?6?9?5not?5enough?5space?5for?5lo@ 10039e10     LIBCMT:crt0msg.obj
 0002:00002e48       ??_C@_0GD@OFKILIED@R6031?$AN?6?9?5Attempt?5to?5initialize?5t@ 10039e48     LIBCMT:crt0msg.obj
 0002:00002eac       ??_C@_0BP@LPMHJOKI@R6030?$AN?6?9?5CRT?5not?5initialized?$AN?6?$AA@ 10039eac     LIBCMT:crt0msg.obj
 0002:00002ecc       ??_C@_0CF@KJDAIALP@R6028?$AN?6?9?5unable?5to?5initialize?5he@ 10039ecc     LIBCMT:crt0msg.obj
 0002:00002ef4       ??_C@_0DF@GAKBPDFP@R6027?$AN?6?9?5not?5enough?5space?5for?5lo@ 10039ef4     LIBCMT:crt0msg.obj
 0002:00002f2c       ??_C@_0DF@IBLNNAIG@R6026?$AN?6?9?5not?5enough?5space?5for?5st@ 10039f2c     LIBCMT:crt0msg.obj
 0002:00002f64       ??_C@_0CG@IOHKGFNJ@R6025?$AN?6?9?5pure?5virtual?5function?5c@ 10039f64     LIBCMT:crt0msg.obj
 0002:00002f8c       ??_C@_0DF@JIJJFJDC@R6024?$AN?6?9?5not?5enough?5space?5for?5_o@ 10039f8c     LIBCMT:crt0msg.obj
 0002:00002fc4       ??_C@_0CJ@EGEJHFME@R6019?$AN?6?9?5unable?5to?5open?5console?5@ 10039fc4     LIBCMT:crt0msg.obj
 0002:00002ff0       ??_C@_0CB@GNHNIELH@R6018?$AN?6?9?5unexpected?5heap?5error?$AN?6@ 10039ff0     LIBCMT:crt0msg.obj
 0002:00003014       ??_C@_0CN@FOLDKNG@R6017?$AN?6?9?5unexpected?5multithread?5@ 1003a014     LIBCMT:crt0msg.obj
 0002:00003044       ??_C@_0CM@FAHFJNHO@R6016?$AN?6?9?5not?5enough?5space?5for?5th@ 1003a044     LIBCMT:crt0msg.obj
 0002:00003070       ??_C@_0JG@LBKMGKLD@?$AN?6This?5application?5has?5requested@ 1003a070     LIBCMT:crt0msg.obj
 0002:00003108       ??_C@_0CM@FLCNIPKK@R6009?$AN?6?9?5not?5enough?5space?5for?5en@ 1003a108     LIBCMT:crt0msg.obj
 0002:00003134       ??_C@_0CK@KMMJOAPP@R6008?$AN?6?9?5not?5enough?5space?5for?5ar@ 1003a134     LIBCMT:crt0msg.obj
 0002:00003160       ??_C@_0CF@HOHMHDEK@R6002?$AN?6?9?5floating?5point?5not?5load@ 1003a160     LIBCMT:crt0msg.obj
 0002:00003188       ??_C@_0CF@GOGNBNAK@Microsoft?5Visual?5C?$CL?$CL?5Runtime?5Lib@ 1003a188     LIBCMT:crt0msg.obj
 0002:000031b0       ??_C@_02PHMGELLB@?6?6?$AA@ 1003a1b0     LIBCMT:crt0msg.obj
 0002:000031b4       ??_C@_03KHICJKCI@?4?4?4?$AA@ 1003a1b4     LIBCMT:crt0msg.obj
 0002:000031b8       ??_C@_0BH@DNAGHKFM@?$DMprogram?5name?5unknown?$DO?$AA@ 1003a1b8     LIBCMT:crt0msg.obj
 0002:000031d0       ??_C@_0BK@OFGJDLJJ@Runtime?5Error?$CB?6?6Program?3?5?$AA@ 1003a1d0     LIBCMT:crt0msg.obj
 0002:000031f8       __DEFAULT_CW_in_mem        1003a1f8     LIBCMT:common.obj
 0002:000031fa       __pi_by_2_to_61            1003a1fa     LIBCMT:common.obj
 0002:00003234       ??_C@_08JCCMCCIL@HH?3mm?3ss?$AA@ 1003a234     LIBCMT:strftime.obj
 0002:00003240       ??_C@_0BE@CKGJFCPC@dddd?0?5MMMM?5dd?0?5yyyy?$AA@ 1003a240     LIBCMT:strftime.obj
 0002:00003254       ??_C@_08BPBNCDIB@MM?1dd?1yy?$AA@ 1003a254     LIBCMT:strftime.obj
 0002:00003260       ??_C@_02CJNFDJBF@PM?$AA@   1003a260     LIBCMT:strftime.obj
 0002:00003264       ??_C@_02DEDBPAFC@AM?$AA@   1003a264     LIBCMT:strftime.obj
 0002:00003268       ??_C@_08EDHMEBNP@December?$AA@ 1003a268     LIBCMT:strftime.obj
 0002:00003274       ??_C@_08HCHEGEOA@November?$AA@ 1003a274     LIBCMT:strftime.obj
 0002:00003280       ??_C@_07JJNFCEND@October?$AA@ 1003a280     LIBCMT:strftime.obj
 0002:00003288       ??_C@_09BHHEALKD@September?$AA@ 1003a288     LIBCMT:strftime.obj
 0002:00003294       ??_C@_06LBBHFDDG@August?$AA@ 1003a294     LIBCMT:strftime.obj
 0002:0000329c       ??_C@_04MIEPOIFP@July?$AA@ 1003a29c     LIBCMT:strftime.obj
 0002:000032a4       ??_C@_04CNLMGBGM@June?$AA@ 1003a2a4     LIBCMT:strftime.obj
 0002:000032ac       ??_C@_05DMJDNLEJ@April?$AA@ 1003a2ac     LIBCMT:strftime.obj
 0002:000032b4       ??_C@_05HPCKOFNC@March?$AA@ 1003a2b4     LIBCMT:strftime.obj
 0002:000032bc       ??_C@_08GNJGEPFN@February?$AA@ 1003a2bc     LIBCMT:strftime.obj
 0002:000032c8       ??_C@_07CGJPFGJA@January?$AA@ 1003a2c8     LIBCMT:strftime.obj
 0002:000032d0       ??_C@_03MKABNOCG@Dec?$AA@  1003a2d0     LIBCMT:strftime.obj
 0002:000032d4       ??_C@_03JPJOFNIA@Nov?$AA@  1003a2d4     LIBCMT:strftime.obj
 0002:000032d8       ??_C@_03BMAOKBAD@Oct?$AA@  1003a2d8     LIBCMT:strftime.obj
 0002:000032dc       ??_C@_03GGCAPAJC@Sep?$AA@  1003a2dc     LIBCMT:strftime.obj
 0002:000032e0       ??_C@_03IFJFEIGA@Aug?$AA@  1003a2e0     LIBCMT:strftime.obj
 0002:000032e4       ??_C@_03LBGABGKK@Jul?$AA@  1003a2e4     LIBCMT:strftime.obj
 0002:000032e8       ??_C@_03IDFGHECI@Jun?$AA@  1003a2e8     LIBCMT:strftime.obj
 0002:000032ec       ??_C@_03CNMDKL@May?$AA@    1003a2ec     LIBCMT:strftime.obj
 0002:000032f0       ??_C@_03LEOLGMJP@Apr?$AA@  1003a2f0     LIBCMT:strftime.obj
 0002:000032f4       ??_C@_03ODNJBKGA@Mar?$AA@  1003a2f4     LIBCMT:strftime.obj
 0002:000032f8       ??_C@_03HJBDCHOM@Feb?$AA@  1003a2f8     LIBCMT:strftime.obj
 0002:000032fc       ??_C@_03JIHJHPIE@Jan?$AA@  1003a2fc     LIBCMT:strftime.obj
 0002:00003300       ??_C@_08INBOOONO@Saturday?$AA@ 1003a300     LIBCMT:strftime.obj
 0002:0000330c       ??_C@_06JECMNKMI@Friday?$AA@ 1003a30c     LIBCMT:strftime.obj
 0002:00003314       ??_C@_08HACCIKIA@Thursday?$AA@ 1003a314     LIBCMT:strftime.obj
 0002:00003320       ??_C@_09DLIGFAKA@Wednesday?$AA@ 1003a320     LIBCMT:strftime.obj
 0002:0000332c       ??_C@_07BAAGCFCM@Tuesday?$AA@ 1003a32c     LIBCMT:strftime.obj
 0002:00003334       ??_C@_06JLEDEDGH@Monday?$AA@ 1003a334     LIBCMT:strftime.obj
 0002:0000333c       ??_C@_06OOPIFAJ@Sunday?$AA@ 1003a33c     LIBCMT:strftime.obj
 0002:00003344       ??_C@_03FEFJNEK@Sat?$AA@   1003a344     LIBCMT:strftime.obj
 0002:00003348       ??_C@_03IDIOELNC@Fri?$AA@  1003a348     LIBCMT:strftime.obj
 0002:0000334c       ??_C@_03IOFIKPDN@Thu?$AA@  1003a34c     LIBCMT:strftime.obj
 0002:00003350       ??_C@_03MHOMLAJA@Wed?$AA@  1003a350     LIBCMT:strftime.obj
 0002:00003354       ??_C@_03NAGEINEP@Tue?$AA@  1003a354     LIBCMT:strftime.obj
 0002:00003358       ??_C@_03PDAGKDH@Mon?$AA@   1003a358     LIBCMT:strftime.obj
 0002:0000335c       ??_C@_03KOEHGMDN@Sun?$AA@  1003a35c     LIBCMT:strftime.obj
 0002:00003360       ??_C@_0O@FMJNFNKE@united?9states?$AA@ 1003a360     LIBCMT:getqloc.obj
 0002:00003370       ??_C@_0P@NDHFFKCA@united?9kingdom?$AA@ 1003a370     LIBCMT:getqloc.obj
 0002:00003380       ??_C@_0BC@HHDADLGF@trinidad?5?$CG?5tobago?$AA@ 1003a380     LIBCMT:getqloc.obj
 0002:00003394       ??_C@_0M@IOAEBDAC@south?9korea?$AA@ 1003a394     LIBCMT:getqloc.obj
 0002:000033a0       ??_C@_0N@FIELFKIJ@south?9africa?$AA@ 1003a3a0     LIBCMT:getqloc.obj
 0002:000033b0       ??_C@_0M@OPNDHCMC@south?5korea?$AA@ 1003a3b0     LIBCMT:getqloc.obj
 0002:000033bc       ??_C@_0N@MDEOEPFI@south?5africa?$AA@ 1003a3bc     LIBCMT:getqloc.obj
 0002:000033cc       ??_C@_06FKAPCJLB@slovak?$AA@ 1003a3cc     LIBCMT:getqloc.obj
 0002:000033d4       ??_C@_0M@EFJANOAL@puerto?9rico?$AA@ 1003a3d4     LIBCMT:getqloc.obj
 0002:000033e0       ??_C@_08PGOJKDAI@pr?9china?$AA@ 1003a3e0     LIBCMT:getqloc.obj
 0002:000033ec       ??_C@_08JHDOMCMI@pr?5china?$AA@ 1003a3ec     LIBCMT:getqloc.obj
 0002:000033f8       ??_C@_02JHCHFBLL@nz?$AA@   1003a3f8     LIBCMT:getqloc.obj
 0002:000033fc       ??_C@_0M@LINHDHKP@new?9zealand?$AA@ 1003a3fc     LIBCMT:getqloc.obj
 0002:00003408       ??_C@_09IIIPPBDB@hong?9kong?$AA@ 1003a408     LIBCMT:getqloc.obj
 0002:00003414       ??_C@_07HJLCKBG@holland?$AA@ 1003a414     LIBCMT:getqloc.obj
 0002:0000341c       ??_C@_0O@LEHGMHAG@great?5britain?$AA@ 1003a41c     LIBCMT:getqloc.obj
 0002:0000342c       ??_C@_07FACOMELA@england?$AA@ 1003a42c     LIBCMT:getqloc.obj
 0002:00003434       ??_C@_05JIHCEICB@czech?$AA@ 1003a434     LIBCMT:getqloc.obj
 0002:0000343c       ??_C@_05BBJOBLGB@china?$AA@ 1003a43c     LIBCMT:getqloc.obj
 0002:00003444       ??_C@_07GPKPHICP@britain?$AA@ 1003a444     LIBCMT:getqloc.obj
 0002:0000344c       ??_C@_07MHIPBHMG@america?$AA@ 1003a44c     LIBCMT:getqloc.obj
 0002:00003454       ??_C@_03KIALPMKC@usa?$AA@  1003a454     LIBCMT:getqloc.obj
 0002:00003458       ??_C@_02FGJGKGGD@us?$AA@   1003a458     LIBCMT:getqloc.obj
 0002:0000345c       ??_C@_02NEINDODK@uk?$AA@   1003a45c     LIBCMT:getqloc.obj
 0002:00003460       ??_C@_05JMPCFJFJ@swiss?$AA@ 1003a460     LIBCMT:getqloc.obj
 0002:00003468       ??_C@_0BA@HLOCPIOD@swedish?9finland?$AA@ 1003a468     LIBCMT:getqloc.obj
 0002:00003478       ??_C@_0BC@PKCNIABK@spanish?9venezuela?$AA@ 1003a478     LIBCMT:getqloc.obj
 0002:0000348c       ??_C@_0BA@GBHHMIJI@spanish?9uruguay?$AA@ 1003a48c     LIBCMT:getqloc.obj
 0002:0000349c       ??_C@_0BE@BHDOHPMC@spanish?9puerto?5rico?$AA@ 1003a49c     LIBCMT:getqloc.obj
 0002:000034b0       ??_C@_0N@KMOIDGGN@spanish?9peru?$AA@ 1003a4b0     LIBCMT:getqloc.obj
 0002:000034c0       ??_C@_0BB@HMHLPGPH@spanish?9paraguay?$AA@ 1003a4c0     LIBCMT:getqloc.obj
 0002:000034d4       ??_C@_0P@MCPKNGFD@spanish?9panama?$AA@ 1003a4d4     LIBCMT:getqloc.obj
 0002:000034e4       ??_C@_0BC@IHOHGAIL@spanish?9nicaragua?$AA@ 1003a4e4     LIBCMT:getqloc.obj
 0002:000034f8       ??_C@_0P@KLMJDNFJ@spanish?9modern?$AA@ 1003a4f8     LIBCMT:getqloc.obj
 0002:00003508       ??_C@_0BA@BPAPGBCM@spanish?9mexican?$AA@ 1003a508     LIBCMT:getqloc.obj
 0002:00003518       ??_C@_0BB@PDECHHHE@spanish?9honduras?$AA@ 1003a518     LIBCMT:getqloc.obj
 0002:0000352c       ??_C@_0BC@KLHKFGDB@spanish?9guatemala?$AA@ 1003a52c     LIBCMT:getqloc.obj
 0002:00003540       ??_C@_0BE@MFOOKJAI@spanish?9el?5salvador?$AA@ 1003a540     LIBCMT:getqloc.obj
 0002:00003554       ??_C@_0BA@FCOKFPFC@spanish?9ecuador?$AA@ 1003a554     LIBCMT:getqloc.obj
 0002:00003564       ??_C@_0BL@PLMGIMOO@spanish?9dominican?5republic?$AA@ 1003a564     LIBCMT:getqloc.obj
 0002:00003580       ??_C@_0BD@HLGDNMHB@spanish?9costa?5rica?$AA@ 1003a580     LIBCMT:getqloc.obj
 0002:00003594       ??_C@_0BB@PKCBKCPE@spanish?9colombia?$AA@ 1003a594     LIBCMT:getqloc.obj
 0002:000035a8       ??_C@_0O@MCBIJGNE@spanish?9chile?$AA@ 1003a5a8     LIBCMT:getqloc.obj
 0002:000035b8       ??_C@_0BA@BEFEIGJJ@spanish?9bolivia?$AA@ 1003a5b8     LIBCMT:getqloc.obj
 0002:000035c8       ??_C@_0BC@EMECMPD@spanish?9argentina?$AA@ 1003a5c8     LIBCMT:getqloc.obj
 0002:000035dc       ??_C@_0BF@EALFLENP@portuguese?9brazilian?$AA@ 1003a5dc     LIBCMT:getqloc.obj
 0002:000035f4       ??_C@_0BC@HBLEBLNN@norwegian?9nynorsk?$AA@ 1003a5f4     LIBCMT:getqloc.obj
 0002:00003608       ??_C@_0BB@HMACDDCK@norwegian?9bokmal?$AA@ 1003a608     LIBCMT:getqloc.obj
 0002:0000361c       ??_C@_09BAFFPPHE@norwegian?$AA@ 1003a61c     LIBCMT:getqloc.obj
 0002:00003628       ??_C@_0O@EAJFJDFG@italian?9swiss?$AA@ 1003a628     LIBCMT:getqloc.obj
 0002:00003638       ??_C@_0O@CNOMPGD@irish?9english?$AA@ 1003a638     LIBCMT:getqloc.obj
 0002:00003648       ??_C@_0N@EDHBGCKG@german?9swiss?$AA@ 1003a648     LIBCMT:getqloc.obj
 0002:00003658       ??_C@_0BC@JACMHNBP@german?9luxembourg?$AA@ 1003a658     LIBCMT:getqloc.obj
 0002:0000366c       ??_C@_0BE@HBGMGFEG@german?9lichtenstein?$AA@ 1003a66c     LIBCMT:getqloc.obj
 0002:00003680       ??_C@_0BA@HKKBIBKL@german?9austrian?$AA@ 1003a680     LIBCMT:getqloc.obj
 0002:00003690       ??_C@_0N@GCAEPEBK@french?9swiss?$AA@ 1003a690     LIBCMT:getqloc.obj
 0002:000036a0       ??_C@_0BC@DJFJJCK@french?9luxembourg?$AA@ 1003a6a0     LIBCMT:getqloc.obj
 0002:000036b4       ??_C@_0BA@NNCEDFIC@french?9canadian?$AA@ 1003a6b4     LIBCMT:getqloc.obj
 0002:000036c4       ??_C@_0P@CMPOCLM@french?9belgian?$AA@ 1003a6c4     LIBCMT:getqloc.obj
 0002:000036d4       ??_C@_0M@GHHDJOK@english?9usa?$AA@ 1003a6d4     LIBCMT:getqloc.obj
 0002:000036e0       ??_C@_0L@PLDJKEIL@english?9us?$AA@ 1003a6e0     LIBCMT:getqloc.obj
 0002:000036ec       ??_C@_0L@HJCCDMNC@english?9uk?$AA@ 1003a6ec     LIBCMT:getqloc.obj
 0002:000036f8       ??_C@_0BK@CKLIAGJB@english?9trinidad?5y?5tobago?$AA@ 1003a6f8     LIBCMT:getqloc.obj
 0002:00003714       ??_C@_0BF@JMJMGNNF@english?9south?5africa?$AA@ 1003a714     LIBCMT:getqloc.obj
 0002:0000372c       ??_C@_0L@DKIIFDFD@english?9nz?$AA@ 1003a72c     LIBCMT:getqloc.obj
 0002:00003738       ??_C@_0BA@ONHGJCLH@english?9jamaica?$AA@ 1003a738     LIBCMT:getqloc.obj
 0002:00003748       ??_C@_0M@HJBGHOPO@english?9ire?$AA@ 1003a748     LIBCMT:getqloc.obj
 0002:00003754       ??_C@_0BC@LFEKMIFB@english?9caribbean?$AA@ 1003a754     LIBCMT:getqloc.obj
 0002:00003768       ??_C@_0M@OLDPFKHI@english?9can?$AA@ 1003a768     LIBCMT:getqloc.obj
 0002:00003774       ??_C@_0P@OMDEHBMP@english?9belize?$AA@ 1003a774     LIBCMT:getqloc.obj
 0002:00003784       ??_C@_0M@KFHFPFED@english?9aus?$AA@ 1003a784     LIBCMT:getqloc.obj
 0002:00003790       ??_C@_0BB@MNMBKDFE@english?9american?$AA@ 1003a790     LIBCMT:getqloc.obj
 0002:000037a4       ??_C@_0O@KIDLNNBA@dutch?9belgian?$AA@ 1003a7a4     LIBCMT:getqloc.obj
 0002:000037b4       ??_C@_0BE@JBKABBMH@chinese?9traditional?$AA@ 1003a7b4     LIBCMT:getqloc.obj
 0002:000037c8       ??_C@_0BC@MJJMPKCG@chinese?9singapore?$AA@ 1003a7c8     LIBCMT:getqloc.obj
 0002:000037dc       ??_C@_0BD@FDKADDCP@chinese?9simplified?$AA@ 1003a7dc     LIBCMT:getqloc.obj
 0002:000037f0       ??_C@_0BB@DBEFDDME@chinese?9hongkong?$AA@ 1003a7f0     LIBCMT:getqloc.obj
 0002:00003804       ??_C@_07DHNMFMCI@chinese?$AA@ 1003a804     LIBCMT:getqloc.obj
 0002:0000380c       ??_C@_03FNDDCHI@chi?$AA@   1003a80c     LIBCMT:getqloc.obj
 0002:00003810       ??_C@_03BMMIADDJ@chh?$AA@  1003a810     LIBCMT:getqloc.obj
 0002:00003814       ??_C@_08OAIPJDGI@canadian?$AA@ 1003a814     LIBCMT:getqloc.obj
 0002:00003820       ??_C@_07HBPMNPNJ@belgian?$AA@ 1003a820     LIBCMT:getqloc.obj
 0002:00003828       ??_C@_0L@OEKOPBEL@australian?$AA@ 1003a828     LIBCMT:getqloc.obj
 0002:00003834       ??_C@_0BB@MEIMBEDG@american?9english?$AA@ 1003a834     LIBCMT:getqloc.obj
 0002:00003848       ??_C@_0BB@DFMDPDGB@american?5english?$AA@ 1003a848     LIBCMT:getqloc.obj
 0002:0000385c       ??_C@_08IJLOKOLL@american?$AA@ 1003a85c     LIBCMT:getqloc.obj
 0002:00003868       ___rg_language             1003a868     LIBCMT:getqloc.obj
 0002:00003a70       ___rg_country              1003aa70     LIBCMT:getqloc.obj
 0002:00003b28       ___rglangidNotDefault      1003ab28     LIBCMT:getqloc.obj
 0002:00003b3c       ??_C@_03NFKLAGEF@OCP?$AA@  1003ab3c     LIBCMT:getqloc.obj
 0002:00003b40       ??_C@_03DFHEHBHG@ACP?$AA@  1003ab40     LIBCMT:getqloc.obj
 0002:00003b44       ??_C@_0BC@NFIEMBLL@Norwegian?9Nynorsk?$AA@ 1003ab44     LIBCMT:getqloc.obj
 0002:00003b94       ??_C@_0CG@PKBDLMEO@InitializeCriticalSectionAndSpin@ 1003ab94     LIBCMT:initcrit.obj
 0002:00003bbc       ??_C@_0N@MDJJJHMB@kernel32?4dll?$AA@ 1003abbc     LIBCMT:initcrit.obj
 0002:00003bcc       ??_C@_0BK@CFCOFLF@?5Complete?5Object?5Locator?8?$AA@ 1003abcc     LIBCMT:undname.obj
 0002:00003be8       ??_C@_0BN@MECKDCOJ@?5Class?5Hierarchy?5Descriptor?8?$AA@ 1003abe8     LIBCMT:undname.obj
 0002:00003c08       ??_C@_0BD@LGICGFMM@?5Base?5Class?5Array?8?$AA@ 1003ac08     LIBCMT:undname.obj
 0002:00003c1c       ??_C@_0BM@LDKODKLH@?5Base?5Class?5Descriptor?5at?5?$CI?$AA@ 1003ac1c     LIBCMT:undname.obj
 0002:00003c38       ??_C@_0BC@DAFEJGAK@?5Type?5Descriptor?8?$AA@ 1003ac38     LIBCMT:undname.obj
 0002:00003c4c       ??_C@_0BM@PMGGMLDN@?$GAlocal?5static?5thread?5guard?8?$AA@ 1003ac4c     LIBCMT:undname.obj
 0002:00003c68       ??_C@_0CL@FGIJHLCE@?$GAmanaged?5vector?5copy?5constructor@ 1003ac68     LIBCMT:undname.obj
 0002:00003c94       ??_C@_0CJ@GJELGAMM@?$GAvector?5vbase?5copy?5constructor?5i@ 1003ac94     LIBCMT:undname.obj
 0002:00003cc0       ??_C@_0CD@CGAJBKEJ@?$GAvector?5copy?5constructor?5iterato@ 1003acc0     LIBCMT:undname.obj
 0002:00003ce4       ??_C@_0CB@PDBIFEP@?$GAdynamic?5atexit?5destructor?5for?5?8@ 1003ace4     LIBCMT:undname.obj
 0002:00003d08       ??_C@_0BL@CLIPGLGB@?$GAdynamic?5initializer?5for?5?8?$AA@ 1003ad08     LIBCMT:undname.obj
 0002:00003d24       ??_C@_0CM@FCBBDIGB@?$GAeh?5vector?5vbase?5copy?5constructo@ 1003ad24     LIBCMT:undname.obj
 0002:00003d50       ??_C@_0CG@HLDDJMAG@?$GAeh?5vector?5copy?5constructor?5iter@ 1003ad50     LIBCMT:undname.obj
 0002:00003d78       ??_C@_0CF@IMGKMJNO@?$GAmanaged?5vector?5destructor?5itera@ 1003ad78     LIBCMT:undname.obj
 0002:00003da0       ??_C@_0CG@CFDHKGGD@?$GAmanaged?5vector?5constructor?5iter@ 1003ada0     LIBCMT:undname.obj
 0002:00003dc8       ??_C@_0BN@CKNJLHMB@?$GAplacement?5delete?$FL?$FN?5closure?8?$AA@ 1003adc8     LIBCMT:undname.obj
 0002:00003de8       ??_C@_0BL@CNOONJFP@?$GAplacement?5delete?5closure?8?$AA@ 1003ade8     LIBCMT:undname.obj
 0002:00003e04       ??_C@_0P@HJKNJFNN@?$GAomni?5callsig?8?$AA@ 1003ae04     LIBCMT:undname.obj
 0002:00003e14       ??_C@_09LBNFPBCA@?5delete?$FL?$FN?$AA@ 1003ae14     LIBCMT:undname.obj
 0002:00003e20       ??_C@_06FHBGPFGH@?5new?$FL?$FN?$AA@ 1003ae20     LIBCMT:undname.obj
 0002:00003e28       ??_C@_0CE@IIHCMGGL@?$GAlocal?5vftable?5constructor?5closu@ 1003ae28     LIBCMT:undname.obj
 0002:00003e4c       ??_C@_0BA@KKLDJDLB@?$GAlocal?5vftable?8?$AA@ 1003ae4c     LIBCMT:undname.obj
 0002:00003e5c       ??_C@_05KHLCHHI@?$GARTTI?$AA@ 1003ae5c     LIBCMT:undname.obj
 0002:00003e64       ??_C@_03KLGMFNMG@?$GAEH?$AA@ 1003ae64     LIBCMT:undname.obj
 0002:00003e68       ??_C@_0BA@KBCDOMBN@?$GAudt?5returning?8?$AA@ 1003ae68     LIBCMT:undname.obj
 0002:00003e78       ??_C@_0BL@LLKPOHJI@?$GAcopy?5constructor?5closure?8?$AA@ 1003ae78     LIBCMT:undname.obj
 0002:00003e94       ??_C@_0CH@OOJPLCPH@?$GAeh?5vector?5vbase?5constructor?5ite@ 1003ae94     LIBCMT:undname.obj
 0002:00003ebc       ??_C@_0CA@GCEOPDGL@?$GAeh?5vector?5destructor?5iterator?8?$AA@ 1003aebc     LIBCMT:undname.obj
 0002:00003edc       ??_C@_0CB@JONCMFFK@?$GAeh?5vector?5constructor?5iterator?8@ 1003aedc     LIBCMT:undname.obj
 0002:00003f00       ??_C@_0BL@NILFHHPC@?$GAvirtual?5displacement?5map?8?$AA@ 1003af00     LIBCMT:undname.obj
 0002:00003f1c       ??_C@_0CE@IKBNEHA@?$GAvector?5vbase?5constructor?5iterat@ 1003af1c     LIBCMT:undname.obj
 0002:00003f40       ??_C@_0BN@LFPFMEDL@?$GAvector?5destructor?5iterator?8?$AA@ 1003af40     LIBCMT:undname.obj
 0002:00003f60       ??_C@_0BO@PFGOCPJJ@?$GAvector?5constructor?5iterator?8?$AA@ 1003af60     LIBCMT:undname.obj
 0002:00003f80       ??_C@_0BN@IMDCHIKM@?$GAscalar?5deleting?5destructor?8?$AA@ 1003af80     LIBCMT:undname.obj
 0002:00003fa0       ??_C@_0BO@OBMKPJIG@?$GAdefault?5constructor?5closure?8?$AA@ 1003afa0     LIBCMT:undname.obj
 0002:00003fc0       ??_C@_0BN@DEGPLNFK@?$GAvector?5deleting?5destructor?8?$AA@ 1003afc0     LIBCMT:undname.obj
 0002:00003fe0       ??_C@_0BD@JDLKDPAB@?$GAvbase?5destructor?8?$AA@ 1003afe0     LIBCMT:undname.obj
 0002:00003ff4       ??_C@_08OBABFOLI@?$GAstring?8?$AA@ 1003aff4     LIBCMT:undname.obj
 0002:00004000       ??_C@_0BF@KDPPACIK@?$GAlocal?5static?5guard?8?$AA@ 1003b000     LIBCMT:undname.obj
 0002:00004018       ??_C@_08LLFFHHDJ@?$GAtypeof?8?$AA@ 1003b018     LIBCMT:undname.obj
 0002:00004024       ??_C@_07FEEIOKP@?$GAvcall?8?$AA@ 1003b024     LIBCMT:undname.obj
 0002:0000402c       ??_C@_09BLBHBJP@?$GAvbtable?8?$AA@ 1003b02c     LIBCMT:undname.obj
 0002:00004038       ??_C@_09IFPLHPGF@?$GAvftable?8?$AA@ 1003b038     LIBCMT:undname.obj
 0002:00004044       ??_C@_02MHEGNOJ@?$FO?$DN?$AA@ 1003b044     LIBCMT:undname.obj
 0002:00004048       ??_C@_02DHLNPPGH@?$HM?$DN?$AA@ 1003b048     LIBCMT:undname.obj
 0002:0000404c       ??_C@_02FGJGFEAB@?$CG?$DN?$AA@ 1003b04c     LIBCMT:undname.obj
 0002:00004050       ??_C@_03CDNPDDLA@?$DM?$DM?$DN?$AA@ 1003b050     LIBCMT:undname.obj
 0002:00004054       ??_C@_03IKFCCPFF@?$DO?$DO?$DN?$AA@ 1003b054     LIBCMT:undname.obj
 0002:00004058       ??_C@_02FENAOKFI@?$CF?$DN?$AA@ 1003b058     LIBCMT:undname.obj
 0002:0000405c       ??_C@_02FJEHGPIO@?1?$DN?$AA@ 1003b05c     LIBCMT:undname.obj
 0002:00004060       ??_C@_02FKMDLLOA@?9?$DN?$AA@ 1003b060     LIBCMT:undname.obj
 0002:00004064       ??_C@_02FOEOMHFC@?$CL?$DN?$AA@ 1003b064     LIBCMT:undname.obj
 0002:00004068       ??_C@_02FPIMKNGF@?$CK?$DN?$AA@ 1003b068     LIBCMT:undname.obj
 0002:0000406c       ??_C@_02NONPIBCD@?$HM?$HM?$AA@ 1003b06c     LIBCMT:undname.obj
 0002:00004070       ??_C@_02PPKAJPJL@?$CG?$CG?$AA@ 1003b070     LIBCMT:undname.obj
 0002:00004074       ??_C@_01DNKMNLPK@?$HM?$AA@ 1003b074     LIBCMT:undname.obj
 0002:00004078       ??_C@_01JKBOJNNK@?$FO?$AA@ 1003b078     LIBCMT:undname.obj
 0002:0000407c       ??_C@_01PJKLJHI@?$HO?$AA@  1003b07c     LIBCMT:undname.obj
 0002:00004080       ??_C@_02HCKGKOFO@?$CI?$CJ?$AA@ 1003b080     LIBCMT:undname.obj
 0002:00004084       ??_C@_01IHBHIGKO@?0?$AA@   1003b084     LIBCMT:undname.obj
 0002:00004088       ??_C@_02EEKDKGMJ@?$DO?$DN?$AA@ 1003b088     LIBCMT:undname.obj
 0002:0000408c       ??_C@_01PPODPGHN@?$DO?$AA@ 1003b08c     LIBCMT:undname.obj
 0002:00004090       ??_C@_02EHCHHCKH@?$DM?$DN?$AA@ 1003b090     LIBCMT:undname.obj
 0002:00004094       ??_C@_01MNNFJEPP@?$DM?$AA@ 1003b094     LIBCMT:undname.obj
 0002:00004098       ??_C@_01FGNFDNOH@?$CF?$AA@ 1003b098     LIBCMT:undname.obj
 0002:0000409c       ??_C@_03MNHNFDLC@?9?$DO?$CK?$AA@ 1003b09c     LIBCMT:undname.obj
 0002:000040a0       ??_C@_01HNPIGOCE@?$CG?$AA@ 1003b0a0     LIBCMT:undname.obj
 0002:000040a4       ??_C@_01MIFGBAGJ@?$CL?$AA@ 1003b0a4     LIBCMT:undname.obj
 0002:000040a8       ??_C@_01JOAMLHOP@?9?$AA@   1003b0a8     LIBCMT:undname.obj
 0002:000040ac       ??_C@_02BAABKJLB@?9?9?$AA@ 1003b0ac     LIBCMT:undname.obj
 0002:000040b0       ??_C@_02ECNGHCIF@?$CL?$CL?$AA@ 1003b0b0     LIBCMT:undname.obj
 0002:000040b4       ??_C@_02HBOOOICD@?9?$DO?$AA@ 1003b0b4     LIBCMT:undname.obj
 0002:000040b8       ??_C@_08LHJFAFGD@operator?$AA@ 1003b0b8     LIBCMT:undname.obj
 0002:000040c4       ??_C@_02GPECMEKF@?$FL?$FN?$AA@ 1003b0c4     LIBCMT:undname.obj
 0002:000040c8       ??_C@_02FDNJECIE@?$CB?$DN?$AA@ 1003b0c8     LIBCMT:undname.obj
 0002:000040cc       ??_C@_02EGOFBIJA@?$DN?$DN?$AA@ 1003b0cc     LIBCMT:undname.obj
 0002:000040d0       ??_C@_01DCLJPIOD@?$CB?$AA@ 1003b0d0     LIBCMT:undname.obj
 0002:000040d4       ??_C@_02FODMEDOG@?$DM?$DM?$AA@ 1003b0d4     LIBCMT:undname.obj
 0002:000040d8       ??_C@_02GPIOPFAK@?$DO?$DO?$AA@ 1003b0d8     LIBCMT:undname.obj
 0002:000040dc       ??_C@_07FPCDHGMM@?5delete?$AA@ 1003b0dc     LIBCMT:undname.obj
 0002:000040e4       ??_C@_04NIHEBCM@?5new?$AA@ 1003b0e4     LIBCMT:undname.obj
 0002:000040ec       ??_C@_0M@GFIIJFMG@__unaligned?$AA@ 1003b0ec     LIBCMT:undname.obj
 0002:000040f8       ??_C@_0L@PILCLIHE@__restrict?$AA@ 1003b0f8     LIBCMT:undname.obj
 0002:00004104       ??_C@_07JOMMBBKO@__ptr64?$AA@ 1003b104     LIBCMT:undname.obj
 0002:0000410c       ??_C@_09HIJEGCPM@__clrcall?$AA@ 1003b10c     LIBCMT:undname.obj
 0002:00004118       ??_C@_0L@JMKHOMEK@__fastcall?$AA@ 1003b118     LIBCMT:undname.obj
 0002:00004124       ??_C@_0L@NPHFGOKO@__thiscall?$AA@ 1003b124     LIBCMT:undname.obj
 0002:00004130       ??_C@_09IFJBGAPI@__stdcall?$AA@ 1003b130     LIBCMT:undname.obj
 0002:0000413c       ??_C@_08GHMPAG@__pascal?$AA@ 1003b13c     LIBCMT:undname.obj
 0002:00004148       ??_C@_07KOLFKCDI@__cdecl?$AA@ 1003b148     LIBCMT:undname.obj
 0002:00004150       ??_C@_08EHJDFFNH@__based?$CI?$AA@ 1003b150     LIBCMT:undname.obj
 0002:000042e0       ??_C@_0L@NKOGAPMJ@SystemRoot?$AA@ 1003b2e0     LIBCMT:cenvarg.obj
 0002:000042ec       ??_C@_0BI@DFKBFLJE@GetProcessWindowStation?$AA@ 1003b2ec     LIBCMT:crtmbox.obj
 0002:00004304       ??_C@_0BK@CIDNPOGP@GetUserObjectInformationA?$AA@ 1003b304     LIBCMT:crtmbox.obj
 0002:00004320       ??_C@_0BD@HHGDFDBJ@GetLastActivePopup?$AA@ 1003b320     LIBCMT:crtmbox.obj
 0002:00004334       ??_C@_0BA@HNOPNCHB@GetActiveWindow?$AA@ 1003b334     LIBCMT:crtmbox.obj
 0002:00004344       ??_C@_0M@CHKKJDAI@MessageBoxA?$AA@ 1003b344     LIBCMT:crtmbox.obj
 0002:00004350       ??_C@_0L@NDEGIDAG@USER32?4DLL?$AA@ 1003b350     LIBCMT:crtmbox.obj
 0002:00004360       ___lookuptable_s           1003b360     LIBCMT:outputs.obj
 0002:000043bc       ??_C@_07GPDNMNG@CONOUT$?$AA@ 1003b3bc     LIBCMT:initcon.obj
 0002:000043c4       ??_C@_06IMKFLFPG@1?$CDQNAN?$AA@ 1003b3c4     LIBCMT:x10fout.obj
 0002:000043cc       ??_C@_05DNEBIAHO@1?$CDINF?$AA@ 1003b3cc     LIBCMT:x10fout.obj
 0002:000043d4       ??_C@_05PHHOCPM@1?$CDIND?$AA@ 1003b3d4     LIBCMT:x10fout.obj
 0002:000043dc       ??_C@_06PGGFOGJG@1?$CDSNAN?$AA@ 1003b3dc     LIBCMT:x10fout.obj
 0002:000043e4       ??_C@_0L@KDOEJCKC@_nextafter?$AA@ 1003b3e4     LIBCMT:fpexcept.obj
 0002:000043f0       ??_C@_05JGDBENOH@_logb?$AA@ 1003b3f0     LIBCMT:fpexcept.obj
 0002:000043f8       ??_C@_03ONILCKOB@_yn?$AA@  1003b3f8     LIBCMT:fpexcept.obj
 0002:000043fc       ??_C@_03NAKIGLHK@_y1?$AA@  1003b3fc     LIBCMT:fpexcept.obj
 0002:00004400       ??_C@_03MJLDFKDL@_y0?$AA@  1003b400     LIBCMT:fpexcept.obj
 0002:00004404       ??_C@_05GKKHEGJL@frexp?$AA@ 1003b404     LIBCMT:fpexcept.obj
 0002:0000440c       ??_C@_04KEPJIHGP@fmod?$AA@ 1003b40c     LIBCMT:fpexcept.obj
 0002:00004414       ??_C@_06MEIMCGCF@_hypot?$AA@ 1003b414     LIBCMT:fpexcept.obj
 0002:0000441c       ??_C@_05KBKMEMPO@_cabs?$AA@ 1003b41c     LIBCMT:fpexcept.obj
 0002:00004424       ??_C@_05CEJMAHNP@ldexp?$AA@ 1003b424     LIBCMT:fpexcept.obj
 0002:0000442c       ??_C@_04EHEDPDJG@modf?$AA@ 1003b42c     LIBCMT:fpexcept.obj
 0002:00004434       ??_C@_04ODHECPBC@fabs?$AA@ 1003b434     LIBCMT:fpexcept.obj
 0002:0000443c       ??_C@_05PBJFFIGL@floor?$AA@ 1003b43c     LIBCMT:fpexcept.obj
 0002:00004444       ??_C@_04GFPJNGEK@ceil?$AA@ 1003b444     LIBCMT:fpexcept.obj
 0002:0000444c       ??_C@_03IIINPABG@tan?$AA@  1003b44c     LIBCMT:fpexcept.obj
 0002:00004450       ??_C@_03LALBNOCG@cos?$AA@  1003b450     LIBCMT:fpexcept.obj
 0002:00004454       ??_C@_03BLEJJJBH@sin?$AA@  1003b454     LIBCMT:fpexcept.obj
 0002:00004458       ??_C@_04EIAKFFMI@sqrt?$AA@ 1003b458     LIBCMT:fpexcept.obj
 0002:00004460       ??_C@_05KNGEOGJB@atan2?$AA@ 1003b460     LIBCMT:fpexcept.obj
 0002:00004468       ??_C@_04MLLJIGOK@atan?$AA@ 1003b468     LIBCMT:fpexcept.obj
 0002:00004470       ??_C@_04PDIFKINK@acos?$AA@ 1003b470     LIBCMT:fpexcept.obj
 0002:00004478       ??_C@_04FIHNOPOL@asin?$AA@ 1003b478     LIBCMT:fpexcept.obj
 0002:00004480       ??_C@_04FJHINJAO@tanh?$AA@ 1003b480     LIBCMT:fpexcept.obj
 0002:00004488       ??_C@_04HPJJNFIM@cosh?$AA@ 1003b488     LIBCMT:fpexcept.obj
 0002:00004490       ??_C@_04COOMCNPB@sinh?$AA@ 1003b490     LIBCMT:fpexcept.obj
 0002:00004498       ??_C@_05HGHHAHAP@log10?$AA@ 1003b498     LIBCMT:fpexcept.obj
 0002:000044a0       ??_C@_03MGHMBJCF@log?$AA@  1003b4a0     LIBCMT:fpexcept.obj
 0002:000044a4       ??_C@_03JGHBODFD@pow?$AA@  1003b4a4     LIBCMT:fpexcept.obj
 0002:000044a8       ??_C@_03KHJOGHMM@exp?$AA@  1003b4a8     LIBCMT:fpexcept.obj
 0002:000044b0       __load_config_used         1003b4b0     LIBCMT:loadcfg.obj
 0002:000044f8       ??_R4bad_alloc@std@@6B@    1003b4f8     a2mgr.obj
 0002:0000450c       ??_R3bad_alloc@std@@8      1003b50c     a2mgr.obj
 0002:0000451c       ??_R2bad_alloc@std@@8      1003b51c     a2mgr.obj
 0002:00004528       ??_R1A@?0A@EA@bad_alloc@std@@8 1003b528     a2mgr.obj
 0002:00004544       ??_R1A@?0A@EA@exception@std@@8 1003b544     a2mgr.obj
 0002:00004560       ??_R3exception@std@@8      1003b560     a2mgr.obj
 0002:00004570       ??_R2exception@std@@8      1003b570     a2mgr.obj
 0002:00004578       ??_R4logic_error@std@@6B@  1003b578     chat_history.obj
 0002:0000458c       ??_R3logic_error@std@@8    1003b58c     chat_history.obj
 0002:0000459c       ??_R2logic_error@std@@8    1003b59c     chat_history.obj
 0002:000045a8       ??_R1A@?0A@EA@logic_error@std@@8 1003b5a8     chat_history.obj
 0002:000045c4       ??_R4length_error@std@@6B@ 1003b5c4     chat_history.obj
 0002:000045d8       ??_R3length_error@std@@8   1003b5d8     chat_history.obj
 0002:000045e8       ??_R2length_error@std@@8   1003b5e8     chat_history.obj
 0002:000045f8       ??_R1A@?0A@EA@length_error@std@@8 1003b5f8     chat_history.obj
 0002:00004614       ??_R4out_of_range@std@@6B@ 1003b614     class_extend.obj
 0002:00004628       ??_R3out_of_range@std@@8   1003b628     class_extend.obj
 0002:00004638       ??_R2out_of_range@std@@8   1003b638     class_extend.obj
 0002:00004648       ??_R1A@?0A@EA@out_of_range@std@@8 1003b648     class_extend.obj
 0002:00004664       ??_R4facet@locale@std@@6B@ 1003b664     config.obj
 0002:00004678       ??_R3facet@locale@std@@8   1003b678     config.obj
 0002:00004688       ??_R2facet@locale@std@@8   1003b688     config.obj
 0002:00004690       ??_R1A@?0A@EA@facet@locale@std@@8 1003b690     config.obj
 0002:000046ac       ??_R3codecvt_base@std@@8   1003b6ac     config.obj
 0002:000046bc       ??_R2codecvt_base@std@@8   1003b6bc     config.obj
 0002:000046c8       ??_R1A@?0A@EA@codecvt_base@std@@8 1003b6c8     config.obj
 0002:000046e4       ??_R3ctype_base@std@@8     1003b6e4     config.obj
 0002:000046f4       ??_R2ctype_base@std@@8     1003b6f4     config.obj
 0002:00004700       ??_R1A@?0A@EA@ctype_base@std@@8 1003b700     config.obj
 0002:0000471c       ??_R4ios_base@std@@6B@     1003b71c     config.obj
 0002:00004730       ??_R3ios_base@std@@8       1003b730     config.obj
 0002:00004740       ??_R2ios_base@std@@8       1003b740     config.obj
 0002:0000474c       ??_R1A@?0A@EA@ios_base@std@@8 1003b74c     config.obj
 0002:00004768       ??_R13?0A@EA@?$_Iosb@H@std@@8 1003b768     config.obj
 0002:00004784       ??_R3?$_Iosb@H@std@@8      1003b784     config.obj
 0002:00004794       ??_R2?$_Iosb@H@std@@8      1003b794     config.obj
 0002:0000479c       ??_R1A@?0A@EA@?$_Iosb@H@std@@8 1003b79c     config.obj
 0002:000047b8       ??_R4?$basic_istream@DU?$char_traits@D@std@@@std@@6B@ 1003b7b8     config.obj
 0002:000047cc       ??_R3?$basic_istream@DU?$char_traits@D@std@@@std@@8 1003b7cc     config.obj
 0002:000047dc       ??_R2?$basic_istream@DU?$char_traits@D@std@@@std@@8 1003b7dc     config.obj
 0002:000047f0       ??_R1A@?0A@EA@?$basic_istream@DU?$char_traits@D@std@@@std@@8 1003b7f0     config.obj
 0002:0000480c       ??_R1A@A@3FA@?$basic_ios@DU?$char_traits@D@std@@@std@@8 1003b80c     config.obj
 0002:00004828       ??_R3?$basic_ios@DU?$char_traits@D@std@@@std@@8 1003b828     config.obj
 0002:00004838       ??_R2?$basic_ios@DU?$char_traits@D@std@@@std@@8 1003b838     config.obj
 0002:00004848       ??_R1A@?0A@EA@?$basic_ios@DU?$char_traits@D@std@@@std@@8 1003b848     config.obj
 0002:00004864       ??_R1A@A@3EA@ios_base@std@@8 1003b864     config.obj
 0002:00004880       ??_R13A@3EA@?$_Iosb@H@std@@8 1003b880     config.obj
 0002:0000489c       ??_R4?$basic_ios@DU?$char_traits@D@std@@@std@@6B@ 1003b89c     config.obj
 0002:000048b0       ??_R4?$basic_streambuf@DU?$char_traits@D@std@@@std@@6B@ 1003b8b0     config.obj
 0002:000048c4       ??_R3?$basic_streambuf@DU?$char_traits@D@std@@@std@@8 1003b8c4     config.obj
 0002:000048d4       ??_R2?$basic_streambuf@DU?$char_traits@D@std@@@std@@8 1003b8d4     config.obj
 0002:000048dc       ??_R1A@?0A@EA@?$basic_streambuf@DU?$char_traits@D@std@@@std@@8 1003b8dc     config.obj
 0002:000048f8       ??_R4?$basic_filebuf@DU?$char_traits@D@std@@@std@@6B@ 1003b8f8     config.obj
 0002:0000490c       ??_R3?$basic_filebuf@DU?$char_traits@D@std@@@std@@8 1003b90c     config.obj
 0002:0000491c       ??_R2?$basic_filebuf@DU?$char_traits@D@std@@@std@@8 1003b91c     config.obj
 0002:00004928       ??_R1A@?0A@EA@?$basic_filebuf@DU?$char_traits@D@std@@@std@@8 1003b928     config.obj
 0002:00004944       ??_R4runtime_error@std@@6B@ 1003b944     config.obj
 0002:00004958       ??_R3runtime_error@std@@8  1003b958     config.obj
 0002:00004968       ??_R2runtime_error@std@@8  1003b968     config.obj
 0002:00004974       ??_R1A@?0A@EA@runtime_error@std@@8 1003b974     config.obj
 0002:00004990       ??_R4failure@ios_base@std@@6B@ 1003b990     config.obj
 0002:000049a4       ??_R3failure@ios_base@std@@8 1003b9a4     config.obj
 0002:000049b4       ??_R2failure@ios_base@std@@8 1003b9b4     config.obj
 0002:000049c4       ??_R1A@?0A@EA@failure@ios_base@std@@8 1003b9c4     config.obj
 0002:000049e0       ??_R4?$ctype@D@std@@6B@    1003b9e0     config.obj
 0002:000049f4       ??_R3?$ctype@D@std@@8      1003b9f4     config.obj
 0002:00004a04       ??_R2?$ctype@D@std@@8      1003ba04     config.obj
 0002:00004a14       ??_R1A@?0A@EA@?$ctype@D@std@@8 1003ba14     config.obj
 0002:00004a30       ??_R4?$basic_ifstream@DU?$char_traits@D@std@@@std@@6B@ 1003ba30     config.obj
 0002:00004a44       ??_R3?$basic_ifstream@DU?$char_traits@D@std@@@std@@8 1003ba44     config.obj
 0002:00004a54       ??_R2?$basic_ifstream@DU?$char_traits@D@std@@@std@@8 1003ba54     config.obj
 0002:00004a6c       ??_R1A@?0A@EA@?$basic_ifstream@DU?$char_traits@D@std@@@std@@8 1003ba6c     config.obj
 0002:00004a88       ??_R4?$codecvt@DDH@std@@6B@ 1003ba88     config.obj
 0002:00004a9c       ??_R3?$codecvt@DDH@std@@8  1003ba9c     config.obj
 0002:00004aac       ??_R2?$codecvt@DDH@std@@8  1003baac     config.obj
 0002:00004abc       ??_R1A@?0A@EA@?$codecvt@DDH@std@@8 1003babc     config.obj
 0002:00004ad8       ??_R4?$basic_ostream@DU?$char_traits@D@std@@@std@@6B@ 1003bad8     serialize.obj
 0002:00004aec       ??_R3?$basic_ostream@DU?$char_traits@D@std@@@std@@8 1003baec     serialize.obj
 0002:00004afc       ??_R2?$basic_ostream@DU?$char_traits@D@std@@@std@@8 1003bafc     serialize.obj
 0002:00004b10       ??_R1A@?0A@EA@?$basic_ostream@DU?$char_traits@D@std@@@std@@8 1003bb10     serialize.obj
 0002:00004b2c       ??_R4?$basic_ofstream@DU?$char_traits@D@std@@@std@@6B@ 1003bb2c     serialize.obj
 0002:00004b40       ??_R3?$basic_ofstream@DU?$char_traits@D@std@@@std@@8 1003bb40     serialize.obj
 0002:00004b50       ??_R2?$basic_ofstream@DU?$char_traits@D@std@@@std@@8 1003bb50     serialize.obj
 0002:00004b68       ??_R1A@?0A@EA@?$basic_ofstream@DU?$char_traits@D@std@@@std@@8 1003bb68     serialize.obj
 0002:00004b84       ??_R4_Locimp@locale@std@@6B@ 1003bb84     libcpmt:locale0.obj
 0002:00004b98       ??_R3_Locimp@locale@std@@8 1003bb98     libcpmt:locale0.obj
 0002:00004ba8       ??_R2_Locimp@locale@std@@8 1003bba8     libcpmt:locale0.obj
 0002:00004bb4       ??_R1A@?0A@EA@_Locimp@locale@std@@8 1003bbb4     libcpmt:locale0.obj
 0002:00004bd0       ??_R4exception@std@@6B@    1003bbd0     LIBCMT:stdexcpt.obj
 0002:00004be4       ??_R4bad_cast@std@@6B@     1003bbe4     LIBCMT:stdexcpt.obj
 0002:00004bf8       ??_R3bad_cast@std@@8       1003bbf8     LIBCMT:stdexcpt.obj
 0002:00004c08       ??_R2bad_cast@std@@8       1003bc08     LIBCMT:stdexcpt.obj
 0002:00004c14       ??_R1A@?0A@EA@bad_cast@std@@8 1003bc14     LIBCMT:stdexcpt.obj
 0002:00004c30       ??_R4type_info@@6B@        1003bc30     LIBCMT:typinfo.obj
 0002:00004c44       ??_R3type_info@@8          1003bc44     LIBCMT:typinfo.obj
 0002:00004c54       ??_R2type_info@@8          1003bc54     LIBCMT:typinfo.obj
 0002:00004c5c       ??_R1A@?0A@EA@type_info@@8 1003bc5c     LIBCMT:typinfo.obj
 0002:00004c78       ??_R4bad_exception@std@@6B@ 1003bc78     LIBCMT:frame.obj
 0002:00004c8c       ??_R3bad_exception@std@@8  1003bc8c     LIBCMT:frame.obj
 0002:00004c9c       ??_R2bad_exception@std@@8  1003bc9c     LIBCMT:frame.obj
 0002:00004ca8       ??_R1A@?0A@EA@bad_exception@std@@8 1003bca8     LIBCMT:frame.obj
 0002:00004cd0       ___safe_se_handler_table   1003bcd0     <linker-defined>
 0002:00004e98       ___rtc_iaa                 1003be98     LIBCMT:initsect.obj
 0002:00004e9c       ___rtc_izz                 1003be9c     LIBCMT:initsect.obj
 0002:00004ea0       ___rtc_taa                 1003bea0     LIBCMT:initsect.obj
 0002:00004ea4       ___rtc_tzz                 1003bea4     LIBCMT:initsect.obj
 0002:00004ea8       __TI2?AVbad_alloc@std@@    1003bea8     a2mgr.obj
 0002:00004eb8       __CTA2?AVbad_alloc@std@@   1003beb8     a2mgr.obj
 0002:00004ec4       __CT??_R0?AVbad_alloc@std@@@8??0bad_alloc@std@@QAE@ABV01@@Z12 1003bec4     a2mgr.obj
 0002:00004ee0       __CT??_R0?AVexception@std@@@8??0exception@std@@QAE@ABV01@@Z12 1003bee0     a2mgr.obj
 0002:00005094       __TI3?AVlength_error@std@@ 1003c094     chat_history.obj
 0002:000050a4       __CTA3?AVlength_error@std@@ 1003c0a4     chat_history.obj
 0002:000050b4       __CT??_R0?AVlength_error@std@@@8??0length_error@std@@QAE@ABV01@@Z40 1003c0b4     chat_history.obj
 0002:000050d0       __CT??_R0?AVlogic_error@std@@@8??0logic_error@std@@QAE@ABV01@@Z40 1003c0d0     chat_history.obj
 0002:0000552c       __TI3?AVout_of_range@std@@ 1003c52c     class_extend.obj
 0002:0000553c       __CTA3?AVout_of_range@std@@ 1003c53c     class_extend.obj
 0002:0000554c       __CT??_R0?AVout_of_range@std@@@8??0out_of_range@std@@QAE@ABV01@@Z40 1003c54c     class_extend.obj
 0002:00005690       __TI2?AVruntime_error@std@@ 1003c690     config.obj
 0002:000056f4       __CTA2?AVruntime_error@std@@ 1003c6f4     config.obj
 0002:00005700       __CT??_R0?AVruntime_error@std@@@8??0runtime_error@std@@QAE@ABV01@@Z40 1003c700     config.obj
 0002:00005774       __TI3?AVfailure@ios_base@std@@ 1003c774     config.obj
 0002:000057c0       __CTA3?AVfailure@ios_base@std@@ 1003c7c0     config.obj
 0002:000057d0       __CT??_R0?AVfailure@ios_base@std@@@8??0failure@ios_base@std@@QAE@ABV012@@Z40 1003c7d0     config.obj
 0002:00005844       __TI2?AVbad_cast@std@@     1003c844     config.obj
 0002:00005880       __CTA2?AVbad_cast@std@@    1003c880     config.obj
 0002:0000588c       __CT??_R0?AVbad_cast@std@@@8??0bad_cast@std@@QAE@ABV01@@Z12 1003c88c     config.obj
 0002:00006814       __TI1?AVWobbly@happyhttp@@ 1003d814     happyhttp.obj
 0002:00006824       __CTA1?AVWobbly@happyhttp@@ 1003d824     happyhttp.obj
 0002:0000682c       __CT??_R0?AVWobbly@happyhttp@@@8256 1003d82c     happyhttp.obj
 0002:000070ac       __TI2?AVbad_exception@std@@ 1003e0ac     LIBCMT:frame.obj
 0002:000070bc       __CTA2?AVbad_exception@std@@ 1003e0bc     LIBCMT:frame.obj
 0002:000070c8       __CT??_R0?AVbad_exception@std@@@8??0bad_exception@std@@QAE@ABV01@@Z12 1003e0c8     LIBCMT:frame.obj
 0002:000074f4       __IMPORT_DESCRIPTOR_SDL    1003e4f4     SDL:SDL.dll
 0002:00007508       __IMPORT_DESCRIPTOR_SDL_image 1003e508     SDL_image:SDL_image.dll
 0002:0000751c       __IMPORT_DESCRIPTOR_KERNEL32 1003e51c     kernel32:KERNEL32.dll
 0002:00007530       __IMPORT_DESCRIPTOR_USER32 1003e530     user32:USER32.dll
 0002:00007544       __IMPORT_DESCRIPTOR_GDI32  1003e544     gdi32:GDI32.dll
 0002:00007558       __IMPORT_DESCRIPTOR_PSAPI  1003e558     psapi:PSAPI.DLL
 0002:0000756c       __IMPORT_DESCRIPTOR_WS2_32 1003e56c     ws2_32:WS2_32.dll
 0002:00007580       __IMPORT_DESCRIPTOR_gdiplus 1003e580     gdiplus:gdiplus.dll
 0002:00007594       __NULL_IMPORT_DESCRIPTOR   1003e594     SDL:SDL.dll
 0003:00000004       ??_R0?AVbad_alloc@std@@@8  10040004     a2mgr.obj
 0003:00000020       ??_R0?AVexception@std@@@8  10040020     a2mgr.obj
 0003:00000044       ?pr_c_2_str@@3PADA         10040044     chat.obj
 0003:0000004c       ??_R0?AVlogic_error@std@@@8 1004004c     chat_history.obj
 0003:0000006c       ??_R0?AVlength_error@std@@@8 1004006c     chat_history.obj
 0003:00000090       ??_R0?AVout_of_range@std@@@8 10040090     class_extend.obj
 0003:000000bc       ?g_scrollintv@@3KA         100400bc     config.obj
 0003:000000c0       ?r_width@@3KA              100400c0     config.obj
 0003:000000c4       ?r_height@@3KA             100400c4     config.obj
 0003:000000c8       ?z_screendir@@3_NA         100400c8     config.obj
 0003:000000c9       ?z_logsdir@@3_NA           100400c9     config.obj
 0003:000000ca       ?z_russian@@3_NA           100400ca     config.obj
 0003:000000cc       ?net_maxplayers@@3KA       100400cc     config.obj
 0003:000000d0       ?r_grid_color@@3KA         100400d0     config.obj
 0003:000000d4       ?current_directory@@3V?$basic_string@DU?$char_traits@D@std@@V?$allocator@D@2@@std@@A 100400d4     config.obj
 0003:000000f0       ??_R0?AVfacet@locale@std@@@8 100400f0     config.obj
 0003:00000110       ??_R0?AVcodecvt_base@std@@@8 10040110     config.obj
 0003:00000130       ??_R0?AUctype_base@std@@@8 10040130     config.obj
 0003:00000150       ??_R0?AVios_base@std@@@8   10040150     config.obj
 0003:0000016c       ??_R0?AV?$_Iosb@H@std@@@8  1004016c     config.obj
 0003:00000188       ??_R0?AV?$basic_istream@DU?$char_traits@D@std@@@std@@@8 10040188     config.obj
 0003:000001c4       ??_R0?AV?$basic_ios@DU?$char_traits@D@std@@@std@@@8 100401c4     config.obj
 0003:000001fc       ??_R0?AV?$basic_streambuf@DU?$char_traits@D@std@@@std@@@8 100401fc     config.obj
 0003:00000238       ??_R0?AV?$basic_filebuf@DU?$char_traits@D@std@@@std@@@8 10040238     config.obj
 0003:00000274       ??_R0?AVruntime_error@std@@@8 10040274     config.obj
 0003:00000294       ??_R0?AVfailure@ios_base@std@@@8 10040294     config.obj
 0003:000002b8       ??_R0?AV?$ctype@D@std@@@8  100402b8     config.obj
 0003:000002d4       ??_R0?AV?$basic_ifstream@DU?$char_traits@D@std@@@std@@@8 100402d4     config.obj
 0003:00000310       ??_R0?AVbad_cast@std@@@8   10040310     config.obj
 0003:0000032c       ??_R0?AV?$codecvt@DDH@std@@@8 1004032c     config.obj
 0003:00000358       ?Archives@@3VFileArchive@@A 10040358     File.obj
 0003:000003c4       ?aHat@@3PADA               100403c4     network_hat_enter.obj
 0003:000003d8       ?recv_lastRemaining@@3HA   100403d8     network_protocol.obj
 0003:000003e4       ?logwhere@@3PADA           100403e4     pack_scrolling.obj
 0003:000003f4       ?aPatchC@@3PADA            100403f4     resource_control.obj
 0003:000003fc       ?aLocale_res@@3PADA        100403fc     resource_control.obj
 0003:00000408       ?aWorld@@3PADA             10040408     resource_files_replace.obj
 0003:0000040c       ?aWorldData@@3PADA         1004040c     resource_files_replace.obj
 0003:00000410       ?aWorldDataDatabin@@3PADA  10040410     resource_files_replace.obj
 0003:00000414       ?aWorldDataAireg@@3PADA    10040414     resource_files_replace.obj
 0003:00000418       ?aWorldDataMapreg@@3PADA   10040418     resource_files_replace.obj
 0003:0000041c       ?aWorldMissionScr@@3PADA   1004041c     resource_files_replace.obj
 0003:00000420       ?aWorldDataItemnamebin@@3PADA 10040420     resource_files_replace.obj
 0003:00000424       ?aWorldDataItemnamepkt@@3PADA 10040424     resource_files_replace.obj
 0003:00000428       ?aPatch@@3PADA             10040428     resource_files_replace.obj
 0003:0000042c       ?aPatchPatchtxt@@3PADA     1004042c     resource_files_replace.obj
 0003:0000043c       ??_R0?AV?$basic_ostream@DU?$char_traits@D@std@@@std@@@8 1004043c     serialize.obj
 0003:00000478       ??_R0?AV?$basic_ofstream@DU?$char_traits@D@std@@@std@@@8 10040478     serialize.obj
 0003:000004b8       ?_LOG_NAME@@3V?$basic_string@DU?$char_traits@D@std@@V?$allocator@D@2@@std@@A 100404b8     utils.obj
 0003:000004d8       ?_memcpy@@3KA              100404d8     zxmgr.obj
 0003:000004e8       ?DefCWindowVtbl@GUI@zxmgr@@3PAKA 100404e8     zxmgr_gui.obj
 0003:0000057c       ??_R0?AVWobbly@happyhttp@@@8 1004057c     happyhttp.obj
 0003:000005c0       ??_R0?AV_Locimp@locale@std@@@8 100405c0     libcpmt:locale0.obj
 0003:000005e8       ?_Sync@ios_base@std@@0_NA  100405e8     libcpmt:ios.obj
 0003:00000638       ?_PJP_CPP_Copyright@@3PADA 10040638     libcpmt:iosptrs.obj
 0003:0000069c       ??_R0?AVtype_info@@@8      1004069c     LIBCMT:typinfo.obj
 0003:000006c4       ?__pMyUnhandledExceptionFilter@@3PAXA 100406c4     LIBCMT:throw.obj
 0003:000006c8       ___security_cookie         100406c8     LIBCMT:gs_cookie.obj
 0003:000006cc       ___security_cookie_complement 100406cc     LIBCMT:gs_cookie.obj
 0003:000006d0       __fltused                  100406d0     LIBCMT:fpinit.obj
 0003:000006d4       __ldused                   100406d4     LIBCMT:fpinit.obj
 0003:000006d8       __lookuptrailbytes         100406d8     LIBCMT:read.obj
 0003:000007f0       __pctype                   100407f0     LIBCMT:ctype.obj
 0003:000007f4       __pwctype                  100407f4     LIBCMT:ctype.obj
 0003:000007fc       __aexit_rtn                100407fc     LIBCMT:crt0dat.obj
 0003:00000808       ??_R0?AVbad_exception@std@@@8 10040808     LIBCMT:frame.obj
 0003:00000828       ___abort_behavior          10040828     LIBCMT:abort.obj
 0003:000009b8       __timezone                 100409b8     LIBCMT:timeset.obj
 0003:000009bc       __daylight                 100409bc     LIBCMT:timeset.obj
 0003:000009c0       __dstbias                  100409c0     LIBCMT:timeset.obj
 0003:00000a48       __tzname                   10040a48     LIBCMT:timeset.obj
 0003:00000a50       ___flsindex                10040a50     LIBCMT:tidtable.obj
 0003:00000a54       ___getvalueindex           10040a54     LIBCMT:tidtable.obj
 0003:00000a60       ___nullstring              10040a60     LIBCMT:output.obj
 0003:00000a64       ___wnullstring             10040a64     LIBCMT:output.obj
 0003:00000a70       __amblksiz                 10040a70     LIBCMT:heapinit.obj
 0003:00000b98       __iob                      10040b98     LIBCMT:_file.obj
 0003:00000e18       ___badioinfo               10040e18     LIBCMT:ioinit.obj
 0003:00000e40       __cfltcvt_tab              10040e40     LIBCMT:cmiscdat.obj
 0003:00000f30       ___initialmbcinfo          10040f30     LIBCMT:mbctype.obj
 0003:00001150       __mbctype                  10041150     LIBCMT:mbctype.obj
 0003:00001258       __mbcasemap                10041258     LIBCMT:mbctype.obj
 0003:00001358       ___ptmbcinfo               10041358     LIBCMT:mbctype.obj
 0003:00001450       ___globallocalestatus      10041450     LIBCMT:glstatus.obj
 0003:00001458       ___clocalestr              10041458     LIBCMT:nlsdata2.obj
 0003:00001460       ___initiallocinfo          10041460     LIBCMT:nlsdata2.obj
 0003:00001538       ___ptlocinfo               10041538     LIBCMT:nlsdata2.obj
 0003:0000153c       ___lc_clike                1004153c     LIBCMT:nlsdata2.obj
 0003:00001540       ___initiallocalestructinfo 10041540     LIBCMT:nlsdata2.obj
 0003:00001550       __indefinite               10041550     LIBCMT:87disp.obj
 0003:0000155a       __piby2                    1004155a     LIBCMT:87disp.obj
 0003:00001580       __XcptActTab               10041580     LIBCMT:winxfltr.obj
 0003:000015f8       __First_FPE_Indx           100415f8     LIBCMT:winxfltr.obj
 0003:000015fc       __Num_FPE                  100415fc     LIBCMT:winxfltr.obj
 0003:00001600       __XcptActTabSize           10041600     LIBCMT:winxfltr.obj
 0003:00001604       __XcptActTabCount          10041604     LIBCMT:winxfltr.obj
 0003:00001610       ___lc_time_c               10041610     LIBCMT:strftime.obj
 0003:000016c8       ___lc_time_curr            100416c8     LIBCMT:strftime.obj
 0003:000016cc       ___lconv_static_decimal    100416cc     LIBCMT:lconv.obj
 0003:000016d0       ___lconv_c                 100416d0     LIBCMT:lconv.obj
 0003:00001700       ___lconv                   10041700     LIBCMT:lconv.obj
 0003:00001704       ___mb_cur_max              10041704     LIBCMT:nlsdata1.obj
 0003:00001708       ___decimal_point           10041708     LIBCMT:nlsdata1.obj
 0003:0000170c       ___decimal_point_length    1004170c     LIBCMT:nlsdata1.obj
 0003:00001710       __lpdays                   10041710     LIBCMT:days.obj
 0003:00001744       __days                     10041744     LIBCMT:days.obj
 0003:00001780       __NLG_Destination          10041780     LIBCMT:exsup.obj
 0003:000017a0       __p_overlay                100417a0     LIBCMT:dospawn.obj
 0003:000017a4       __coninpfh                 100417a4     LIBCMT:initcon.obj
 0003:000017a8       __confh                    100417a8     LIBCMT:initcon.obj
 0003:000018c8       __matherr_flag             100418c8     LIBCMT:matherr.obj
 0003:000018f0       __pow10pos                 100418f0     LIBCMT:constpow.obj
 0003:00001a50       __pow10neg                 10041a50     LIBCMT:constpow.obj
 0003:00001bb0       __d_inf                    10041bb0     LIBCMT:util.obj
 0003:00001bb8       __d_ind                    10041bb8     LIBCMT:util.obj
 0003:00001bc0       __d_max                    10041bc0     LIBCMT:util.obj
 0003:00001bc8       __d_min                    10041bc8     LIBCMT:util.obj
 0003:00001bd0       __d_mzero                  10041bd0     LIBCMT:util.obj
 0003:00001be0       ?dll_path@@3PADA           10041be0     a2mgr.obj
 0003:00001ce8       ?exe_path@@3PADA           10041ce8     a2mgr.obj
 0003:00001dec       ?u_pid@@3KA                10041dec     a2mgr.obj
 0003:00001df0       ?u_pid_string@@3PADA       10041df0     a2mgr.obj
 0003:00001df4       ?u_pid_string_delete@@3PADA 10041df4     a2mgr.obj
 0003:00001df8       ?id@?$codecvt@DDH@std@@2V0locale@2@A 10041df8     a2mgr.obj
 0003:00001dfc       ?c_Visible@@3_NA           10041dfc     add_info.obj
 0003:00001e00       ?cImageBG@@3PAVImage@@A    10041e00     add_info.obj
 0003:00001e04       ?cImageLeft@@3PAVImage@@A  10041e04     add_info.obj
 0003:00001e08       ?cImageMid@@3PAVImage@@A   10041e08     add_info.obj
 0003:00001e0c       ?cImageRight@@3PAVImage@@A 10041e0c     add_info.obj
 0003:00003ae8       ?__chat_history_index@@3KA 10043ae8     chat_history.obj
 0003:00003aec       ?__chat_history@@3V?$vector@V?$vector@V?$basic_string@DU?$char_traits@D@std@@V?$allocator@D@2@@std@@V?$allocator@V?$basic_string@DU?$char_traits@D@std@@V?$allocator@D@2@@std@@@2@@std@@V?$allocator@V?$vector@V?$basic_string@DU?$char_traits@D@std@@V?$allocator@D@2@@std@@V?$allocator@V?$basic_string@DU?$char_traits@D@std@@V?$allocator@D@2@@std@@@2@@std@@@2@@std@@A 10043aec     chat_history.obj
 0003:00003afc       ?AssocMutex@@3PAXA         10043afc     class_extend.obj
 0003:00003b00       ?AssocList@@3V?$map@PAXPAXU?$less@PAX@std@@V?$allocator@U?$pair@QAXPAX@std@@@2@@std@@A 10043b00     class_extend.obj
 0003:00003b0c       ?sha1_world_res@@3PAEA     10043b0c     config.obj
 0003:00003b20       ?sha1_a2mgr_dll@@3PAEA     10043b20     config.obj
 0003:00003b34       ?sha1_patch_res@@3PAEA     10043b34     config.obj
 0003:00003b48       ?sha1_allods2_exe@@3PAEA   10043b48     config.obj
 0003:00003b5c       ?sha1_uuid@@3PAEA          10043b5c     config.obj
 0003:00003b70       ?sha1_graphics_res@@3PAEA  10043b70     config.obj
 0003:00003b84       ?v_screentype@@3KA         10043b84     config.obj
 0003:00003b88       ?r_fps@@3_NA               10043b88     config.obj
 0003:00003b89       ?r_time@@3_NA              10043b89     config.obj
 0003:00003b8a       ?r_grid@@3_NA              10043b8a     config.obj
 0003:00003b8b       ?g_altchat@@3_NA           10043b8b     config.obj
 0003:00003b8c       ?z_resolution@@3KA         10043b8c     config.obj
 0003:00003b90       ?z_lang_override@@3_NA     10043b90     config.obj
 0003:00003b94       ?net_key@@3KA              10043b94     config.obj
 0003:00003b98       ?z_handle@@3KA             10043b98     config.obj
 0003:00003b9c       ?crc32_allods2_exe@@3KA    10043b9c     config.obj
 0003:00003ba0       ?crc32_a2mgr_dll@@3KA      10043ba0     config.obj
 0003:00003ba4       ?crc32_patch_res@@3KA      10043ba4     config.obj
 0003:00003ba8       ?crc32_world_res@@3KA      10043ba8     config.obj
 0003:00003bac       ?crc32_graphics_res@@3KA   10043bac     config.obj
 0003:00003bb0       ?_Stinit@?1??_Init@?$basic_filebuf@DU?$char_traits@D@std@@@std@@IAEXPAU_iobuf@@W4_Initfl@23@@Z@4HA 10043bb0     config.obj
 0003:00003bb4       ?_Psave@?$_Facetptr@V?$ctype@D@std@@@std@@2PBVfacet@locale@2@B 10043bb4     config.obj
 0003:00003bb8       ?_Psave@?$_Facetptr@V?$codecvt@DDH@std@@@std@@2PBVfacet@locale@2@B 10043bb8     config.obj
 0003:00003bbc       ?d_strings@@3V?$map@KV?$basic_string@DU?$char_traits@D@std@@V?$allocator@D@2@@std@@U?$less@K@2@V?$allocator@U?$pair@$$CBKV?$basic_string@DU?$char_traits@D@std@@V?$allocator@D@2@@std@@@std@@@2@@std@@A 10043bbc     debug.obj
 0003:00003bc8       ?Names@@3V?$map@PBDV?$basic_string@DU?$char_traits@D@std@@V?$allocator@D@2@@std@@U?$less@PBD@2@V?$allocator@U?$pair@QBDV?$basic_string@DU?$char_traits@D@std@@V?$allocator@D@2@@std@@@std@@@2@@std@@A 10043bc8     debug.obj
 0003:00003c30       ?ipng_out_primary@@3PAXA   10043c30     itempng.obj
 0003:00003c34       ?ipng_out_secondary@@3PAXA 10043c34     itempng.obj
 0003:00003c40       ?Tiles@@3PAY0O@UMapTile@@A 10043c40     landscape_renderer.obj
 0003:000069c0       ?aMainTextCredit@@3PADA    100469c0     language.obj
 0003:000069c4       ?aMainTextGlobal@@3PADA    100469c4     language.obj
 0003:000069c8       ?aMainTextHelp_t@@3PADA    100469c8     language.obj
 0003:000069cc       ?aMainTextMain_t@@3PADA    100469cc     language.obj
 0003:000069d0       ?aMainTextHeropi@@3PADA    100469d0     language.obj
 0003:000069d4       ?aMainTextStats_@@3PADA    100469d4     language.obj
 0003:000069d8       ?aMainTextSpells@@3PADA    100469d8     language.obj
 0003:000069dc       ?aMainTextSpell_@@3PADA    100469dc     language.obj
 0003:000069e0       ?aMainTextDialog@@3PADA    100469e0     language.obj
 0003:000069e4       ?aMainTextUnitna@@3PADA    100469e4     language.obj
 0003:000069e8       ?aMainTextBuildi@@3PADA    100469e8     language.obj
 0003:000069ec       ?aMainTextItemna@@3PADA    100469ec     language.obj
 0003:000069f0       ?aMainTextNpcnam@@3PADA    100469f0     language.obj
 0003:000069f4       ?aMainTextCutsce@@3PADA    100469f4     language.obj
 0003:000069f8       ?aMainTextCutpat@@3PADA    100469f8     language.obj
 0003:000069fc       ?aMainTextTunes_@@3PADA    100469fc     language.obj
 0003:00006a00       ?aPatchPatch_txt@@3PADA    10046a00     language.obj
 0003:00006a04       ?aMainTextTown_t@@3PADA    10046a04     language.obj
 0003:00006a08       ?aMainTextMissio@@3PADA    10046a08     language.obj
 0003:00006a0c       ?aMainTextQuest_@@3PADA    10046a0c     language.obj
 0003:00006a10       ?aMainTextDocsD_@@3PADA    10046a10     language.obj
 0003:00006a14       ?aMainGraphicsCh@@3PADA    10046a14     language.obj
 0003:00006a18       ?aMainGraphicsLo@@3PADA    10046a18     language.obj
 0003:00006a1c       ?aMainGraphicsFa@@3PADA    10046a1c     language.obj
 0003:00006a20       ?aMainGraphicsGl@@3PADA    10046a20     language.obj
 0003:00006a24       ?aMainGraphics_0@@3PADA    10046a24     language.obj
 0003:00006a28       ?aMainGraphics_1@@3PADA    10046a28     language.obj
 0003:00006a2c       ?aMainGraphicsMa@@3PADA    10046a2c     language.obj
 0003:00006a30       ?aMainGraphics_2@@3PADA    10046a30     language.obj
 0003:00006a34       ?aMainGraphics_3@@3PADA    10046a34     language.obj
 0003:00006a38       ?aMainGraphics_4@@3PADA    10046a38     language.obj
 0003:00006a3c       ?aMainGraphics_5@@3PADA    10046a3c     language.obj
 0003:00006a40       ?mapFileName@@3PADA        10046a40     map_location.obj
 0003:00006b40       ?newNetBuffer@@3PADA       10046b40     network_protocol.obj
 0003:00013340       ?_neI_SessionKey@@3KA      10053340     network_protocol.obj
 0003:00013344       ?_neI_SessionID@@3KA       10053344     network_protocol.obj
 0003:00013348       ?recv_lastCustom@@3_NA     10053348     network_protocol.obj
 0003:00013349       ?recv_lastIncomplete@@3_NA 10053349     network_protocol.obj
 0003:00013350       ?hhC@@3VConnection@happyhttp@@A 10053350     network_protocol_ext.obj
 0003:000133b0       ?scanrange_initialized@@3_NA 100533b0     scanrange.obj
 0003:000133b4       ?scanrange_map@@3PADA      100533b4     scanrange.obj
 0003:000133b8       ?Scanrange@@3VCScanrangeCalc@@A 100533b8     scanrange.obj
 0003:0001687c       ?delta@@3KA                1005687c     scrolling.obj
 0003:00016880       ?lastTime@@3KA             10056880     scrolling.obj
 0003:00016888       ?_LOG_FILE@@3V?$basic_ofstream@DU?$char_traits@D@std@@@std@@A 10056888     utils.obj
 0003:00016910       ?rhei@@3HA                 10056910     video_init.obj
 0003:00016914       ?rwid@@3HA                 10056914     video_init.obj
 0003:0001698c       ?_Clocptr@_Locimp@locale@std@@0PAV123@A 1005698c     libcpmt:locale0.obj
 0003:00016990       ?_Id_cnt@id@locale@std@@0HA 10056990     libcpmt:locale0.obj
 0003:00016994       ?id@?$ctype@D@std@@2V0locale@2@A 10056994     libcpmt:locale0.obj
 0003:00016998       ?id@?$codecvt@GDH@std@@2V0locale@2@A 10056998     libcpmt:locale0.obj
 0003:0001699c       ?id@?$ctype@_W@std@@2V0locale@2@A 1005699c     libcpmt:locale0.obj
 0003:000169a0       ?id@?$codecvt@_WDH@std@@2V0locale@2@A 100569a0     libcpmt:locale0.obj
 0003:000169a8       ?id@?$ctype@G@std@@2V0locale@2@A 100569a8     libcpmt:locale0.obj
 0003:000169b0       ?_Fpz@std@@3_JA            100569b0     libcpmt:ios.obj
 0003:000169b8       ?_Index@ios_base@std@@0HA  100569b8     libcpmt:ios.obj
 0003:000169f0       ?_Ptr_cin@std@@3PAV?$basic_istream@DU?$char_traits@D@std@@@1@A 100569f0     libcpmt:iosptrs.obj
 0003:000169f4       ?_Ptr_cout@std@@3PAV?$basic_ostream@DU?$char_traits@D@std@@@1@A 100569f4     libcpmt:iosptrs.obj
 0003:000169f8       ?_Ptr_cerr@std@@3PAV?$basic_ostream@DU?$char_traits@D@std@@@1@A 100569f8     libcpmt:iosptrs.obj
 0003:000169fc       ?_Ptr_clog@std@@3PAV?$basic_ostream@DU?$char_traits@D@std@@@1@A 100569fc     libcpmt:iosptrs.obj
 0003:00016a00       ?_Ptr_wcin@std@@3PAV?$basic_istream@_WU?$char_traits@_W@std@@@1@A 10056a00     libcpmt:iosptrs.obj
 0003:00016a04       ?_Ptr_wcout@std@@3PAV?$basic_ostream@_WU?$char_traits@_W@std@@@1@A 10056a04     libcpmt:iosptrs.obj
 0003:00016a08       ?_Ptr_wcerr@std@@3PAV?$basic_ostream@_WU?$char_traits@_W@std@@@1@A 10056a08     libcpmt:iosptrs.obj
 0003:00016a0c       ?_Ptr_wclog@std@@3PAV?$basic_ostream@_WU?$char_traits@_W@std@@@1@A 10056a0c     libcpmt:iosptrs.obj
 0003:00016a4c       ___pInvalidArgHandler      10056a4c     LIBCMT:invarg.obj
 0003:00016a50       ___fastflag                10056a50     LIBCMT:fpinit.obj
 0003:00016a54       __adjust_fdiv              10056a54     LIBCMT:fpinit.obj
 0003:00016a5c       __aenvptr                  10056a5c     LIBCMT:dllcrt0.obj
 0003:00016a60       __wenvptr                  10056a60     LIBCMT:dllcrt0.obj
 0003:00016a64       ___error_mode              10056a64     LIBCMT:dllcrt0.obj
 0003:00016a68       ___app_type                10056a68     LIBCMT:dllcrt0.obj
 0003:00016a70       __maxwait                  10056a70     LIBCMT:crtheap.obj
 0003:00016a74       ___locale_changed          10056a74     LIBCMT:setlocal.obj
 0003:00016a78       __umaskval                 10056a78     LIBCMT:crt0dat.obj
 0003:00016a7c       __osplatform               10056a7c     LIBCMT:crt0dat.obj
 0003:00016a80       __osver                    10056a80     LIBCMT:crt0dat.obj
 0003:00016a84       __winver                   10056a84     LIBCMT:crt0dat.obj
 0003:00016a88       __winmajor                 10056a88     LIBCMT:crt0dat.obj
 0003:00016a8c       __winminor                 10056a8c     LIBCMT:crt0dat.obj
 0003:00016a90       ___argc                    10056a90     LIBCMT:crt0dat.obj
 0003:00016a94       ___argv                    10056a94     LIBCMT:crt0dat.obj
 0003:00016a98       ___wargv                   10056a98     LIBCMT:crt0dat.obj
 0003:00016a9c       __environ                  10056a9c     LIBCMT:crt0dat.obj
 0003:00016aa0       ___initenv                 10056aa0     LIBCMT:crt0dat.obj
 0003:00016aa4       __wenviron                 10056aa4     LIBCMT:crt0dat.obj
 0003:00016aa8       ___winitenv                10056aa8     LIBCMT:crt0dat.obj
 0003:00016aac       __pgmptr                   10056aac     LIBCMT:crt0dat.obj
 0003:00016ab0       __wpgmptr                  10056ab0     LIBCMT:crt0dat.obj
 0003:00016ab4       __exitflag                 10056ab4     LIBCMT:crt0dat.obj
 0003:00016ab8       __C_Termination_Done       10056ab8     LIBCMT:crt0dat.obj
 0003:00016abc       __C_Exit_Done              10056abc     LIBCMT:crt0dat.obj
 0003:00016b80       ?_pnhHeap@@3P6AHI@ZA       10056b80     LIBCMT:handler.obj
 0003:00016b8c       _gpFlsAlloc                10056b8c     LIBCMT:tidtable.obj
 0003:00016b90       _gpFlsGetValue             10056b90     LIBCMT:tidtable.obj
 0003:00016b94       _gpFlsSetValue             10056b94     LIBCMT:tidtable.obj
 0003:00016b98       _gpFlsFree                 10056b98     LIBCMT:tidtable.obj
 0003:00016b9c       ?__pInconsistency@@3P6AXXZA 10056b9c     LIBCMT:hooks.obj
 0003:00016ec4       __crtheap                  10056ec4     LIBCMT:heapinit.obj
 0003:00017018       ___sbh_pHeaderDefer        10057018     LIBCMT:sbheap.obj
 0003:0001701c       __cflush                   1005701c     LIBCMT:_file.obj
 0003:00017334       __newmode                  10057334     LIBCMT:_newmode.obj
 0003:0001733c       ___mbulinfo                1005733c     LIBCMT:mbctype.obj
 0003:00017348       ___mbcodepage              10057348     LIBCMT:mbctype.obj
 0003:0001734c       ___ismbcodepage            1005734c     LIBCMT:mbctype.obj
 0003:00017350       ___mblcid                  10057350     LIBCMT:mbctype.obj
 0003:00017354       ___lc_handle               10057354     LIBCMT:nlsdata2.obj
 0003:0001736c       ___lc_codepage             1005736c     LIBCMT:nlsdata2.obj
 0003:00017370       ___lc_collate_cp           10057370     LIBCMT:nlsdata2.obj
 0003:00017490       ___pPurecall               10057490     LIBCMT:inithelp.obj
 0003:00017494       ___lconv_static_null       10057494     LIBCMT:lconv.obj
 0003:000174c8       ?pArgList@UnDecorator@@0PAVReplicator@@A 100574c8     LIBCMT:undname.obj
 0003:000174cc       ?pZNameList@UnDecorator@@0PAVReplicator@@A 100574cc     LIBCMT:undname.obj
 0003:000174d0       ?pTemplateArgList@UnDecorator@@0PAVReplicator@@A 100574d0     LIBCMT:undname.obj
 0003:000174d4       ?gName@UnDecorator@@0PBDB  100574d4     LIBCMT:undname.obj
 0003:000174d8       ?name@UnDecorator@@0PBDB   100574d8     LIBCMT:undname.obj
 0003:000174dc       ?outputString@UnDecorator@@0PADA 100574dc     LIBCMT:undname.obj
 0003:000174e0       ?maxStringLength@UnDecorator@@0HA 100574e0     LIBCMT:undname.obj
 0003:000174e4       ?disableFlags@UnDecorator@@0KA 100574e4     LIBCMT:undname.obj
 0003:000174e8       ?m_pGetParameter@UnDecorator@@0P6APADJ@ZA 100574e8     LIBCMT:undname.obj
 0003:000174ec       ?fExplicitTemplateParams@UnDecorator@@0_NA 100574ec     LIBCMT:undname.obj
 0003:000174ed       ?fGetTemplateArgumentList@UnDecorator@@0_NA 100574ed     LIBCMT:undname.obj
 0003:000174f4       __outputformat             100574f4     LIBCMT:outputformat.obj
 0003:000174f8       __commode                  100574f8     LIBCMT:ncommode.obj
 0003:00017518       __stdbuf                   10057518     LIBCMT:_sftbuf.obj
 0003:00017520       __fmode                    10057520     LIBCMT:txtmode.obj
 0003:00017530       __nhandle                  10057530     <common>
 0003:00017540       ___pioinfo                 10057540     <common>
 0003:00017640       ___piob                    10057640     <common>
 0003:00017660       __bufin                    10057660     <common>
 0003:00018660       __nstream                  10058660     <common>
 0003:00018664       ___sbh_cntHeaderList       10058664     <common>
 0003:00018668       ___sbh_pHeaderList         10058668     <common>
 0003:0001866c       ___sbh_threshold           1005866c     <common>
 0003:00018670       ___sbh_pHeaderScan         10058670     <common>
 0003:00018674       ___sbh_sizeHeaderList      10058674     <common>
 0003:00018678       ___sbh_indGroupDefer       10058678     <common>
 0003:0001867c       ___active_heap             1005867c     <common>
 0003:00018680       __debugger_hook_dummy      10058680     <common>
 0003:00018684       ___use_sse2_mathfcns       10058684     <common>
 0003:00018688       ___sse2_available          10058688     <common>
 0003:0001868c       ___env_initialized         1005868c     <common>
 0003:00018690       ___onexitend               10058690     <common>
 0003:00018694       ___onexitbegin             10058694     <common>
 0003:00018698       ___mbctype_initialized     10058698     <common>
 0003:0001869c       ___dyn_tls_init_callback   1005869c     <common>
 0003:000186a0       __acmdln                   100586a0     <common>

 entry point at        0001:0001d630

 Static symbols

 0001:000003fd       __catch$?_Copy@?$basic_string@DU?$char_traits@D@std@@V?$allocator@D@2@@std@@IAEXII@Z$0 100013fd f i a2mgr.obj
 0001:00000490       __catch$?_Copy@?$basic_string@DU?$char_traits@D@std@@V?$allocator@D@2@@std@@IAEXII@Z$1 10001490 f i a2mgr.obj
 0001:000025b9       __catch$??$_Uninit_copy@PAV?$basic_string@DU?$char_traits@D@std@@V?$allocator@D@2@@std@@PAV12@V?$allocator@V?$basic_string@DU?$char_traits@D@std@@V?$allocator@D@2@@std@@@2@@std@@YAPAV?$basic_string@DU?$char_traits@D@std@@V?$allocator@D@2@@0@PAV10@00AAV?$allocator@V?$basic_string@DU?$char_traits@D@std@@V?$allocator@D@2@@std@@@0@U_Nonscalar_ptr_iterator_tag@0@U_Range_checked_iterator_tag@0@@Z$0 100035b9 f i chat_history.obj
 0001:000025b9       __catch$??$_Uninit_copy@PBV?$basic_string@DU?$char_traits@D@std@@V?$allocator@D@2@@std@@PAV12@V?$allocator@V?$basic_string@DU?$char_traits@D@std@@V?$allocator@D@2@@std@@@2@@std@@YAPAV?$basic_string@DU?$char_traits@D@std@@V?$allocator@D@2@@0@PBV10@0PAV10@AAV?$allocator@V?$basic_string@DU?$char_traits@D@std@@V?$allocator@D@2@@std@@@0@U_Nonscalar_ptr_iterator_tag@0@U_Range_checked_iterator_tag@0@@Z$0 100035b9 f i chat_history.obj
 0001:0000276b       __catch$??$_Uninit_fill_n@PAV?$basic_string@DU?$char_traits@D@std@@V?$allocator@D@2@@std@@IV12@V?$allocator@V?$basic_string@DU?$char_traits@D@std@@V?$allocator@D@2@@std@@@2@@std@@YAXPAV?$basic_string@DU?$char_traits@D@std@@V?$allocator@D@2@@0@IABV10@AAV?$allocator@V?$basic_string@DU?$char_traits@D@std@@V?$allocator@D@2@@std@@@0@U_Nonscalar_ptr_iterator_tag@0@U_Range_checked_iterator_tag@0@@Z$0 1000376b f i chat_history.obj
 0001:00002894       __catch$??$_Uninit_move@PAV?$basic_string@DU?$char_traits@D@std@@V?$allocator@D@2@@std@@PAV12@V?$allocator@V?$basic_string@DU?$char_traits@D@std@@V?$allocator@D@2@@std@@@2@@std@@YAPAV?$basic_string@DU?$char_traits@D@std@@V?$allocator@D@2@@0@PAV10@00AAV?$allocator@V?$basic_string@DU?$char_traits@D@std@@V?$allocator@D@2@@std@@@0@U_Swap_move_tag@0@U_Range_checked_iterator_tag@0@@Z$0 10003894 f i chat_history.obj
 0001:00002ca9       __catch$??0?$vector@V?$basic_string@DU?$char_traits@D@std@@V?$allocator@D@2@@std@@V?$allocator@V?$basic_string@DU?$char_traits@D@std@@V?$allocator@D@2@@std@@@2@@std@@QAE@ABV01@@Z$0 10003ca9 f i chat_history.obj
 0001:00002ec5       __catch$?_Insert_n@?$vector@V?$basic_string@DU?$char_traits@D@std@@V?$allocator@D@2@@std@@V?$allocator@V?$basic_string@DU?$char_traits@D@std@@V?$allocator@D@2@@std@@@2@@std@@IAEXV?$_Vector_iterator@V?$basic_string@DU?$char_traits@D@std@@V?$allocator@D@2@@std@@V?$allocator@V?$basic_string@DU?$char_traits@D@std@@V?$allocator@D@2@@std@@@2@@2@IABV?$basic_string@DU?$char_traits@D@std@@V?$allocator@D@2@@2@@Z$0 10003ec5 f i chat_history.obj
 0001:00002f7f       __catch$?_Insert_n@?$vector@V?$basic_string@DU?$char_traits@D@std@@V?$allocator@D@2@@std@@V?$allocator@V?$basic_string@DU?$char_traits@D@std@@V?$allocator@D@2@@std@@@2@@std@@IAEXV?$_Vector_iterator@V?$basic_string@DU?$char_traits@D@std@@V?$allocator@D@2@@std@@V?$allocator@V?$basic_string@DU?$char_traits@D@std@@V?$allocator@D@2@@std@@@2@@2@IABV?$basic_string@DU?$char_traits@D@std@@V?$allocator@D@2@@2@@Z$2 10003f7f f i chat_history.obj
 0001:00003646       __catch$??$_Uninit_move@PAV?$vector@V?$basic_string@DU?$char_traits@D@std@@V?$allocator@D@2@@std@@V?$allocator@V?$basic_string@DU?$char_traits@D@std@@V?$allocator@D@2@@std@@@2@@std@@PAV12@V?$allocator@V?$vector@V?$basic_string@DU?$char_traits@D@std@@V?$allocator@D@2@@std@@V?$allocator@V?$basic_string@DU?$char_traits@D@std@@V?$allocator@D@2@@std@@@2@@std@@@2@@std@@YAPAV?$vector@V?$basic_string@DU?$char_traits@D@std@@V?$allocator@D@2@@std@@V?$allocator@V?$basic_string@DU?$char_traits@D@std@@V?$allocator@D@2@@std@@@2@@0@PAV10@00AAV?$allocator@V?$vector@V?$basic_string@DU?$char_traits@D@std@@V?$allocator@D@2@@std@@V?$allocator@V?$basic_string@DU?$char_traits@D@std@@V?$allocator@D@2@@std@@@2@@std@@@0@U_Swap_move_tag@0@U_Range_checked_iterator_tag@0@@Z$0 10004646 f i chat_history.obj
 0001:0000376b       __catch$??$_Uninit_fill_n@PAV?$vector@V?$basic_string@DU?$char_traits@D@std@@V?$allocator@D@2@@std@@V?$allocator@V?$basic_string@DU?$char_traits@D@std@@V?$allocator@D@2@@std@@@2@@std@@IV12@V?$allocator@V?$vector@V?$basic_string@DU?$char_traits@D@std@@V?$allocator@D@2@@std@@V?$allocator@V?$basic_string@DU?$char_traits@D@std@@V?$allocator@D@2@@std@@@2@@std@@@2@@std@@YAXPAV?$vector@V?$basic_string@DU?$char_traits@D@std@@V?$allocator@D@2@@std@@V?$allocator@V?$basic_string@DU?$char_traits@D@std@@V?$allocator@D@2@@std@@@2@@0@IABV10@AAV?$allocator@V?$vector@V?$basic_string@DU?$char_traits@D@std@@V?$allocator@D@2@@std@@V?$allocator@V?$basic_string@DU?$char_traits@D@std@@V?$allocator@D@2@@std@@@2@@std@@@0@U_Nonscalar_ptr_iterator_tag@0@U_Range_checked_iterator_tag@0@@Z$0 1000476b f i chat_history.obj
 0001:00003a53       __catch$?_Insert_n@?$vector@V?$vector@V?$basic_string@DU?$char_traits@D@std@@V?$allocator@D@2@@std@@V?$allocator@V?$basic_string@DU?$char_traits@D@std@@V?$allocator@D@2@@std@@@2@@std@@V?$allocator@V?$vector@V?$basic_string@DU?$char_traits@D@std@@V?$allocator@D@2@@std@@V?$allocator@V?$basic_string@DU?$char_traits@D@std@@V?$allocator@D@2@@std@@@2@@std@@@2@@std@@IAEXV?$_Vector_iterator@V?$vector@V?$basic_string@DU?$char_traits@D@std@@V?$allocator@D@2@@std@@V?$allocator@V?$basic_string@DU?$char_traits@D@std@@V?$allocator@D@2@@std@@@2@@std@@V?$allocator@V?$vector@V?$basic_string@DU?$char_traits@D@std@@V?$allocator@D@2@@std@@V?$allocator@V?$basic_string@DU?$char_traits@D@std@@V?$allocator@D@2@@std@@@2@@std@@@2@@2@IABV?$vector@V?$basic_string@DU?$char_traits@D@std@@V?$allocator@D@2@@std@@V?$allocator@V?$basic_string@DU?$char_traits@D@std@@V?$allocator@D@2@@std@@@2@@2@@Z$0 10004a53 f i chat_history.obj
 0001:00003adc       __catch$?_Insert_n@?$vector@V?$vector@V?$basic_string@DU?$char_traits@D@std@@V?$allocator@D@2@@std@@V?$allocator@V?$basic_string@DU?$char_traits@D@std@@V?$allocator@D@2@@std@@@2@@std@@V?$allocator@V?$vector@V?$basic_string@DU?$char_traits@D@std@@V?$allocator@D@2@@std@@V?$allocator@V?$basic_string@DU?$char_traits@D@std@@V?$allocator@D@2@@std@@@2@@std@@@2@@std@@IAEXV?$_Vector_iterator@V?$vector@V?$basic_string@DU?$char_traits@D@std@@V?$allocator@D@2@@std@@V?$allocator@V?$basic_string@DU?$char_traits@D@std@@V?$allocator@D@2@@std@@@2@@std@@V?$allocator@V?$vector@V?$basic_string@DU?$char_traits@D@std@@V?$allocator@D@2@@std@@V?$allocator@V?$basic_string@DU?$char_traits@D@std@@V?$allocator@D@2@@std@@@2@@std@@@2@@2@IABV?$vector@V?$basic_string@DU?$char_traits@D@std@@V?$allocator@D@2@@std@@V?$allocator@V?$basic_string@DU?$char_traits@D@std@@V?$allocator@D@2@@std@@@2@@2@@Z$2 10004adc f i chat_history.obj
 0001:00006b4c       __catch$?_Ipfx@?$basic_istream@DU?$char_traits@D@std@@@std@@QAE_N_N@Z$0 10007b4c f i config.obj
 0001:00007022       __catch$??$getline@DU?$char_traits@D@std@@V?$allocator@D@2@@std@@YAAAV?$basic_istream@DU?$char_traits@D@std@@@0@AAV10@AAV?$basic_string@DU?$char_traits@D@std@@V?$allocator@D@2@@0@D@Z$0 10008022 f i config.obj
 0001:0000945d       __catch$?_Buynode@?$_Tree@V?$_Tmap_traits@PBDV?$basic_string@DU?$char_traits@D@std@@V?$allocator@D@2@@std@@U?$less@PBD@2@V?$allocator@U?$pair@QBDV?$basic_string@DU?$char_traits@D@std@@V?$allocator@D@2@@std@@@std@@@2@$0A@@std@@@std@@IAEPAU_Node@?$_Tree_nod@V?$_Tmap_traits@PBDV?$basic_string@DU?$char_traits@D@std@@V?$allocator@D@2@@std@@U?$less@PBD@2@V?$allocator@U?$pair@QBDV?$basic_string@DU?$char_traits@D@std@@V?$allocator@D@2@@std@@@std@@@2@$0A@@std@@@2@PAU342@00ABU?$pair@QBDV?$basic_string@DU?$char_traits@D@std@@V?$allocator@D@2@@std@@@2@D@Z$0 1000a45d f i debug.obj
 0001:0000ab75       __catch$?_Read_s@?$basic_istream@DU?$char_traits@D@std@@@std@@QAEAAV12@PADIH@Z$0 1000bb75 f i File.obj
 0001:0000acd5       __catch$??0?$vector@URecord@FileArchive@@V?$allocator@URecord@FileArchive@@@std@@@std@@QAE@ABV01@@Z$0 1000bcd5 f i File.obj
 0001:0000b329       __catch$??$_Uninit_copy@PBURecord@FileArchive@@PAU12@V?$allocator@URecord@FileArchive@@@std@@@std@@YAPAURecord@FileArchive@@PBU12@0PAU12@AAV?$allocator@URecord@FileArchive@@@0@U_Nonscalar_ptr_iterator_tag@0@U_Range_checked_iterator_tag@0@@Z$0 1000c329 f i File.obj
 0001:0000b329       __catch$??$_Uninit_copy@PAURecord@FileArchive@@PAU12@V?$allocator@URecord@FileArchive@@@std@@@std@@YAPAURecord@FileArchive@@PAU12@00AAV?$allocator@URecord@FileArchive@@@0@U_Nonscalar_ptr_iterator_tag@0@U_Range_checked_iterator_tag@0@@Z$0 1000c329 f i File.obj
 0001:0000b84b       __catch$??$_Uninit_fill_n@PAURecord@FileArchive@@IU12@V?$allocator@URecord@FileArchive@@@std@@@std@@YAXPAURecord@FileArchive@@IABU12@AAV?$allocator@URecord@FileArchive@@@0@U_Nonscalar_ptr_iterator_tag@0@U_Range_checked_iterator_tag@0@@Z$0 1000c84b f i File.obj
 0001:0000bdec       __catch$?_Insert_n@?$vector@URecord@FileArchive@@V?$allocator@URecord@FileArchive@@@std@@@std@@IAEXV?$_Vector_iterator@URecord@FileArchive@@V?$allocator@URecord@FileArchive@@@std@@@2@IABURecord@FileArchive@@@Z$0 1000cdec f i File.obj
 0001:0000be97       __catch$?_Insert_n@?$vector@URecord@FileArchive@@V?$allocator@URecord@FileArchive@@@std@@@std@@IAEXV?$_Vector_iterator@URecord@FileArchive@@V?$allocator@URecord@FileArchive@@@std@@@2@IABURecord@FileArchive@@@Z$2 1000ce97 f i File.obj
 0001:000112a3       __catch$?_Osfx@?$basic_ostream@DU?$char_traits@D@std@@@std@@QAEXXZ$0 100122a3 f i serialize.obj
 0001:00012688       __catch$??$?6U?$char_traits@D@std@@@std@@YAAAV?$basic_ostream@DU?$char_traits@D@std@@@0@AAV10@PBD@Z$0 10013688 f i utils.obj
 0001:00015089       __catch$?_Buynode@?$_Tree@V?$_Tmap_traits@V?$basic_string@DU?$char_traits@D@std@@V?$allocator@D@2@@std@@V12@U?$less@V?$basic_string@DU?$char_traits@D@std@@V?$allocator@D@2@@std@@@2@V?$allocator@U?$pair@$$CBV?$basic_string@DU?$char_traits@D@std@@V?$allocator@D@2@@std@@V12@@std@@@2@$0A@@std@@@std@@IAEPAU_Node@?$_Tree_nod@V?$_Tmap_traits@V?$basic_string@DU?$char_traits@D@std@@V?$allocator@D@2@@std@@V12@U?$less@V?$basic_string@DU?$char_traits@D@std@@V?$allocator@D@2@@std@@@2@V?$allocator@U?$pair@$$CBV?$basic_string@DU?$char_traits@D@std@@V?$allocator@D@2@@std@@V12@@std@@@2@$0A@@std@@@2@PAU342@00ABU?$pair@$$CBV?$basic_string@DU?$char_traits@D@std@@V?$allocator@D@2@@std@@V12@@2@D@Z$0 10016089 f i happyhttp.obj
 0001:000170a0       ?sha1_process@@YAXPAUsha1_context@@QBE@Z 100180a0 f   sha1.obj
 0001:00018be3       _tidy_global               10019be3 f   libcpmt:locale0.obj
 0001:00019acc       ?CatchGuardHandler@@YA?AW4_EXCEPTION_DISPOSITION@@PAUEHExceptionRecord@@PAUCatchGuardRN@@PAX2@Z 1001aacc f   LIBCMT:trnsctrl.obj
 0001:00019bd1       ?TranslatorGuardHandler@@YA?AW4_EXCEPTION_DISPOSITION@@PAUEHExceptionRecord@@PAUTranslatorGuardRN@@PAX2@Z 1001abd1 f   LIBCMT:trnsctrl.obj
 0001:0001a28f       __onexit_nolock            1001b28f f   LIBCMT:onexit.obj
 0001:0001a8f6       _flsall                    1001b8f6 f   LIBCMT:fflush.obj
 0001:0001c6c4       _vscan_fn                  1001d6c4 f   LIBCMT:sscanf.obj
 0001:0001c9d0       ?strtoxl@@YAKPAUlocaleinfo_struct@@PBDPAPBDHH@Z 1001d9d0 f   LIBCMT:strtol.obj
 0001:0001d53a       ___DllMainCRTStartup       1001e53a f   LIBCMT:dllcrt0.obj
 0001:0001d783       ?__crtLCMapStringA_stat@@YAHPAUlocaleinfo_struct@@KKPBDHPADHHH@Z 1001e783 f   LIBCMT:a_map.obj
 0001:0001e2e7       __copytlocinfo_nolock      1001f2e7 f   LIBCMT:setlocal.obj
 0001:0001e30b       __updatetlocinfoEx_nolock  1001f30b f   LIBCMT:setlocal.obj
 0001:0001e3bf       _sync_legacy_variables_lk  1001f3bf f   LIBCMT:setlocal.obj
 0001:0001e5e7       __setlocale_get_all        1001f5e7 f   LIBCMT:setlocal.obj
 0001:0001e92c       __setlocale_set_cat        1001f92c f   LIBCMT:setlocal.obj
 0001:0001ec22       __setlocale_nolock         1001fc22 f   LIBCMT:setlocal.obj
 0001:0001f3ac       __initterm                 100203ac f   LIBCMT:crt0dat.obj
 0001:0001f525       _doexit                    10020525 f   LIBCMT:crt0dat.obj
 0001:0001f80d       ?ExFilterRethrow@@YAHPAU_EXCEPTION_POINTERS@@@Z 1002080d f   LIBCMT:frame.obj
 0001:0001f8de       ?IsInExceptionSpec@@YAEPAUEHExceptionRecord@@PBU_s_ESTypeList@@@Z 100208de f   LIBCMT:frame.obj
 0001:0001f957       ?CallUnexpected@@YAXPBU_s_ESTypeList@@@Z 10020957 f   LIBCMT:frame.obj
 0001:0001f988       __catch$?CallUnexpected@@YAXPBU_s_ESTypeList@@@Z$0 10020988 f   LIBCMT:frame.obj
 0001:0001f9a0       ?CallCatchBlock@@YAPAXPAUEHExceptionRecord@@PAUEHRegistrationNode@@PAU_CONTEXT@@PBU_s_FuncInfo@@PAXHK@Z 100209a0 f   LIBCMT:frame.obj
 0001:0001fd4c       ?CatchIt@@YAXPAUEHExceptionRecord@@PAUEHRegistrationNode@@PAU_CONTEXT@@PAXPBU_s_FuncInfo@@PBU_s_HandlerType@@PBU_s_CatchableType@@PBU_s_TryBlockMapEntry@@H1E@Z 10020d4c f   LIBCMT:frame.obj
 0001:0001fdb8       ?FindHandlerForForeignException@@YAXPAUEHExceptionRecord@@PAUEHRegistrationNode@@PAU_CONTEXT@@PAXPBU_s_FuncInfo@@HH1@Z 10020db8 f   LIBCMT:frame.obj
 0001:0001feaa       ?FindHandler@@YAXPAUEHExceptionRecord@@PAUEHRegistrationNode@@PAU_CONTEXT@@PAXPBU_s_FuncInfo@@EH1@Z 10020eaa f   LIBCMT:frame.obj
 0001:00020945       __tzset_nolock             10021945 f   LIBCMT:tzset.obj
 0001:00020c84       _cvtdate                   10021c84 f   LIBCMT:tzset.obj
 0001:00020e79       __isindst_nolock           10021e79 f   LIBCMT:tzset.obj
 0001:00021f90       _write_char                10022f90 f   LIBCMT:output.obj
 0001:00021fc3       _write_multi_char          10022fc3 f   LIBCMT:output.obj
 0001:00021fe7       _write_string              10022fe7 f   LIBCMT:output.obj
 0001:000229c9       _fastzero_I                100239c9 f   LIBCMT:p4_memset.obj
 0001:00024ee5       __shift                    10025ee5 f   LIBCMT:cvt.obj
 0001:00024f1e       __cftoe2_l                 10025f1e f   LIBCMT:cvt.obj
 0001:000254e8       __cftof2_l                 100264e8 f   LIBCMT:cvt.obj
 0001:00025cb2       __tsopen_nolock            10026cb2 f   LIBCMT:open.obj
 0001:000263da       __tsopen_nolock            100273da f   LIBCMT:wopen.obj
 0001:00026b03       _fastcopy_I                10027b03 f   LIBCMT:p4_memcpy.obj
 0001:00026d00       __unwind_handler4          10027d00 f   LIBCMT:exsup4.obj
 0001:00027124       _comexecmd                 10028124 f   LIBCMT:spawnve.obj
 0001:00027b4a       ?CPtoLCID@@YAHH@Z          10028b4a f   LIBCMT:mbctype.obj
 0001:00027b79       ?setSBCS@@YAXPAUthreadmbcinfostruct@@@Z 10028b79 f   LIBCMT:mbctype.obj
 0001:00027bce       ?setSBUpLow@@YAXPAUthreadmbcinfostruct@@@Z 10028bce f   LIBCMT:mbctype.obj
 0001:00027dfc       ?getSystemCP@@YAHH@Z       10028dfc f   LIBCMT:mbctype.obj
 0001:0002821d       ___check_float_string      1002921d f   LIBCMT:input.obj
 0001:00028271       __inc                      10029271 f   LIBCMT:input.obj
 0001:00028287       __whiteout                 10029287 f   LIBCMT:input.obj
 0001:00029447       _parse_cmdline             1002a447 f   LIBCMT:stdargv.obj
 0001:00029c5c       ?__crtGetStringTypeA_stat@@YAHPAUlocaleinfo_struct@@KPBDHPAGHHH@Z 1002ac5c f   LIBCMT:a_str.obj
 0001:0002a377       __get_lc_time              1002b377 f   LIBCMT:inittime.obj
 0001:0002b059       _TranslateName             1002c059 f   LIBCMT:getqloc.obj
 0001:0002b0b9       _ProcessCodePage           1002c0b9 f   LIBCMT:getqloc.obj
 0001:0002b130       _TestDefaultCountry        1002c130 f   LIBCMT:getqloc.obj
 0001:0002b14e       _LcidFromHexString         1002c14e f   LIBCMT:getqloc.obj
 0001:0002b180       _GetPrimaryLen             1002c180 f   LIBCMT:getqloc.obj
 0001:0002b19b       _CountryEnumProc@4         1002c19b f   LIBCMT:getqloc.obj
 0001:0002b231       _TestDefaultLanguage       1002c231 f   LIBCMT:getqloc.obj
 0001:0002b2a3       _LangCountryEnumProc@4     1002c2a3 f   LIBCMT:getqloc.obj
 0001:0002b473       _LanguageEnumProc@4        1002c473 f   LIBCMT:getqloc.obj
 0001:0002b532       _GetLcidFromLangCountry    1002c532 f   LIBCMT:getqloc.obj
 0001:0002b597       _GetLcidFromLanguage       1002c597 f   LIBCMT:getqloc.obj
 0001:0002d1fb       _siglookup                 1002e1fb f   LIBCMT:winsig.obj
 0001:0002d400       ___crtInitCritSecNoSpinCount@8 1002e400 f   LIBCMT:initcrit.obj
 0001:0002d544       __unwind_handler           1002e544 f   LIBCMT:exsup.obj
 0001:0002d8e5       _has_osfxsr_set            1002e8e5 f   LIBCMT:cpu_disp.obj
 0001:0002f484       ?x_ismbbtype_l@@YAHPAUlocaleinfo_struct@@IHH@Z 10030484 f   LIBCMT:ismbbyte.obj
 0001:0002f4e8       ?__crtGetLocaleInfoW_stat@@YAHPAUlocaleinfo_struct@@KKPA_WHH@Z 100304e8 f   LIBCMT:w_loc.obj
 0001:0002f65e       ?__crtGetLocaleInfoA_stat@@YAHPAUlocaleinfo_struct@@KKPADHH@Z 1003065e f   LIBCMT:a_loc.obj
 0001:0002f922       _xtoa_s@20                 10030922 f   LIBCMT:xtoas.obj
 0001:00031656       __hw_cw                    10032656 f   LIBCMT:ieee87.obj
 0001:000316e4       ___hw_cw_sse2              100326e4 f   LIBCMT:ieee87.obj
 0001:00031c67       ?__crtCompareStringA_stat@@YAHPAUlocaleinfo_struct@@KKPBDH1HH@Z 10032c67 f   LIBCMT:a_cmp.obj
 0001:00032128       _findenv                   10033128 f   LIBCMT:setenv.obj
 0001:00032175       _copy_environ              10033175 f   LIBCMT:setenv.obj
 0001:00032419       ?__crtGetStringTypeW_stat@@YAHPAUlocaleinfo_struct@@KPB_WHPAGHH@Z 10033419 f   LIBCMT:w_str.obj
 0001:00033043       ?__crtLCMapStringW_stat@@YAHPAUlocaleinfo_struct@@KKPB_WHPA_WHH@Z 10034043 f   LIBCMT:w_map.obj
 0001:00033320       __ehhandler$?_Copy@?$basic_string@DU?$char_traits@D@std@@V?$allocator@D@2@@std@@IAEXII@Z 10034320 f   a2mgr.obj
 0001:00033340       __unwindfunclet$?BASE_setCurrentDirectory1@@YGHPAD@Z$0 10034340 f   a2mgr.obj
 0001:00033348       __ehhandler$?BASE_setCurrentDirectory1@@YGHPAD@Z 10034348 f   a2mgr.obj
 0001:00033370       __unwindfunclet$?DllMain_Init@@YG_NPAUHINSTANCE__@@KPAX@Z$0 10034370 f   a2mgr.obj
 0001:0003337b       __unwindfunclet$?DllMain_Init@@YG_NPAUHINSTANCE__@@KPAX@Z$1 1003437b f   a2mgr.obj
 0001:00033386       __unwindfunclet$?DllMain_Init@@YG_NPAUHINSTANCE__@@KPAX@Z$3 10034386 f   a2mgr.obj
 0001:00033391       __unwindfunclet$?DllMain_Init@@YG_NPAUHINSTANCE__@@KPAX@Z$4 10034391 f   a2mgr.obj
 0001:0003339c       __unwindfunclet$?DllMain_Init@@YG_NPAUHINSTANCE__@@KPAX@Z$5 1003439c f   a2mgr.obj
 0001:000333a7       __unwindfunclet$?DllMain_Init@@YG_NPAUHINSTANCE__@@KPAX@Z$7 100343a7 f   a2mgr.obj
 0001:000333b2       __unwindfunclet$?DllMain_Init@@YG_NPAUHINSTANCE__@@KPAX@Z$8 100343b2 f   a2mgr.obj
 0001:000333bd       __unwindfunclet$?DllMain_Init@@YG_NPAUHINSTANCE__@@KPAX@Z$9 100343bd f   a2mgr.obj
 0001:000333c8       __unwindfunclet$?DllMain_Init@@YG_NPAUHINSTANCE__@@KPAX@Z$10 100343c8 f   a2mgr.obj
 0001:000333d3       __unwindfunclet$?DllMain_Init@@YG_NPAUHINSTANCE__@@KPAX@Z$11 100343d3 f   a2mgr.obj
 0001:000333de       __unwindfunclet$?DllMain_Init@@YG_NPAUHINSTANCE__@@KPAX@Z$13 100343de f   a2mgr.obj
 0001:000333e9       __unwindfunclet$?DllMain_Init@@YG_NPAUHINSTANCE__@@KPAX@Z$14 100343e9 f   a2mgr.obj
 0001:000333f4       __unwindfunclet$?DllMain_Init@@YG_NPAUHINSTANCE__@@KPAX@Z$16 100343f4 f   a2mgr.obj
 0001:000333ff       __unwindfunclet$?DllMain_Init@@YG_NPAUHINSTANCE__@@KPAX@Z$18 100343ff f   a2mgr.obj
 0001:0003340a       __ehhandler$?DllMain_Init@@YG_NPAUHINSTANCE__@@KPAX@Z 1003440a f   a2mgr.obj
 0001:00033440       __unwindfunclet$?FpsImpl@@YGXKPAUtagRECT@@@Z$1 10034440 f   add_info.obj
 0001:00033448       __unwindfunclet$?FpsImpl@@YGXKPAUtagRECT@@@Z$3 10034448 f   add_info.obj
 0001:00033450       __ehhandler$?FpsImpl@@YGXKPAUtagRECT@@@Z 10034450 f   add_info.obj
 0001:00033480       __unwindfunclet$??0runtime_error@std@@QAE@ABV01@@Z$0 10034480 f   chat_history.obj
 0001:00033480       __unwindfunclet$??0logic_error@std@@QAE@ABV01@@Z$0 10034480 f   chat_history.obj
 0001:00033488       __ehhandler$??0runtime_error@std@@QAE@ABV01@@Z 10034488 f   chat_history.obj
 0001:00033488       __ehhandler$??0logic_error@std@@QAE@ABV01@@Z 10034488 f   chat_history.obj
 0001:000334b0       __unwindfunclet$??$_Uninit_copy@PAV?$basic_string@DU?$char_traits@D@std@@V?$allocator@D@2@@std@@PAV12@V?$allocator@V?$basic_string@DU?$char_traits@D@std@@V?$allocator@D@2@@std@@@2@@std@@YAPAV?$basic_string@DU?$char_traits@D@std@@V?$allocator@D@2@@0@PAV10@00AAV?$allocator@V?$basic_string@DU?$char_traits@D@std@@V?$allocator@D@2@@std@@@0@U_Nonscalar_ptr_iterator_tag@0@U_Range_checked_iterator_tag@0@@Z$2 100344b0 f   chat_history.obj
 0001:000334b0       __unwindfunclet$??$_Uninit_copy@PBV?$basic_string@DU?$char_traits@D@std@@V?$allocator@D@2@@std@@PAV12@V?$allocator@V?$basic_string@DU?$char_traits@D@std@@V?$allocator@D@2@@std@@@2@@std@@YAPAV?$basic_string@DU?$char_traits@D@std@@V?$allocator@D@2@@0@PBV10@0PAV10@AAV?$allocator@V?$basic_string@DU?$char_traits@D@std@@V?$allocator@D@2@@std@@@0@U_Nonscalar_ptr_iterator_tag@0@U_Range_checked_iterator_tag@0@@Z$2 100344b0 f   chat_history.obj
 0001:000334c1       __ehhandler$??$_Uninit_copy@PAV?$basic_string@DU?$char_traits@D@std@@V?$allocator@D@2@@std@@PAV12@V?$allocator@V?$basic_string@DU?$char_traits@D@std@@V?$allocator@D@2@@std@@@2@@std@@YAPAV?$basic_string@DU?$char_traits@D@std@@V?$allocator@D@2@@0@PAV10@00AAV?$allocator@V?$basic_string@DU?$char_traits@D@std@@V?$allocator@D@2@@std@@@0@U_Nonscalar_ptr_iterator_tag@0@U_Range_checked_iterator_tag@0@@Z 100344c1 f   chat_history.obj
 0001:000334c1       __ehhandler$??$_Uninit_copy@PBV?$basic_string@DU?$char_traits@D@std@@V?$allocator@D@2@@std@@PAV12@V?$allocator@V?$basic_string@DU?$char_traits@D@std@@V?$allocator@D@2@@std@@@2@@std@@YAPAV?$basic_string@DU?$char_traits@D@std@@V?$allocator@D@2@@0@PBV10@0PAV10@AAV?$allocator@V?$basic_string@DU?$char_traits@D@std@@V?$allocator@D@2@@std@@@0@U_Nonscalar_ptr_iterator_tag@0@U_Range_checked_iterator_tag@0@@Z 100344c1 f   chat_history.obj
 0001:000334e0       __unwindfunclet$??$_Uninit_fill_n@PAV?$basic_string@DU?$char_traits@D@std@@V?$allocator@D@2@@std@@IV12@V?$allocator@V?$basic_string@DU?$char_traits@D@std@@V?$allocator@D@2@@std@@@2@@std@@YAXPAV?$basic_string@DU?$char_traits@D@std@@V?$allocator@D@2@@0@IABV10@AAV?$allocator@V?$basic_string@DU?$char_traits@D@std@@V?$allocator@D@2@@std@@@0@U_Nonscalar_ptr_iterator_tag@0@U_Range_checked_iterator_tag@0@@Z$2 100344e0 f   chat_history.obj
 0001:000334f1       __ehhandler$??$_Uninit_fill_n@PAV?$basic_string@DU?$char_traits@D@std@@V?$allocator@D@2@@std@@IV12@V?$allocator@V?$basic_string@DU?$char_traits@D@std@@V?$allocator@D@2@@std@@@2@@std@@YAXPAV?$basic_string@DU?$char_traits@D@std@@V?$allocator@D@2@@0@IABV10@AAV?$allocator@V?$basic_string@DU?$char_traits@D@std@@V?$allocator@D@2@@std@@@0@U_Nonscalar_ptr_iterator_tag@0@U_Range_checked_iterator_tag@0@@Z 100344f1 f   chat_history.obj
 0001:00033510       __unwindfunclet$??$_Uninit_move@PAV?$basic_string@DU?$char_traits@D@std@@V?$allocator@D@2@@std@@PAV12@V?$allocator@V?$basic_string@DU?$char_traits@D@std@@V?$allocator@D@2@@std@@@2@@std@@YAPAV?$basic_string@DU?$char_traits@D@std@@V?$allocator@D@2@@0@PAV10@00AAV?$allocator@V?$basic_string@DU?$char_traits@D@std@@V?$allocator@D@2@@std@@@0@U_Swap_move_tag@0@U_Range_checked_iterator_tag@0@@Z$2 10034510 f   chat_history.obj
 0001:00033518       __unwindfunclet$??$_Uninit_move@PAV?$basic_string@DU?$char_traits@D@std@@V?$allocator@D@2@@std@@PAV12@V?$allocator@V?$basic_string@DU?$char_traits@D@std@@V?$allocator@D@2@@std@@@2@@std@@YAPAV?$basic_string@DU?$char_traits@D@std@@V?$allocator@D@2@@0@PAV10@00AAV?$allocator@V?$basic_string@DU?$char_traits@D@std@@V?$allocator@D@2@@std@@@0@U_Swap_move_tag@0@U_Range_checked_iterator_tag@0@@Z$3 10034518 f   chat_history.obj
 0001:00033529       __ehhandler$??$_Uninit_move@PAV?$basic_string@DU?$char_traits@D@std@@V?$allocator@D@2@@std@@PAV12@V?$allocator@V?$basic_string@DU?$char_traits@D@std@@V?$allocator@D@2@@std@@@2@@std@@YAPAV?$basic_string@DU?$char_traits@D@std@@V?$allocator@D@2@@0@PAV10@00AAV?$allocator@V?$basic_string@DU?$char_traits@D@std@@V?$allocator@D@2@@std@@@0@U_Swap_move_tag@0@U_Range_checked_iterator_tag@0@@Z 10034529 f   chat_history.obj
 0001:00033550       __ehhandler$??0?$vector@V?$basic_string@DU?$char_traits@D@std@@V?$allocator@D@2@@std@@V?$allocator@V?$basic_string@DU?$char_traits@D@std@@V?$allocator@D@2@@std@@@2@@std@@QAE@ABV01@@Z 10034550 f   chat_history.obj
 0001:00033570       __unwindfunclet$?_Insert_n@?$vector@V?$basic_string@DU?$char_traits@D@std@@V?$allocator@D@2@@std@@V?$allocator@V?$basic_string@DU?$char_traits@D@std@@V?$allocator@D@2@@std@@@2@@std@@IAEXV?$_Vector_iterator@V?$basic_string@DU?$char_traits@D@std@@V?$allocator@D@2@@std@@V?$allocator@V?$basic_string@DU?$char_traits@D@std@@V?$allocator@D@2@@std@@@2@@2@IABV?$basic_string@DU?$char_traits@D@std@@V?$allocator@D@2@@2@@Z$4 10034570 f   chat_history.obj
 0001:00033578       __ehhandler$?_Insert_n@?$vector@V?$basic_string@DU?$char_traits@D@std@@V?$allocator@D@2@@std@@V?$allocator@V?$basic_string@DU?$char_traits@D@std@@V?$allocator@D@2@@std@@@2@@std@@IAEXV?$_Vector_iterator@V?$basic_string@DU?$char_traits@D@std@@V?$allocator@D@2@@std@@V?$allocator@V?$basic_string@DU?$char_traits@D@std@@V?$allocator@D@2@@std@@@2@@2@IABV?$basic_string@DU?$char_traits@D@std@@V?$allocator@D@2@@2@@Z 10034578 f   chat_history.obj
 0001:000335a0       __unwindfunclet$?getStringLastT@@YG?AV?$basic_string@DU?$char_traits@D@std@@V?$allocator@D@2@@std@@XZ$0 100345a0 f   chat_history.obj
 0001:000335a8       __unwindfunclet$?getStringLastT@@YG?AV?$basic_string@DU?$char_traits@D@std@@V?$allocator@D@2@@std@@XZ$1 100345a8 f   chat_history.obj
 0001:000335c1       __ehhandler$?getStringLastT@@YG?AV?$basic_string@DU?$char_traits@D@std@@V?$allocator@D@2@@std@@XZ 100345c1 f   chat_history.obj
 0001:000335e0       __unwindfunclet$?getStringLast@@YGXPAPAD@Z$0 100345e0 f   chat_history.obj
 0001:000335e0       __unwindfunclet$?Basename@@YA?AV?$basic_string@DU?$char_traits@D@std@@V?$allocator@D@2@@std@@ABV12@@Z$0 100345e0 f   chat_history.obj
 0001:000335e0       __unwindfunclet$?NETPROTO_hhStartReply@@YAXPBVResponse@happyhttp@@PAX@Z$0 100345e0 f   chat_history.obj
 0001:000335e0       __unwindfunclet$?Dirname@@YA?AV?$basic_string@DU?$char_traits@D@std@@V?$allocator@D@2@@std@@ABV12@@Z$0 100345e0 f   chat_history.obj
 0001:000335e8       __ehhandler$?Basename@@YA?AV?$basic_string@DU?$char_traits@D@std@@V?$allocator@D@2@@std@@ABV12@@Z 100345e8 f   chat_history.obj
 0001:000335e8       __ehhandler$?getStringLast@@YGXPAPAD@Z 100345e8 f   chat_history.obj
 0001:000335e8       __ehhandler$?Dirname@@YA?AV?$basic_string@DU?$char_traits@D@std@@V?$allocator@D@2@@std@@ABV12@@Z 100345e8 f   chat_history.obj
 0001:000335e8       __ehhandler$?NETPROTO_hhStartReply@@YAXPBVResponse@happyhttp@@PAX@Z 100345e8 f   chat_history.obj
 0001:00033610       __unwindfunclet$??$_Uninit_move@PAV?$vector@V?$basic_string@DU?$char_traits@D@std@@V?$allocator@D@2@@std@@V?$allocator@V?$basic_string@DU?$char_traits@D@std@@V?$allocator@D@2@@std@@@2@@std@@PAV12@V?$allocator@V?$vector@V?$basic_string@DU?$char_traits@D@std@@V?$allocator@D@2@@std@@V?$allocator@V?$basic_string@DU?$char_traits@D@std@@V?$allocator@D@2@@std@@@2@@std@@@2@@std@@YAPAV?$vector@V?$basic_string@DU?$char_traits@D@std@@V?$allocator@D@2@@std@@V?$allocator@V?$basic_string@DU?$char_traits@D@std@@V?$allocator@D@2@@std@@@2@@0@PAV10@00AAV?$allocator@V?$vector@V?$basic_string@DU?$char_traits@D@std@@V?$allocator@D@2@@std@@V?$allocator@V?$basic_string@DU?$char_traits@D@std@@V?$allocator@D@2@@std@@@2@@std@@@0@U_Swap_move_tag@0@U_Range_checked_iterator_tag@0@@Z$2 10034610 f   chat_history.obj
 0001:00033618       __unwindfunclet$??$_Uninit_move@PAV?$vector@V?$basic_string@DU?$char_traits@D@std@@V?$allocator@D@2@@std@@V?$allocator@V?$basic_string@DU?$char_traits@D@std@@V?$allocator@D@2@@std@@@2@@std@@PAV12@V?$allocator@V?$vector@V?$basic_string@DU?$char_traits@D@std@@V?$allocator@D@2@@std@@V?$allocator@V?$basic_string@DU?$char_traits@D@std@@V?$allocator@D@2@@std@@@2@@std@@@2@@std@@YAPAV?$vector@V?$basic_string@DU?$char_traits@D@std@@V?$allocator@D@2@@std@@V?$allocator@V?$basic_string@DU?$char_traits@D@std@@V?$allocator@D@2@@std@@@2@@0@PAV10@00AAV?$allocator@V?$vector@V?$basic_string@DU?$char_traits@D@std@@V?$allocator@D@2@@std@@V?$allocator@V?$basic_string@DU?$char_traits@D@std@@V?$allocator@D@2@@std@@@2@@std@@@0@U_Swap_move_tag@0@U_Range_checked_iterator_tag@0@@Z$3 10034618 f   chat_history.obj
 0001:00033629       __ehhandler$??$_Uninit_move@PAV?$vector@V?$basic_string@DU?$char_traits@D@std@@V?$allocator@D@2@@std@@V?$allocator@V?$basic_string@DU?$char_traits@D@std@@V?$allocator@D@2@@std@@@2@@std@@PAV12@V?$allocator@V?$vector@V?$basic_string@DU?$char_traits@D@std@@V?$allocator@D@2@@std@@V?$allocator@V?$basic_string@DU?$char_traits@D@std@@V?$allocator@D@2@@std@@@2@@std@@@2@@std@@YAPAV?$vector@V?$basic_string@DU?$char_traits@D@std@@V?$allocator@D@2@@std@@V?$allocator@V?$basic_string@DU?$char_traits@D@std@@V?$allocator@D@2@@std@@@2@@0@PAV10@00AAV?$allocator@V?$vector@V?$basic_string@DU?$char_traits@D@std@@V?$allocator@D@2@@std@@V?$allocator@V?$basic_string@DU?$char_traits@D@std@@V?$allocator@D@2@@std@@@2@@std@@@0@U_Swap_move_tag@0@U_Range_checked_iterator_tag@0@@Z 10034629 f   chat_history.obj
 0001:00033650       __unwindfunclet$??$_Uninit_fill_n@PAV?$vector@V?$basic_string@DU?$char_traits@D@std@@V?$allocator@D@2@@std@@V?$allocator@V?$basic_string@DU?$char_traits@D@std@@V?$allocator@D@2@@std@@@2@@std@@IV12@V?$allocator@V?$vector@V?$basic_string@DU?$char_traits@D@std@@V?$allocator@D@2@@std@@V?$allocator@V?$basic_string@DU?$char_traits@D@std@@V?$allocator@D@2@@std@@@2@@std@@@2@@std@@YAXPAV?$vector@V?$basic_string@DU?$char_traits@D@std@@V?$allocator@D@2@@std@@V?$allocator@V?$basic_string@DU?$char_traits@D@std@@V?$allocator@D@2@@std@@@2@@0@IABV10@AAV?$allocator@V?$vector@V?$basic_string@DU?$char_traits@D@std@@V?$allocator@D@2@@std@@V?$allocator@V?$basic_string@DU?$char_traits@D@std@@V?$allocator@D@2@@std@@@2@@std@@@0@U_Nonscalar_ptr_iterator_tag@0@U_Range_checked_iterator_tag@0@@Z$2 10034650 f   chat_history.obj
 0001:00033661       __ehhandler$??$_Uninit_fill_n@PAV?$vector@V?$basic_string@DU?$char_traits@D@std@@V?$allocator@D@2@@std@@V?$allocator@V?$basic_string@DU?$char_traits@D@std@@V?$allocator@D@2@@std@@@2@@std@@IV12@V?$allocator@V?$vector@V?$basic_string@DU?$char_traits@D@std@@V?$allocator@D@2@@std@@V?$allocator@V?$basic_string@DU?$char_traits@D@std@@V?$allocator@D@2@@std@@@2@@std@@@2@@std@@YAXPAV?$vector@V?$basic_string@DU?$char_traits@D@std@@V?$allocator@D@2@@std@@V?$allocator@V?$basic_string@DU?$char_traits@D@std@@V?$allocator@D@2@@std@@@2@@0@IABV10@AAV?$allocator@V?$vector@V?$basic_string@DU?$char_traits@D@std@@V?$allocator@D@2@@std@@V?$allocator@V?$basic_string@DU?$char_traits@D@std@@V?$allocator@D@2@@std@@@2@@std@@@0@U_Nonscalar_ptr_iterator_tag@0@U_Range_checked_iterator_tag@0@@Z 10034661 f   chat_history.obj
 0001:00033680       __unwindfunclet$?_Insert_n@?$vector@V?$vector@V?$basic_string@DU?$char_traits@D@std@@V?$allocator@D@2@@std@@V?$allocator@V?$basic_string@DU?$char_traits@D@std@@V?$allocator@D@2@@std@@@2@@std@@V?$allocator@V?$vector@V?$basic_string@DU?$char_traits@D@std@@V?$allocator@D@2@@std@@V?$allocator@V?$basic_string@DU?$char_traits@D@std@@V?$allocator@D@2@@std@@@2@@std@@@2@@std@@IAEXV?$_Vector_iterator@V?$vector@V?$basic_string@DU?$char_traits@D@std@@V?$allocator@D@2@@std@@V?$allocator@V?$basic_string@DU?$char_traits@D@std@@V?$allocator@D@2@@std@@@2@@std@@V?$allocator@V?$vector@V?$basic_string@DU?$char_traits@D@std@@V?$allocator@D@2@@std@@V?$allocator@V?$basic_string@DU?$char_traits@D@std@@V?$allocator@D@2@@std@@@2@@std@@@2@@2@IABV?$vector@V?$basic_string@DU?$char_traits@D@std@@V?$allocator@D@2@@std@@V?$allocator@V?$basic_string@DU?$char_traits@D@std@@V?$allocator@D@2@@std@@@2@@2@@Z$4 10034680 f   chat_history.obj
 0001:00033688       __ehhandler$?_Insert_n@?$vector@V?$vector@V?$basic_string@DU?$char_traits@D@std@@V?$allocator@D@2@@std@@V?$allocator@V?$basic_string@DU?$char_traits@D@std@@V?$allocator@D@2@@std@@@2@@std@@V?$allocator@V?$vector@V?$basic_string@DU?$char_traits@D@std@@V?$allocator@D@2@@std@@V?$allocator@V?$basic_string@DU?$char_traits@D@std@@V?$allocator@D@2@@std@@@2@@std@@@2@@std@@IAEXV?$_Vector_iterator@V?$vector@V?$basic_string@DU?$char_traits@D@std@@V?$allocator@D@2@@std@@V?$allocator@V?$basic_string@DU?$char_traits@D@std@@V?$allocator@D@2@@std@@@2@@std@@V?$allocator@V?$vector@V?$basic_string@DU?$char_traits@D@std@@V?$allocator@D@2@@std@@V?$allocator@V?$basic_string@DU?$char_traits@D@std@@V?$allocator@D@2@@std@@@2@@std@@@2@@2@IABV?$vector@V?$basic_string@DU?$char_traits@D@std@@V?$allocator@D@2@@std@@V?$allocator@V?$basic_string@DU?$char_traits@D@std@@V?$allocator@D@2@@std@@@2@@2@@Z 10034688 f   chat_history.obj
 0001:000336b0       __unwindfunclet$?addString@@YAXPAD@Z$0 100346b0 f   chat_history.obj
 0001:000336b8       __unwindfunclet$?addString@@YAXPAD@Z$1 100346b8 f   chat_history.obj
 0001:000336c0       __ehhandler$?addString@@YAXPAD@Z 100346c0 f   chat_history.obj
 0001:000336e0       __unwindfunclet$??0?$basic_streambuf@DU?$char_traits@D@std@@@std@@IAE@XZ$0 100346e0 f   config.obj
 0001:000336eb       __ehhandler$??0?$basic_streambuf@DU?$char_traits@D@std@@@std@@IAE@XZ 100346eb f   config.obj
 0001:00033710       __unwindfunclet$??1_Locinfo@std@@QAE@XZ$0 10034710 f   config.obj
 0001:00033718       __unwindfunclet$??1_Locinfo@std@@QAE@XZ$1 10034718 f   config.obj
 0001:00033723       __unwindfunclet$??1_Locinfo@std@@QAE@XZ$2 10034723 f   config.obj
 0001:0003372e       __unwindfunclet$??1_Locinfo@std@@QAE@XZ$3 1003472e f   config.obj
 0001:00033739       __unwindfunclet$??1_Locinfo@std@@QAE@XZ$4 10034739 f   config.obj
 0001:00033744       __ehhandler$??1_Locinfo@std@@QAE@XZ 10034744 f   config.obj
 0001:00033760       __unwindfunclet$?uflow@?$basic_filebuf@DU?$char_traits@D@std@@@std@@MAEHXZ$0 10034760 f   config.obj
 0001:00033768       __ehhandler$?uflow@?$basic_filebuf@DU?$char_traits@D@std@@@std@@MAEHXZ 10034768 f   config.obj
 0001:00033790       __unwindfunclet$?_Endwrite@?$basic_filebuf@DU?$char_traits@D@std@@@std@@IAE_NXZ$0 10034790 f   config.obj
 0001:00033798       __ehhandler$?_Endwrite@?$basic_filebuf@DU?$char_traits@D@std@@@std@@IAE_NXZ 10034798 f   config.obj
 0001:000337c0       __unwindfunclet$??0logic_error@std@@QAE@ABV?$basic_string@DU?$char_traits@D@std@@V?$allocator@D@2@@1@@Z$0 100347c0 f   config.obj
 0001:000337c0       __unwindfunclet$??0runtime_error@std@@QAE@ABV?$basic_string@DU?$char_traits@D@std@@V?$allocator@D@2@@1@@Z$0 100347c0 f   config.obj
 0001:000337c8       __ehhandler$??0runtime_error@std@@QAE@ABV?$basic_string@DU?$char_traits@D@std@@V?$allocator@D@2@@1@@Z 100347c8 f   config.obj
 0001:000337c8       __ehhandler$??0logic_error@std@@QAE@ABV?$basic_string@DU?$char_traits@D@std@@V?$allocator@D@2@@1@@Z 100347c8 f   config.obj
 0001:000337f0       __unwindfunclet$?overflow@?$basic_filebuf@DU?$char_traits@D@std@@@std@@MAEHH@Z$0 100347f0 f   config.obj
 0001:000337f0       __unwindfunclet$?getheader@Response@happyhttp@@QBEPBDPBD@Z$0 100347f0 f   config.obj
 0001:000337f8       __ehhandler$?overflow@?$basic_filebuf@DU?$char_traits@D@std@@@std@@MAEHH@Z 100347f8 f   config.obj
 0001:000337f8       __ehhandler$?getheader@Response@happyhttp@@QBEPBDPBD@Z 100347f8 f   config.obj
 0001:00033820       __unwindfunclet$??0_Locinfo@std@@QAE@PBD@Z$0 10034820 f   config.obj
 0001:00033828       __unwindfunclet$??0_Locinfo@std@@QAE@PBD@Z$1 10034828 f   config.obj
 0001:00033833       __unwindfunclet$??0_Locinfo@std@@QAE@PBD@Z$2 10034833 f   config.obj
 0001:0003383e       __unwindfunclet$??0_Locinfo@std@@QAE@PBD@Z$3 1003483e f   config.obj
 0001:00033849       __unwindfunclet$??0_Locinfo@std@@QAE@PBD@Z$4 10034849 f   config.obj
 0001:00033854       __unwindfunclet$??0_Locinfo@std@@QAE@PBD@Z$5 10034854 f   config.obj
 0001:0003385c       __ehhandler$??0_Locinfo@std@@QAE@PBD@Z 1003485c f   config.obj
 0001:00033880       __unwindfunclet$??0?$ctype@D@std@@QAE@PBF_NI@Z$0 10034880 f   config.obj
 0001:0003388b       __ehhandler$??0?$ctype@D@std@@QAE@PBF_NI@Z 1003488b f   config.obj
 0001:000338c0       __unwindfunclet$?_Getcat@?$codecvt@DDH@std@@SAIPAPBVfacet@locale@2@@Z$0 100348c0 f   config.obj
 0001:000338c0       __unwindfunclet$?_Getcat@?$ctype@D@std@@SAIPAPBVfacet@locale@2@@Z$0 100348c0 f   config.obj
 0001:000338cb       __ehhandler$?_Getcat@?$codecvt@DDH@std@@SAIPAPBVfacet@locale@2@@Z 100348cb f   config.obj
 0001:000338cb       __ehhandler$?_Getcat@?$ctype@D@std@@SAIPAPBVfacet@locale@2@@Z 100348cb f   config.obj
 0001:000338f0       __unwindfunclet$?clear@ios_base@std@@QAEXH_N@Z$0 100348f0 f   config.obj
 0001:000338f8       __unwindfunclet$?clear@ios_base@std@@QAEXH_N@Z$1 100348f8 f   config.obj
 0001:00033900       __unwindfunclet$?clear@ios_base@std@@QAEXH_N@Z$2 10034900 f   config.obj
 0001:00033908       __ehhandler$?clear@ios_base@std@@QAEXH_N@Z 10034908 f   config.obj
 0001:00033930       __unwindfunclet$??1?$basic_filebuf@DU?$char_traits@D@std@@@std@@UAE@XZ$0 10034930 f   config.obj
 0001:00033938       __ehhandler$??1?$basic_filebuf@DU?$char_traits@D@std@@@std@@UAE@XZ 10034938 f   config.obj
 0001:00033960       __unwindfunclet$??1?$basic_ifstream@DU?$char_traits@D@std@@@std@@UAE@XZ$0 10034960 f   config.obj
 0001:0003396b       __ehhandler$??1?$basic_ifstream@DU?$char_traits@D@std@@@std@@UAE@XZ 1003496b f   config.obj
 0001:00033990       __unwindfunclet$??$use_facet@V?$ctype@D@std@@@std@@YAABV?$ctype@D@0@ABVlocale@0@@Z$0 10034990 f   config.obj
 0001:00033990       __unwindfunclet$??$use_facet@V?$codecvt@DDH@std@@@std@@YAABV?$codecvt@DDH@0@ABVlocale@0@@Z$0 10034990 f   config.obj
 0001:00033998       __ehhandler$??$use_facet@V?$codecvt@DDH@std@@@std@@YAABV?$codecvt@DDH@0@ABVlocale@0@@Z 10034998 f   config.obj
 0001:00033998       __ehhandler$??$use_facet@V?$ctype@D@std@@@std@@YAABV?$ctype@D@0@ABVlocale@0@@Z 10034998 f   config.obj
 0001:000339c0       __unwindfunclet$??0?$codecvt@DDH@std@@QAE@I@Z$0 100349c0 f   config.obj
 0001:000339cb       __ehhandler$??0?$codecvt@DDH@std@@QAE@I@Z 100349cb f   config.obj
 0001:00033a00       __unwindfunclet$?widen@?$basic_ios@DU?$char_traits@D@std@@@std@@QBEDD@Z$0 10034a00 f   config.obj
 0001:00033a08       __ehhandler$?widen@?$basic_ios@DU?$char_traits@D@std@@@std@@QBEDD@Z 10034a08 f   config.obj
 0001:00033a30       __unwindfunclet$?_Ipfx@?$basic_istream@DU?$char_traits@D@std@@@std@@QAE_N_N@Z$2 10034a30 f   config.obj
 0001:00033a38       __ehhandler$?_Ipfx@?$basic_istream@DU?$char_traits@D@std@@@std@@QAE_N_N@Z 10034a38 f   config.obj
 0001:00033a60       __unwindfunclet$?open@?$basic_filebuf@DU?$char_traits@D@std@@@std@@QAEPAV12@PBDHH@Z$0 10034a60 f   config.obj
 0001:00033a68       __ehhandler$?open@?$basic_filebuf@DU?$char_traits@D@std@@@std@@QAEPAV12@PBDHH@Z 10034a68 f   config.obj
 0001:00033a90       __unwindfunclet$??$getline@DU?$char_traits@D@std@@V?$allocator@D@2@@std@@YAAAV?$basic_istream@DU?$char_traits@D@std@@@0@AAV10@AAV?$basic_string@DU?$char_traits@D@std@@V?$allocator@D@2@@0@D@Z$2 10034a90 f   config.obj
 0001:00033a98       __ehhandler$??$getline@DU?$char_traits@D@std@@V?$allocator@D@2@@std@@YAAAV?$basic_istream@DU?$char_traits@D@std@@@0@AAV10@AAV?$basic_string@DU?$char_traits@D@std@@V?$allocator@D@2@@0@D@Z 10034a98 f   config.obj
 0001:00033ac0       __unwindfunclet$??0?$basic_ifstream@DU?$char_traits@D@std@@@std@@QAE@XZ$0 10034ac0 f   config.obj
 0001:00033adc       __unwindfunclet$??0?$basic_ifstream@DU?$char_traits@D@std@@@std@@QAE@XZ$1 10034adc f   config.obj
 0001:00033ae7       __ehhandler$??0?$basic_ifstream@DU?$char_traits@D@std@@@std@@QAE@XZ 10034ae7 f   config.obj
 0001:00033b10       __unwindfunclet$?ParseConfig2x@@YAXAAV?$basic_ifstream@DU?$char_traits@D@std@@@std@@@Z$0 10034b10 f   config.obj
 0001:00033b18       __unwindfunclet$?ParseConfig2x@@YAXAAV?$basic_ifstream@DU?$char_traits@D@std@@@std@@@Z$1 10034b18 f   config.obj
 0001:00033b20       __unwindfunclet$?ParseConfig2x@@YAXAAV?$basic_ifstream@DU?$char_traits@D@std@@@std@@@Z$3 10034b20 f   config.obj
 0001:00033b28       __unwindfunclet$?ParseConfig2x@@YAXAAV?$basic_ifstream@DU?$char_traits@D@std@@@std@@@Z$4 10034b28 f   config.obj
 0001:00033b30       __unwindfunclet$?ParseConfig2x@@YAXAAV?$basic_ifstream@DU?$char_traits@D@std@@@std@@@Z$5 10034b30 f   config.obj
 0001:00033b38       __unwindfunclet$?ParseConfig2x@@YAXAAV?$basic_ifstream@DU?$char_traits@D@std@@@std@@@Z$6 10034b38 f   config.obj
 0001:00033b40       __unwindfunclet$?ParseConfig2x@@YAXAAV?$basic_ifstream@DU?$char_traits@D@std@@@std@@@Z$7 10034b40 f   config.obj
 0001:00033b48       __ehhandler$?ParseConfig2x@@YAXAAV?$basic_ifstream@DU?$char_traits@D@std@@@std@@@Z 10034b48 f   config.obj
 0001:00033b80       __unwindfunclet$?ParseConfig1x@@YAXAAV?$basic_ifstream@DU?$char_traits@D@std@@@std@@@Z$0 10034b80 f   config.obj
 0001:00033b88       __unwindfunclet$?ParseConfig1x@@YAXAAV?$basic_ifstream@DU?$char_traits@D@std@@@std@@@Z$1 10034b88 f   config.obj
 0001:00033b90       __unwindfunclet$?ParseConfig1x@@YAXAAV?$basic_ifstream@DU?$char_traits@D@std@@@std@@@Z$2 10034b90 f   config.obj
 0001:00033b98       __unwindfunclet$?ParseConfig1x@@YAXAAV?$basic_ifstream@DU?$char_traits@D@std@@@std@@@Z$3 10034b98 f   config.obj
 0001:00033ba0       __unwindfunclet$?ParseConfig1x@@YAXAAV?$basic_ifstream@DU?$char_traits@D@std@@@std@@@Z$4 10034ba0 f   config.obj
 0001:00033ba8       __unwindfunclet$?ParseConfig1x@@YAXAAV?$basic_ifstream@DU?$char_traits@D@std@@@std@@@Z$5 10034ba8 f   config.obj
 0001:00033bb0       __ehhandler$?ParseConfig1x@@YAXAAV?$basic_ifstream@DU?$char_traits@D@std@@@std@@@Z 10034bb0 f   config.obj
 0001:00033be0       __unwindfunclet$?_disp256@@YGXPBDK@Z$0 10034be0 f   debug.obj
 0001:00033be8       __ehhandler$?_disp256@@YGXPBDK@Z 10034be8 f   debug.obj
 0001:00033c10       __unwindfunclet$?_Buynode@?$_Tree@V?$_Tmap_traits@PBDV?$basic_string@DU?$char_traits@D@std@@V?$allocator@D@2@@std@@U?$less@PBD@2@V?$allocator@U?$pair@QBDV?$basic_string@DU?$char_traits@D@std@@V?$allocator@D@2@@std@@@std@@@2@$0A@@std@@@std@@IAEPAU_Node@?$_Tree_nod@V?$_Tmap_traits@PBDV?$basic_string@DU?$char_traits@D@std@@V?$allocator@D@2@@std@@U?$less@PBD@2@V?$allocator@U?$pair@QBDV?$basic_string@DU?$char_traits@D@std@@V?$allocator@D@2@@std@@@std@@@2@$0A@@std@@@2@PAU342@00ABU?$pair@QBDV?$basic_string@DU?$char_traits@D@std@@V?$allocator@D@2@@std@@@2@D@Z$2 10034c10 f   debug.obj
 0001:00033c21       __ehhandler$?_Buynode@?$_Tree@V?$_Tmap_traits@PBDV?$basic_string@DU?$char_traits@D@std@@V?$allocator@D@2@@std@@U?$less@PBD@2@V?$allocator@U?$pair@QBDV?$basic_string@DU?$char_traits@D@std@@V?$allocator@D@2@@std@@@std@@@2@$0A@@std@@@std@@IAEPAU_Node@?$_Tree_nod@V?$_Tmap_traits@PBDV?$basic_string@DU?$char_traits@D@std@@V?$allocator@D@2@@std@@U?$less@PBD@2@V?$allocator@U?$pair@QBDV?$basic_string@DU?$char_traits@D@std@@V?$allocator@D@2@@std@@@std@@@2@$0A@@std@@@2@PAU342@00ABU?$pair@QBDV?$basic_string@DU?$char_traits@D@std@@V?$allocator@D@2@@std@@@2@D@Z 10034c21 f   debug.obj
 0001:00033c40       __unwindfunclet$??A?$map@PBDV?$basic_string@DU?$char_traits@D@std@@V?$allocator@D@2@@std@@U?$less@PBD@2@V?$allocator@U?$pair@QBDV?$basic_string@DU?$char_traits@D@std@@V?$allocator@D@2@@std@@@std@@@2@@std@@QAEAAV?$basic_string@DU?$char_traits@D@std@@V?$allocator@D@2@@1@ABQBD@Z$0 10034c40 f   debug.obj
 0001:00033c48       __unwindfunclet$??A?$map@PBDV?$basic_string@DU?$char_traits@D@std@@V?$allocator@D@2@@std@@U?$less@PBD@2@V?$allocator@U?$pair@QBDV?$basic_string@DU?$char_traits@D@std@@V?$allocator@D@2@@std@@@std@@@2@@std@@QAEAAV?$basic_string@DU?$char_traits@D@std@@V?$allocator@D@2@@1@ABQBD@Z$1 10034c48 f   debug.obj
 0001:00033c50       __ehhandler$??A?$map@PBDV?$basic_string@DU?$char_traits@D@std@@V?$allocator@D@2@@std@@U?$less@PBD@2@V?$allocator@U?$pair@QBDV?$basic_string@DU?$char_traits@D@std@@V?$allocator@D@2@@std@@@std@@@2@@std@@QAEAAV?$basic_string@DU?$char_traits@D@std@@V?$allocator@D@2@@1@ABQBD@Z 10034c50 f   debug.obj
 0001:00033c70       __unwindfunclet$??1FileArchive@@QAE@XZ$0 10034c70 f   File.obj
 0001:00033c78       __unwindfunclet$??1FileArchive@@QAE@XZ$1 10034c78 f   File.obj
 0001:00033c83       __ehhandler$??1FileArchive@@QAE@XZ 10034c83 f   File.obj
 0001:00033ca0       __unwindfunclet$??0Record@FileArchive@@QAE@XZ$0 10034ca0 f   File.obj
 0001:00033cab       __unwindfunclet$??0Record@FileArchive@@QAE@XZ$1 10034cab f   File.obj
 0001:00033cb6       __unwindfunclet$??0Record@FileArchive@@QAE@XZ$2 10034cb6 f   File.obj
 0001:00033cc1       __ehhandler$??0Record@FileArchive@@QAE@XZ 10034cc1 f   File.obj
 0001:00033ce0       __unwindfunclet$??1Record@FileArchive@@QAE@XZ$0 10034ce0 f   File.obj
 0001:00033ce0       __unwindfunclet$??1File@@QAE@XZ$0 10034ce0 f   File.obj
 0001:00033ceb       __ehhandler$??1Record@FileArchive@@QAE@XZ 10034ceb f   File.obj
 0001:00033ceb       __ehhandler$??1File@@QAE@XZ 10034ceb f   File.obj
 0001:00033d10       __unwindfunclet$?_Read_s@?$basic_istream@DU?$char_traits@D@std@@@std@@QAEAAV12@PADIH@Z$2 10034d10 f   File.obj
 0001:00033d18       __ehhandler$?_Read_s@?$basic_istream@DU?$char_traits@D@std@@@std@@QAEAAV12@PADIH@Z 10034d18 f   File.obj
 0001:00033d40       __ehhandler$??0?$vector@URecord@FileArchive@@V?$allocator@URecord@FileArchive@@@std@@@std@@QAE@ABV01@@Z 10034d40 f   File.obj
 0001:00033d60       __unwindfunclet$??0Record@FileArchive@@QAE@ABU01@@Z$0 10034d60 f   File.obj
 0001:00033d6b       __unwindfunclet$??0Record@FileArchive@@QAE@ABU01@@Z$1 10034d6b f   File.obj
 0001:00033d76       __ehhandler$??0Record@FileArchive@@QAE@ABU01@@Z 10034d76 f   File.obj
 0001:00033da0       __unwindfunclet$?GetRecord@FileArchive@@QAEABURecord@1@V?$basic_string@DU?$char_traits@D@std@@V?$allocator@D@2@@std@@@Z$0 10034da0 f   File.obj
 0001:00033da8       __unwindfunclet$?GetRecord@FileArchive@@QAEABURecord@1@V?$basic_string@DU?$char_traits@D@std@@V?$allocator@D@2@@std@@@Z$1 10034da8 f   File.obj
 0001:00033db6       __unwindfunclet$?GetRecord@FileArchive@@QAEABURecord@1@V?$basic_string@DU?$char_traits@D@std@@V?$allocator@D@2@@std@@@Z$2 10034db6 f   File.obj
 0001:00033dbe       __unwindfunclet$?GetRecord@FileArchive@@QAEABURecord@1@V?$basic_string@DU?$char_traits@D@std@@V?$allocator@D@2@@std@@@Z$3 10034dbe f   File.obj
 0001:00033dc6       __unwindfunclet$?GetRecord@FileArchive@@QAEABURecord@1@V?$basic_string@DU?$char_traits@D@std@@V?$allocator@D@2@@std@@@Z$4 10034dc6 f   File.obj
 0001:00033dce       __unwindfunclet$?GetRecord@FileArchive@@QAEABURecord@1@V?$basic_string@DU?$char_traits@D@std@@V?$allocator@D@2@@std@@@Z$5 10034dce f   File.obj
 0001:00033dd6       __unwindfunclet$?GetRecord@FileArchive@@QAEABURecord@1@V?$basic_string@DU?$char_traits@D@std@@V?$allocator@D@2@@std@@@Z$6 10034dd6 f   File.obj
 0001:00033dde       __ehhandler$?GetRecord@FileArchive@@QAEABURecord@1@V?$basic_string@DU?$char_traits@D@std@@V?$allocator@D@2@@std@@@Z 10034dde f   File.obj
 0001:00033e00       __unwindfunclet$??$_Uninit_copy@PBURecord@FileArchive@@PAU12@V?$allocator@URecord@FileArchive@@@std@@@std@@YAPAURecord@FileArchive@@PBU12@0PAU12@AAV?$allocator@URecord@FileArchive@@@0@U_Nonscalar_ptr_iterator_tag@0@U_Range_checked_iterator_tag@0@@Z$2 10034e00 f   File.obj
 0001:00033e00       __unwindfunclet$??$_Uninit_copy@PAURecord@FileArchive@@PAU12@V?$allocator@URecord@FileArchive@@@std@@@std@@YAPAURecord@FileArchive@@PAU12@00AAV?$allocator@URecord@FileArchive@@@0@U_Nonscalar_ptr_iterator_tag@0@U_Range_checked_iterator_tag@0@@Z$2 10034e00 f   File.obj
 0001:00033e11       __ehhandler$??$_Uninit_copy@PBURecord@FileArchive@@PAU12@V?$allocator@URecord@FileArchive@@@std@@@std@@YAPAURecord@FileArchive@@PBU12@0PAU12@AAV?$allocator@URecord@FileArchive@@@0@U_Nonscalar_ptr_iterator_tag@0@U_Range_checked_iterator_tag@0@@Z 10034e11 f   File.obj
 0001:00033e11       __ehhandler$??$_Uninit_copy@PAURecord@FileArchive@@PAU12@V?$allocator@URecord@FileArchive@@@std@@@std@@YAPAURecord@FileArchive@@PAU12@00AAV?$allocator@URecord@FileArchive@@@0@U_Nonscalar_ptr_iterator_tag@0@U_Range_checked_iterator_tag@0@@Z 10034e11 f   File.obj
 0001:00033e30       __unwindfunclet$??0File@@QAE@XZ$0 10034e30 f   File.obj
 0001:00033e3b       __unwindfunclet$??0File@@QAE@XZ$1 10034e3b f   File.obj
 0001:00033e46       __ehhandler$??0File@@QAE@XZ 10034e46 f   File.obj
 0001:00033e70       __unwindfunclet$?Open@File@@QAE_NV?$basic_string@DU?$char_traits@D@std@@V?$allocator@D@2@@std@@@Z$0 10034e70 f   File.obj
 0001:00033e78       __unwindfunclet$?Open@File@@QAE_NV?$basic_string@DU?$char_traits@D@std@@V?$allocator@D@2@@std@@@Z$1 10034e78 f   File.obj
 0001:00033e80       __unwindfunclet$?Open@File@@QAE_NV?$basic_string@DU?$char_traits@D@std@@V?$allocator@D@2@@std@@@Z$2 10034e80 f   File.obj
 0001:00033e88       __ehhandler$?Open@File@@QAE_NV?$basic_string@DU?$char_traits@D@std@@V?$allocator@D@2@@std@@@Z 10034e88 f   File.obj
 0001:00033eb0       __unwindfunclet$?FileExistsEx@@YA_NV?$basic_string@DU?$char_traits@D@std@@V?$allocator@D@2@@std@@@Z$0 10034eb0 f   File.obj
 0001:00033eb8       __unwindfunclet$?FileExistsEx@@YA_NV?$basic_string@DU?$char_traits@D@std@@V?$allocator@D@2@@std@@@Z$1 10034eb8 f   File.obj
 0001:00033ec3       __ehhandler$?FileExistsEx@@YA_NV?$basic_string@DU?$char_traits@D@std@@V?$allocator@D@2@@std@@@Z 10034ec3 f   File.obj
 0001:00033f00       __unwindfunclet$??$_Uninit_fill_n@PAURecord@FileArchive@@IU12@V?$allocator@URecord@FileArchive@@@std@@@std@@YAXPAURecord@FileArchive@@IABU12@AAV?$allocator@URecord@FileArchive@@@0@U_Nonscalar_ptr_iterator_tag@0@U_Range_checked_iterator_tag@0@@Z$2 10034f00 f   File.obj
 0001:00033f11       __ehhandler$??$_Uninit_fill_n@PAURecord@FileArchive@@IU12@V?$allocator@URecord@FileArchive@@@std@@@std@@YAXPAURecord@FileArchive@@IABU12@AAV?$allocator@URecord@FileArchive@@@0@U_Nonscalar_ptr_iterator_tag@0@U_Range_checked_iterator_tag@0@@Z 10034f11 f   File.obj
 0001:00033f30       __unwindfunclet$?_Insert_n@?$vector@URecord@FileArchive@@V?$allocator@URecord@FileArchive@@@std@@@std@@IAEXV?$_Vector_iterator@URecord@FileArchive@@V?$allocator@URecord@FileArchive@@@std@@@2@IABURecord@FileArchive@@@Z$4 10034f30 f   File.obj
 0001:00033f38       __ehhandler$?_Insert_n@?$vector@URecord@FileArchive@@V?$allocator@URecord@FileArchive@@@std@@@std@@IAEXV?$_Vector_iterator@URecord@FileArchive@@V?$allocator@URecord@FileArchive@@@std@@@2@IABURecord@FileArchive@@@Z 10034f38 f   File.obj
 0001:00033f60       __unwindfunclet$?Open@FileArchive@@QAE_NV?$basic_string@DU?$char_traits@D@std@@V?$allocator@D@2@@std@@0@Z$0 10034f60 f   File.obj
 0001:00033f68       __unwindfunclet$?Open@FileArchive@@QAE_NV?$basic_string@DU?$char_traits@D@std@@V?$allocator@D@2@@std@@0@Z$1 10034f68 f   File.obj
 0001:00033f70       __unwindfunclet$?Open@FileArchive@@QAE_NV?$basic_string@DU?$char_traits@D@std@@V?$allocator@D@2@@std@@0@Z$2 10034f70 f   File.obj
 0001:00033f7b       __unwindfunclet$?Open@FileArchive@@QAE_NV?$basic_string@DU?$char_traits@D@std@@V?$allocator@D@2@@std@@0@Z$3 10034f7b f   File.obj
 0001:00033f83       __unwindfunclet$?Open@FileArchive@@QAE_NV?$basic_string@DU?$char_traits@D@std@@V?$allocator@D@2@@std@@0@Z$4 10034f83 f   File.obj
 0001:00033f8e       __unwindfunclet$?Open@FileArchive@@QAE_NV?$basic_string@DU?$char_traits@D@std@@V?$allocator@D@2@@std@@0@Z$5 10034f8e f   File.obj
 0001:00033f99       __unwindfunclet$?Open@FileArchive@@QAE_NV?$basic_string@DU?$char_traits@D@std@@V?$allocator@D@2@@std@@0@Z$6 10034f99 f   File.obj
 0001:00033fa4       __unwindfunclet$?Open@FileArchive@@QAE_NV?$basic_string@DU?$char_traits@D@std@@V?$allocator@D@2@@std@@0@Z$7 10034fa4 f   File.obj
 0001:00033faf       __ehhandler$?Open@FileArchive@@QAE_NV?$basic_string@DU?$char_traits@D@std@@V?$allocator@D@2@@std@@0@Z 10034faf f   File.obj
 0001:00033fe0       __unwindfunclet$??__EArchives@@YAXXZ$0 10034fe0 f   File.obj
 0001:00033fea       __unwindfunclet$??__EArchives@@YAXXZ$1 10034fea f   File.obj
 0001:00033ff4       __ehhandler$??__EArchives@@YAXXZ 10034ff4 f   File.obj
 0001:00034010       __unwindfunclet$?GUI_textField_MeasurePosition@@YGKK@Z$0 10035010 f   gui_bugfix.obj
 0001:00034010       __unwindfunclet$?TrimLeft@@YA?AV?$basic_string@DU?$char_traits@D@std@@V?$allocator@D@2@@std@@ABV12@P6A_ND@Z@Z$0 10035010 f   gui_bugfix.obj
 0001:00034018       __ehhandler$?TrimLeft@@YA?AV?$basic_string@DU?$char_traits@D@std@@V?$allocator@D@2@@std@@ABV12@P6A_ND@Z@Z 10035018 f   gui_bugfix.obj
 0001:00034018       __ehhandler$?GUI_textField_MeasurePosition@@YGKK@Z 10035018 f   gui_bugfix.obj
 0001:00034040       __unwindfunclet$??0Image@@QAE@V?$basic_string@DU?$char_traits@D@std@@V?$allocator@D@2@@std@@@Z$0 10035040 f   Image.obj
 0001:00034048       __unwindfunclet$??0Image@@QAE@V?$basic_string@DU?$char_traits@D@std@@V?$allocator@D@2@@std@@@Z$1 10035048 f   Image.obj
 0001:00034053       __unwindfunclet$??0Image@@QAE@V?$basic_string@DU?$char_traits@D@std@@V?$allocator@D@2@@std@@@Z$4 10035053 f   Image.obj
 0001:0003405e       __unwindfunclet$??0Image@@QAE@V?$basic_string@DU?$char_traits@D@std@@V?$allocator@D@2@@std@@@Z$6 1003505e f   Image.obj
 0001:00034069       __unwindfunclet$??0Image@@QAE@V?$basic_string@DU?$char_traits@D@std@@V?$allocator@D@2@@std@@@Z$8 10035069 f   Image.obj
 0001:00034074       __ehhandler$??0Image@@QAE@V?$basic_string@DU?$char_traits@D@std@@V?$allocator@D@2@@std@@@Z 10035074 f   Image.obj
 0001:000340b0       __unwindfunclet$?IImage_Construct@@YGPAXV?$basic_string@DU?$char_traits@D@std@@V?$allocator@D@2@@std@@@Z$0 100350b0 f   itempng.obj
 0001:000340b8       __unwindfunclet$?IImage_Construct@@YGPAXV?$basic_string@DU?$char_traits@D@std@@V?$allocator@D@2@@std@@@Z$1 100350b8 f   itempng.obj
 0001:000340c3       __ehhandler$?IImage_Construct@@YGPAXV?$basic_string@DU?$char_traits@D@std@@V?$allocator@D@2@@std@@@Z 100350c3 f   itempng.obj
 0001:000340e0       __unwindfunclet$?ITEMPNG_doLoadPngChar@@YGPAXPBD0@Z$1 100350e0 f   itempng.obj
 0001:000340e8       __unwindfunclet$?ITEMPNG_doLoadPngChar@@YGPAXPBD0@Z$3 100350e8 f   itempng.obj
 0001:000340f0       __ehhandler$?ITEMPNG_doLoadPngChar@@YGPAXPBD0@Z 100350f0 f   itempng.obj
 0001:00034120       __unwindfunclet$?ITEMPNG_doLoadPng@@YGXPBDH00@Z$0 10035120 f   itempng.obj
 0001:0003412b       __unwindfunclet$?ITEMPNG_doLoadPng@@YGXPBDH00@Z$1 1003512b f   itempng.obj
 0001:00034133       __unwindfunclet$?ITEMPNG_doLoadPng@@YGXPBDH00@Z$2 10035133 f   itempng.obj
 0001:0003413e       __unwindfunclet$?ITEMPNG_doLoadPng@@YGXPBDH00@Z$3 1003513e f   itempng.obj
 0001:00034146       __unwindfunclet$?ITEMPNG_doLoadPng@@YGXPBDH00@Z$4 10035146 f   itempng.obj
 0001:00034151       __unwindfunclet$?ITEMPNG_doLoadPng@@YGXPBDH00@Z$5 10035151 f   itempng.obj
 0001:00034159       __unwindfunclet$?ITEMPNG_doLoadPng@@YGXPBDH00@Z$6 10035159 f   itempng.obj
 0001:00034164       __unwindfunclet$?ITEMPNG_doLoadPng@@YGXPBDH00@Z$7 10035164 f   itempng.obj
 0001:0003416c       __ehhandler$?ITEMPNG_doLoadPng@@YGXPBDH00@Z 1003516c f   itempng.obj
 0001:000341a0       __unwindfunclet$?P_LoadTiles@@YAXXZ$1 100351a0 f   landscape_renderer.obj
 0001:000341a8       __ehhandler$?P_LoadTiles@@YAXXZ 100351a8 f   landscape_renderer.obj
 0001:000341d0       __unwindfunclet$?get_map_name@@YGPBDPBD@Z$0 100351d0 f   map_location.obj
 0001:000341d8       __ehhandler$?get_map_name@@YGPBDPBD@Z 100351d8 f   map_location.obj
 0001:00034200       __unwindfunclet$?move_map_file@@YGXPBD0@Z$0 10035200 f   map_location.obj
 0001:00034208       __unwindfunclet$?move_map_file@@YGXPBD0@Z$1 10035208 f   map_location.obj
 0001:00034210       __unwindfunclet$?move_map_file@@YGXPBD0@Z$2 10035210 f   map_location.obj
 0001:00034218       __unwindfunclet$?move_map_file@@YGXPBD0@Z$3 10035218 f   map_location.obj
 0001:00034220       __ehhandler$?move_map_file@@YGXPBD0@Z 10035220 f   map_location.obj
 0001:00034250       __unwindfunclet$?recv_@@YGHIPADHH@Z$0 10035250 f   network_protocol.obj
 0001:00034258       __ehhandler$?recv_@@YGHIPADHH@Z 10035258 f   network_protocol.obj
 0001:00034280       __unwindfunclet$??0NETPROTO_fileProgress@@QAE@XZ$0 10035280 f   network_protocol_ext.obj
 0001:0003428b       __unwindfunclet$??0NETPROTO_fileProgress@@QAE@XZ$1 1003528b f   network_protocol_ext.obj
 0001:00034296       __ehhandler$??0NETPROTO_fileProgress@@QAE@XZ 10035296 f   network_protocol_ext.obj
 0001:000342c0       __unwindfunclet$?NETPROTO_hhReadReply@@YAXPBVResponse@happyhttp@@PAXPBEH@Z$1 100352c0 f   network_protocol_ext.obj
 0001:000342c8       __unwindfunclet$?NETPROTO_hhReadReply@@YAXPBVResponse@happyhttp@@PAXPBEH@Z$3 100352c8 f   network_protocol_ext.obj
 0001:000342d0       __unwindfunclet$?NETPROTO_hhReadReply@@YAXPBVResponse@happyhttp@@PAXPBEH@Z$5 100352d0 f   network_protocol_ext.obj
 0001:000342d8       __unwindfunclet$?NETPROTO_hhReadReply@@YAXPBVResponse@happyhttp@@PAXPBEH@Z$7 100352d8 f   network_protocol_ext.obj
 0001:000342e0       __ehhandler$?NETPROTO_hhReadReply@@YAXPBVResponse@happyhttp@@PAXPBEH@Z 100352e0 f   network_protocol_ext.obj
 0001:00034300       __unwindfunclet$?CurlEscape2@@YA?AV?$basic_string@DU?$char_traits@D@std@@V?$allocator@D@2@@std@@V12@@Z$0 10035300 f   network_protocol_ext.obj
 0001:00034308       __unwindfunclet$?CurlEscape2@@YA?AV?$basic_string@DU?$char_traits@D@std@@V?$allocator@D@2@@std@@V12@@Z$1 10035308 f   network_protocol_ext.obj
 0001:00034321       __unwindfunclet$?CurlEscape2@@YA?AV?$basic_string@DU?$char_traits@D@std@@V?$allocator@D@2@@std@@V12@@Z$3 10035321 f   network_protocol_ext.obj
 0001:00034329       __ehhandler$?CurlEscape2@@YA?AV?$basic_string@DU?$char_traits@D@std@@V?$allocator@D@2@@std@@V12@@Z 10035329 f   network_protocol_ext.obj
 0001:00034350       __unwindfunclet$?NETPROTO_hhGetBlockingReply@@YA?AV?$basic_string@DU?$char_traits@D@std@@V?$allocator@D@2@@std@@V12@00@Z$0 10035350 f   network_protocol_ext.obj
 0001:00034358       __unwindfunclet$?NETPROTO_hhGetBlockingReply@@YA?AV?$basic_string@DU?$char_traits@D@std@@V?$allocator@D@2@@std@@V12@00@Z$1 10035358 f   network_protocol_ext.obj
 0001:00034360       __unwindfunclet$?NETPROTO_hhGetBlockingReply@@YA?AV?$basic_string@DU?$char_traits@D@std@@V?$allocator@D@2@@std@@V12@00@Z$2 10035360 f   network_protocol_ext.obj
 0001:00034368       __unwindfunclet$?NETPROTO_hhGetBlockingReply@@YA?AV?$basic_string@DU?$char_traits@D@std@@V?$allocator@D@2@@std@@V12@00@Z$3 10035368 f   network_protocol_ext.obj
 0001:00034370       __ehhandler$?NETPROTO_hhGetBlockingReply@@YA?AV?$basic_string@DU?$char_traits@D@std@@V?$allocator@D@2@@std@@V12@00@Z 10035370 f   network_protocol_ext.obj
 0001:000343a0       __unwindfunclet$?NETPROTO_loginToHat@@YGHXZ$0 100353a0 f   network_protocol_ext.obj
 0001:000343ab       __unwindfunclet$?NETPROTO_loginToHat@@YGHXZ$1 100353ab f   network_protocol_ext.obj
 0001:000343b3       __unwindfunclet$?NETPROTO_loginToHat@@YGHXZ$3 100353b3 f   network_protocol_ext.obj
 0001:000343be       __unwindfunclet$?NETPROTO_loginToHat@@YGHXZ$5 100353be f   network_protocol_ext.obj
 0001:000343c9       __unwindfunclet$?NETPROTO_loginToHat@@YGHXZ$7 100353c9 f   network_protocol_ext.obj
 0001:000343d1       __unwindfunclet$?NETPROTO_loginToHat@@YGHXZ$8 100353d1 f   network_protocol_ext.obj
 0001:000343d9       __unwindfunclet$?NETPROTO_loginToHat@@YGHXZ$9 100353d9 f   network_protocol_ext.obj
 0001:000343e4       __unwindfunclet$?NETPROTO_loginToHat@@YGHXZ$10 100353e4 f   network_protocol_ext.obj
 0001:000343ef       __unwindfunclet$?NETPROTO_loginToHat@@YGHXZ$12 100353ef f   network_protocol_ext.obj
 0001:000343fa       __unwindfunclet$?NETPROTO_loginToHat@@YGHXZ$13 100353fa f   network_protocol_ext.obj
 0001:00034405       __unwindfunclet$?NETPROTO_loginToHat@@YGHXZ$14 10035405 f   network_protocol_ext.obj
 0001:0003440d       __unwindfunclet$?NETPROTO_loginToHat@@YGHXZ$15 1003540d f   network_protocol_ext.obj
 0001:00034418       __unwindfunclet$?NETPROTO_loginToHat@@YGHXZ$17 10035418 f   network_protocol_ext.obj
 0001:00034423       __ehhandler$?NETPROTO_loginToHat@@YGHXZ 10035423 f   network_protocol_ext.obj
 0001:00034450       __unwindfunclet$?SCREENSHOT_take@@YAXXZ$0 10035450 f   screenshot.obj
 0001:00034458       __unwindfunclet$?SCREENSHOT_take@@YAXXZ$1 10035458 f   screenshot.obj
 0001:00034460       __unwindfunclet$?SCREENSHOT_take@@YAXXZ$3 10035460 f   screenshot.obj
 0001:00034468       __unwindfunclet$?SCREENSHOT_take@@YAXXZ$4 10035468 f   screenshot.obj
 0001:00034470       __unwindfunclet$?SCREENSHOT_take@@YAXXZ$5 10035470 f   screenshot.obj
 0001:00034478       __ehhandler$?SCREENSHOT_take@@YAXXZ 10035478 f   screenshot.obj
 0001:000344b0       __unwindfunclet$??1?$basic_ofstream@DU?$char_traits@D@std@@@std@@UAE@XZ$0 100354b0 f   serialize.obj
 0001:000344bb       __ehhandler$??1?$basic_ofstream@DU?$char_traits@D@std@@@std@@UAE@XZ 100354bb f   serialize.obj
 0001:000344e0       __unwindfunclet$??0sentry@?$basic_ostream@DU?$char_traits@D@std@@@std@@QAE@AAV12@@Z$0 100354e0 f   serialize.obj
 0001:000344e8       __ehhandler$??0sentry@?$basic_ostream@DU?$char_traits@D@std@@@std@@QAE@AAV12@@Z 100354e8 f   serialize.obj
 0001:00034510       __ehhandler$?_Osfx@?$basic_ostream@DU?$char_traits@D@std@@@std@@QAEXXZ 10035510 f   serialize.obj
 0001:00034530       __unwindfunclet$??1sentry@?$basic_ostream@DU?$char_traits@D@std@@@std@@QAE@XZ$0 10035530 f   serialize.obj
 0001:00034530       __unwindfunclet$??0sentry@?$basic_istream@DU?$char_traits@D@std@@@std@@QAE@AAV12@_N@Z$0 10035530 f   serialize.obj
 0001:00034538       __ehhandler$??1sentry@?$basic_ostream@DU?$char_traits@D@std@@@std@@QAE@XZ 10035538 f   serialize.obj
 0001:00034538       __ehhandler$??0sentry@?$basic_istream@DU?$char_traits@D@std@@@std@@QAE@AAV12@_N@Z 10035538 f   serialize.obj
 0001:00034560       __unwindfunclet$??0?$basic_ofstream@DU?$char_traits@D@std@@@std@@QAE@XZ$0 10035560 f   serialize.obj
 0001:0003457c       __unwindfunclet$??0?$basic_ofstream@DU?$char_traits@D@std@@@std@@QAE@XZ$1 1003557c f   serialize.obj
 0001:00034587       __ehhandler$??0?$basic_ofstream@DU?$char_traits@D@std@@@std@@QAE@XZ 10035587 f   serialize.obj
 0001:000345b0       __unwindfunclet$?TruncateSlashes@@YA?AV?$basic_string@DU?$char_traits@D@std@@V?$allocator@D@2@@std@@ABV12@@Z$0 100355b0 f   utils.obj
 0001:000345c9       __ehhandler$?TruncateSlashes@@YA?AV?$basic_string@DU?$char_traits@D@std@@V?$allocator@D@2@@std@@ABV12@@Z 100355c9 f   utils.obj
 0001:000345f0       __unwindfunclet$?Format@@YA?AV?$basic_string@DU?$char_traits@D@std@@V?$allocator@D@2@@std@@V12@ZZ$0 100355f0 f   utils.obj
 0001:000345f8       __ehhandler$?Format@@YA?AV?$basic_string@DU?$char_traits@D@std@@V?$allocator@D@2@@std@@V12@ZZ 100355f8 f   utils.obj
 0001:00034630       __unwindfunclet$?TrimRight@@YA?AV?$basic_string@DU?$char_traits@D@std@@V?$allocator@D@2@@std@@ABV12@P6A_ND@Z@Z$0 10035630 f   utils.obj
 0001:00034638       __ehhandler$?TrimRight@@YA?AV?$basic_string@DU?$char_traits@D@std@@V?$allocator@D@2@@std@@ABV12@P6A_ND@Z@Z 10035638 f   utils.obj
 0001:00034660       __unwindfunclet$?Trim@@YA?AV?$basic_string@DU?$char_traits@D@std@@V?$allocator@D@2@@std@@ABV12@P6A_ND@Z@Z$0 10035660 f   utils.obj
 0001:00034668       __ehhandler$?Trim@@YA?AV?$basic_string@DU?$char_traits@D@std@@V?$allocator@D@2@@std@@ABV12@P6A_ND@Z@Z 10035668 f   utils.obj
 0001:00034690       __unwindfunclet$?StrToBoolean@@YA_NABV?$basic_string@DU?$char_traits@D@std@@V?$allocator@D@2@@std@@@Z$0 10035690 f   utils.obj
 0001:00034698       __unwindfunclet$?StrToBoolean@@YA_NABV?$basic_string@DU?$char_traits@D@std@@V?$allocator@D@2@@std@@@Z$1 10035698 f   utils.obj
 0001:000346a0       __ehhandler$?StrToBoolean@@YA_NABV?$basic_string@DU?$char_traits@D@std@@V?$allocator@D@2@@std@@@Z 100356a0 f   utils.obj
 0001:000346d0       __unwindfunclet$??$?6U?$char_traits@D@std@@@std@@YAAAV?$basic_ostream@DU?$char_traits@D@std@@@0@AAV10@PBD@Z$2 100356d0 f   utils.obj
 0001:000346d8       __ehhandler$??$?6U?$char_traits@D@std@@@std@@YAAAV?$basic_ostream@DU?$char_traits@D@std@@@0@AAV10@PBD@Z 100356d8 f   utils.obj
 0001:00034700       __unwindfunclet$?resize@?$vector@V?$basic_string@DU?$char_traits@D@std@@V?$allocator@D@2@@std@@V?$allocator@V?$basic_string@DU?$char_traits@D@std@@V?$allocator@D@2@@std@@@2@@std@@QAEXIV?$basic_string@DU?$char_traits@D@std@@V?$allocator@D@2@@2@@Z$0 10035700 f   utils.obj
 0001:00034708       __ehhandler$?resize@?$vector@V?$basic_string@DU?$char_traits@D@std@@V?$allocator@D@2@@std@@V?$allocator@V?$basic_string@DU?$char_traits@D@std@@V?$allocator@D@2@@std@@@2@@std@@QAEXIV?$basic_string@DU?$char_traits@D@std@@V?$allocator@D@2@@2@@Z 10035708 f   utils.obj
 0001:00034730       __unwindfunclet$?FileExists@@YA_NABV?$basic_string@DU?$char_traits@D@std@@V?$allocator@D@2@@std@@@Z$0 10035730 f   utils.obj
 0001:00034730       __unwindfunclet$?ParseConfig@@YAXXZ$0 10035730 f   utils.obj
 0001:0003473b       __ehhandler$?ParseConfig@@YAXXZ 1003573b f   utils.obj
 0001:0003473b       __ehhandler$?FileExists@@YA_NABV?$basic_string@DU?$char_traits@D@std@@V?$allocator@D@2@@std@@@Z 1003573b f   utils.obj
 0001:00034760       __unwindfunclet$?ParseCommandLine@@YA?AV?$vector@V?$basic_string@DU?$char_traits@D@std@@V?$allocator@D@2@@std@@V?$allocator@V?$basic_string@DU?$char_traits@D@std@@V?$allocator@D@2@@std@@@2@@std@@V?$basic_string@DU?$char_traits@D@std@@V?$allocator@D@2@@2@@Z$0 10035760 f   utils.obj
 0001:00034768       __unwindfunclet$?ParseCommandLine@@YA?AV?$vector@V?$basic_string@DU?$char_traits@D@std@@V?$allocator@D@2@@std@@V?$allocator@V?$basic_string@DU?$char_traits@D@std@@V?$allocator@D@2@@std@@@2@@std@@V?$basic_string@DU?$char_traits@D@std@@V?$allocator@D@2@@2@@Z$1 10035768 f   utils.obj
 0001:00034770       __unwindfunclet$?ParseCommandLine@@YA?AV?$vector@V?$basic_string@DU?$char_traits@D@std@@V?$allocator@D@2@@std@@V?$allocator@V?$basic_string@DU?$char_traits@D@std@@V?$allocator@D@2@@std@@@2@@std@@V?$basic_string@DU?$char_traits@D@std@@V?$allocator@D@2@@2@@Z$2 10035770 f   utils.obj
 0001:00034778       __unwindfunclet$?ParseCommandLine@@YA?AV?$vector@V?$basic_string@DU?$char_traits@D@std@@V?$allocator@D@2@@std@@V?$allocator@V?$basic_string@DU?$char_traits@D@std@@V?$allocator@D@2@@std@@@2@@std@@V?$basic_string@DU?$char_traits@D@std@@V?$allocator@D@2@@2@@Z$3 10035778 f   utils.obj
 0001:00034783       __unwindfunclet$?ParseCommandLine@@YA?AV?$vector@V?$basic_string@DU?$char_traits@D@std@@V?$allocator@D@2@@std@@V?$allocator@V?$basic_string@DU?$char_traits@D@std@@V?$allocator@D@2@@std@@@2@@std@@V?$basic_string@DU?$char_traits@D@std@@V?$allocator@D@2@@2@@Z$5 10035783 f   utils.obj
 0001:0003478b       __unwindfunclet$?ParseCommandLine@@YA?AV?$vector@V?$basic_string@DU?$char_traits@D@std@@V?$allocator@D@2@@std@@V?$allocator@V?$basic_string@DU?$char_traits@D@std@@V?$allocator@D@2@@std@@@2@@std@@V?$basic_string@DU?$char_traits@D@std@@V?$allocator@D@2@@2@@Z$6 1003578b f   utils.obj
 0001:00034793       __ehhandler$?ParseCommandLine@@YA?AV?$vector@V?$basic_string@DU?$char_traits@D@std@@V?$allocator@D@2@@std@@V?$allocator@V?$basic_string@DU?$char_traits@D@std@@V?$allocator@D@2@@std@@@2@@std@@V?$basic_string@DU?$char_traits@D@std@@V?$allocator@D@2@@2@@Z 10035793 f   utils.obj
 0001:000347d0       __unwindfunclet$?Explode@@YA?AV?$vector@V?$basic_string@DU?$char_traits@D@std@@V?$allocator@D@2@@std@@V?$allocator@V?$basic_string@DU?$char_traits@D@std@@V?$allocator@D@2@@std@@@2@@std@@ABV?$basic_string@DU?$char_traits@D@std@@V?$allocator@D@2@@2@0@Z$0 100357d0 f   utils.obj
 0001:000347d8       __unwindfunclet$?Explode@@YA?AV?$vector@V?$basic_string@DU?$char_traits@D@std@@V?$allocator@D@2@@std@@V?$allocator@V?$basic_string@DU?$char_traits@D@std@@V?$allocator@D@2@@std@@@2@@std@@ABV?$basic_string@DU?$char_traits@D@std@@V?$allocator@D@2@@2@0@Z$1 100357d8 f   utils.obj
 0001:000347f1       __ehhandler$?Explode@@YA?AV?$vector@V?$basic_string@DU?$char_traits@D@std@@V?$allocator@D@2@@std@@V?$allocator@V?$basic_string@DU?$char_traits@D@std@@V?$allocator@D@2@@std@@@2@@std@@ABV?$basic_string@DU?$char_traits@D@std@@V?$allocator@D@2@@2@0@Z 100357f1 f   utils.obj
 0001:00034820       __unwindfunclet$?get_res@@YGXPAH0@Z$1 10035820 f   video_init.obj
 0001:0003482b       __ehhandler$?get_res@@YGXPAH0@Z 1003582b f   video_init.obj
 0001:00034860       __unwindfunclet$??0?$pair@$$CBV?$basic_string@DU?$char_traits@D@std@@V?$allocator@D@2@@std@@V12@@std@@QAE@ABV?$basic_string@DU?$char_traits@D@std@@V?$allocator@D@2@@1@0@Z$0 10035860 f   happyhttp.obj
 0001:00034868       __ehhandler$??0?$pair@$$CBV?$basic_string@DU?$char_traits@D@std@@V?$allocator@D@2@@std@@V12@@std@@QAE@ABV?$basic_string@DU?$char_traits@D@std@@V?$allocator@D@2@@1@0@Z 10035868 f   happyhttp.obj
 0001:00034890       __unwindfunclet$??0?$pair@$$CBV?$basic_string@DU?$char_traits@D@std@@V?$allocator@D@2@@std@@V12@@std@@QAE@ABU01@@Z$0 10035890 f   happyhttp.obj
 0001:00034898       __ehhandler$??0?$pair@$$CBV?$basic_string@DU?$char_traits@D@std@@V?$allocator@D@2@@std@@V12@@std@@QAE@ABU01@@Z 10035898 f   happyhttp.obj
 0001:000348c0       __unwindfunclet$?ProcessStatusLine@Response@happyhttp@@AAEXABV?$basic_string@DU?$char_traits@D@std@@V?$allocator@D@2@@std@@@Z$0 100358c0 f   happyhttp.obj
 0001:000348c8       __ehhandler$?ProcessStatusLine@Response@happyhttp@@AAEXABV?$basic_string@DU?$char_traits@D@std@@V?$allocator@D@2@@std@@@Z 100358c8 f   happyhttp.obj
 0001:00034900       __unwindfunclet$?_Xlen@?$vector@PAURecord@FileArchive@@V?$allocator@PAURecord@FileArchive@@@std@@@std@@KAXXZ$0 10035900 f   happyhttp.obj
 0001:00034900       __unwindfunclet$?_Xlen@?$vector@V?$basic_string@DU?$char_traits@D@std@@V?$allocator@D@2@@std@@V?$allocator@V?$basic_string@DU?$char_traits@D@std@@V?$allocator@D@2@@std@@@2@@std@@KAXXZ$0 10035900 f   happyhttp.obj
 0001:00034900       __unwindfunclet$?_Xlen@?$vector@V?$vector@V?$basic_string@DU?$char_traits@D@std@@V?$allocator@D@2@@std@@V?$allocator@V?$basic_string@DU?$char_traits@D@std@@V?$allocator@D@2@@std@@@2@@std@@V?$allocator@V?$vector@V?$basic_string@DU?$char_traits@D@std@@V?$allocator@D@2@@std@@V?$allocator@V?$basic_string@DU?$char_traits@D@std@@V?$allocator@D@2@@std@@@2@@std@@@2@@std@@KAXXZ$0 10035900 f   happyhttp.obj
 0001:00034900       __unwindfunclet$?_Xlen@?$vector@URecord@FileArchive@@V?$allocator@URecord@FileArchive@@@std@@@std@@KAXXZ$0 10035900 f   happyhttp.obj
 0001:00034900       __unwindfunclet$?_Xlen@?$deque@PAVResponse@happyhttp@@V?$allocator@PAVResponse@happyhttp@@@std@@@std@@KAXXZ$0 10035900 f   happyhttp.obj
 0001:00034900       __unwindfunclet$?_Xlen@?$vector@EV?$allocator@E@std@@@std@@KAXXZ$0 10035900 f   happyhttp.obj
 0001:00034900       __unwindfunclet$?_Xlen@?$vector@IV?$allocator@I@std@@@std@@KAXXZ$0 10035900 f   happyhttp.obj
 0001:00034908       __ehhandler$?_Xlen@?$vector@EV?$allocator@E@std@@@std@@KAXXZ 10035908 f   happyhttp.obj
 0001:00034908       __ehhandler$?_Xlen@?$vector@IV?$allocator@I@std@@@std@@KAXXZ 10035908 f   happyhttp.obj
 0001:00034908       __ehhandler$?_Xlen@?$vector@PAURecord@FileArchive@@V?$allocator@PAURecord@FileArchive@@@std@@@std@@KAXXZ 10035908 f   happyhttp.obj
 0001:00034908       __ehhandler$?_Xlen@?$vector@V?$vector@V?$basic_string@DU?$char_traits@D@std@@V?$allocator@D@2@@std@@V?$allocator@V?$basic_string@DU?$char_traits@D@std@@V?$allocator@D@2@@std@@@2@@std@@V?$allocator@V?$vector@V?$basic_string@DU?$char_traits@D@std@@V?$allocator@D@2@@std@@V?$allocator@V?$basic_string@DU?$char_traits@D@std@@V?$allocator@D@2@@std@@@2@@std@@@2@@std@@KAXXZ 10035908 f   happyhttp.obj
 0001:00034908       __ehhandler$?_Xlen@?$vector@URecord@FileArchive@@V?$allocator@URecord@FileArchive@@@std@@@std@@KAXXZ 10035908 f   happyhttp.obj
 0001:00034908       __ehhandler$?_Xlen@?$vector@V?$basic_string@DU?$char_traits@D@std@@V?$allocator@D@2@@std@@V?$allocator@V?$basic_string@DU?$char_traits@D@std@@V?$allocator@D@2@@std@@@2@@std@@KAXXZ 10035908 f   happyhttp.obj
 0001:00034908       __ehhandler$?_Xlen@?$deque@PAVResponse@happyhttp@@V?$allocator@PAVResponse@happyhttp@@@std@@@std@@KAXXZ 10035908 f   happyhttp.obj
 0001:00034930       __unwindfunclet$??$?HDU?$char_traits@D@std@@V?$allocator@D@1@@std@@YA?AV?$basic_string@DU?$char_traits@D@std@@V?$allocator@D@2@@0@ABV10@0@Z$0 10035930 f   happyhttp.obj
 0001:00034930       __unwindfunclet$??$?HDU?$char_traits@D@std@@V?$allocator@D@1@@std@@YA?AV?$basic_string@DU?$char_traits@D@std@@V?$allocator@D@2@@0@PBDABV10@@Z$0 10035930 f   happyhttp.obj
 0001:00034930       __unwindfunclet$??$?HDU?$char_traits@D@std@@V?$allocator@D@1@@std@@YA?AV?$basic_string@DU?$char_traits@D@std@@V?$allocator@D@2@@0@ABV10@PBD@Z$0 10035930 f   happyhttp.obj
 0001:00034938       __ehhandler$??$?HDU?$char_traits@D@std@@V?$allocator@D@1@@std@@YA?AV?$basic_string@DU?$char_traits@D@std@@V?$allocator@D@2@@0@PBDABV10@@Z 10035938 f   happyhttp.obj
 0001:00034938       __ehhandler$??$?HDU?$char_traits@D@std@@V?$allocator@D@1@@std@@YA?AV?$basic_string@DU?$char_traits@D@std@@V?$allocator@D@2@@0@ABV10@0@Z 10035938 f   happyhttp.obj
 0001:00034938       __ehhandler$??$?HDU?$char_traits@D@std@@V?$allocator@D@1@@std@@YA?AV?$basic_string@DU?$char_traits@D@std@@V?$allocator@D@2@@0@ABV10@PBD@Z 10035938 f   happyhttp.obj
 0001:00034960       __unwindfunclet$?erase@?$_Tree@V?$_Tmap_traits@PAXPAXU?$less@PAX@std@@V?$allocator@U?$pair@QAXPAX@std@@@2@$0A@@std@@@std@@QAE?AViterator@12@V312@@Z$0 10035960 f   happyhttp.obj
 0001:00034960       __unwindfunclet$?erase@?$_Tree@V?$_Tmap_traits@PBDV?$basic_string@DU?$char_traits@D@std@@V?$allocator@D@2@@std@@U?$less@PBD@2@V?$allocator@U?$pair@QBDV?$basic_string@DU?$char_traits@D@std@@V?$allocator@D@2@@std@@@std@@@2@$0A@@std@@@std@@QAE?AViterator@12@V312@@Z$0 10035960 f   happyhttp.obj
 0001:00034960       __unwindfunclet$?erase@?$_Tree@V?$_Tmap_traits@KV?$basic_string@DU?$char_traits@D@std@@V?$allocator@D@2@@std@@U?$less@K@2@V?$allocator@U?$pair@$$CBKV?$basic_string@DU?$char_traits@D@std@@V?$allocator@D@2@@std@@@std@@@2@$0A@@std@@@std@@QAE?AViterator@12@V312@@Z$0 10035960 f   happyhttp.obj
 0001:00034960       __unwindfunclet$?erase@?$_Tree@V?$_Tmap_traits@V?$basic_string@DU?$char_traits@D@std@@V?$allocator@D@2@@std@@V12@U?$less@V?$basic_string@DU?$char_traits@D@std@@V?$allocator@D@2@@std@@@2@V?$allocator@U?$pair@$$CBV?$basic_string@DU?$char_traits@D@std@@V?$allocator@D@2@@std@@V12@@std@@@2@$0A@@std@@@std@@QAE?AViterator@12@V312@@Z$0 10035960 f   happyhttp.obj
 0001:00034968       __ehhandler$?erase@?$_Tree@V?$_Tmap_traits@KV?$basic_string@DU?$char_traits@D@std@@V?$allocator@D@2@@std@@U?$less@K@2@V?$allocator@U?$pair@$$CBKV?$basic_string@DU?$char_traits@D@std@@V?$allocator@D@2@@std@@@std@@@2@$0A@@std@@@std@@QAE?AViterator@12@V312@@Z 10035968 f   happyhttp.obj
 0001:00034968       __ehhandler$?erase@?$_Tree@V?$_Tmap_traits@PAXPAXU?$less@PAX@std@@V?$allocator@U?$pair@QAXPAX@std@@@2@$0A@@std@@@std@@QAE?AViterator@12@V312@@Z 10035968 f   happyhttp.obj
 0001:00034968       __ehhandler$?erase@?$_Tree@V?$_Tmap_traits@PBDV?$basic_string@DU?$char_traits@D@std@@V?$allocator@D@2@@std@@U?$less@PBD@2@V?$allocator@U?$pair@QBDV?$basic_string@DU?$char_traits@D@std@@V?$allocator@D@2@@std@@@std@@@2@$0A@@std@@@std@@QAE?AViterator@12@V312@@Z 10035968 f   happyhttp.obj
 0001:00034968       __ehhandler$?erase@?$_Tree@V?$_Tmap_traits@V?$basic_string@DU?$char_traits@D@std@@V?$allocator@D@2@@std@@V12@U?$less@V?$basic_string@DU?$char_traits@D@std@@V?$allocator@D@2@@std@@@2@V?$allocator@U?$pair@$$CBV?$basic_string@DU?$char_traits@D@std@@V?$allocator@D@2@@std@@V12@@std@@@2@$0A@@std@@@std@@QAE?AViterator@12@V312@@Z 10035968 f   happyhttp.obj
 0001:00034990       __unwindfunclet$?_Buynode@?$_Tree@V?$_Tmap_traits@V?$basic_string@DU?$char_traits@D@std@@V?$allocator@D@2@@std@@V12@U?$less@V?$basic_string@DU?$char_traits@D@std@@V?$allocator@D@2@@std@@@2@V?$allocator@U?$pair@$$CBV?$basic_string@DU?$char_traits@D@std@@V?$allocator@D@2@@std@@V12@@std@@@2@$0A@@std@@@std@@IAEPAU_Node@?$_Tree_nod@V?$_Tmap_traits@V?$basic_string@DU?$char_traits@D@std@@V?$allocator@D@2@@std@@V12@U?$less@V?$basic_string@DU?$char_traits@D@std@@V?$allocator@D@2@@std@@@2@V?$allocator@U?$pair@$$CBV?$basic_string@DU?$char_traits@D@std@@V?$allocator@D@2@@std@@V12@@std@@@2@$0A@@std@@@2@PAU342@00ABU?$pair@$$CBV?$basic_string@DU?$char_traits@D@std@@V?$allocator@D@2@@std@@V12@@2@D@Z$2 10035990 f   happyhttp.obj
 0001:000349a1       __ehhandler$?_Buynode@?$_Tree@V?$_Tmap_traits@V?$basic_string@DU?$char_traits@D@std@@V?$allocator@D@2@@std@@V12@U?$less@V?$basic_string@DU?$char_traits@D@std@@V?$allocator@D@2@@std@@@2@V?$allocator@U?$pair@$$CBV?$basic_string@DU?$char_traits@D@std@@V?$allocator@D@2@@std@@V12@@std@@@2@$0A@@std@@@std@@IAEPAU_Node@?$_Tree_nod@V?$_Tmap_traits@V?$basic_string@DU?$char_traits@D@std@@V?$allocator@D@2@@std@@V12@U?$less@V?$basic_string@DU?$char_traits@D@std@@V?$allocator@D@2@@std@@@2@V?$allocator@U?$pair@$$CBV?$basic_string@DU?$char_traits@D@std@@V?$allocator@D@2@@std@@V12@@std@@@2@$0A@@std@@@2@PAU342@00ABU?$pair@$$CBV?$basic_string@DU?$char_traits@D@std@@V?$allocator@D@2@@std@@V12@@2@D@Z 100359a1 f   happyhttp.obj
 0001:000349c0       __unwindfunclet$?_Insert@?$_Tree@V?$_Tmap_traits@V?$basic_string@DU?$char_traits@D@std@@V?$allocator@D@2@@std@@V12@U?$less@V?$basic_string@DU?$char_traits@D@std@@V?$allocator@D@2@@std@@@2@V?$allocator@U?$pair@$$CBV?$basic_string@DU?$char_traits@D@std@@V?$allocator@D@2@@std@@V12@@std@@@2@$0A@@std@@@std@@IAE?AViterator@12@_NPAU_Node@?$_Tree_nod@V?$_Tmap_traits@V?$basic_string@DU?$char_traits@D@std@@V?$allocator@D@2@@std@@V12@U?$less@V?$basic_string@DU?$char_traits@D@std@@V?$allocator@D@2@@std@@@2@V?$allocator@U?$pair@$$CBV?$basic_string@DU?$char_traits@D@std@@V?$allocator@D@2@@std@@V12@@std@@@2@$0A@@std@@@2@ABU?$pair@$$CBV?$basic_string@DU?$char_traits@D@std@@V?$allocator@D@2@@std@@V12@@2@@Z$0 100359c0 f   happyhttp.obj
 0001:000349c0       __unwindfunclet$?_Insert@?$_Tree@V?$_Tmap_traits@PBDV?$basic_string@DU?$char_traits@D@std@@V?$allocator@D@2@@std@@U?$less@PBD@2@V?$allocator@U?$pair@QBDV?$basic_string@DU?$char_traits@D@std@@V?$allocator@D@2@@std@@@std@@@2@$0A@@std@@@std@@IAE?AViterator@12@_NPAU_Node@?$_Tree_nod@V?$_Tmap_traits@PBDV?$basic_string@DU?$char_traits@D@std@@V?$allocator@D@2@@std@@U?$less@PBD@2@V?$allocator@U?$pair@QBDV?$basic_string@DU?$char_traits@D@std@@V?$allocator@D@2@@std@@@std@@@2@$0A@@std@@@2@ABU?$pair@QBDV?$basic_string@DU?$char_traits@D@std@@V?$allocator@D@2@@std@@@2@@Z$0 100359c0 f   happyhttp.obj
 0001:000349c8       __ehhandler$?_Insert@?$_Tree@V?$_Tmap_traits@V?$basic_string@DU?$char_traits@D@std@@V?$allocator@D@2@@std@@V12@U?$less@V?$basic_string@DU?$char_traits@D@std@@V?$allocator@D@2@@std@@@2@V?$allocator@U?$pair@$$CBV?$basic_string@DU?$char_traits@D@std@@V?$allocator@D@2@@std@@V12@@std@@@2@$0A@@std@@@std@@IAE?AViterator@12@_NPAU_Node@?$_Tree_nod@V?$_Tmap_traits@V?$basic_string@DU?$char_traits@D@std@@V?$allocator@D@2@@std@@V12@U?$less@V?$basic_string@DU?$char_traits@D@std@@V?$allocator@D@2@@std@@@2@V?$allocator@U?$pair@$$CBV?$basic_string@DU?$char_traits@D@std@@V?$allocator@D@2@@std@@V12@@std@@@2@$0A@@std@@@2@ABU?$pair@$$CBV?$basic_string@DU?$char_traits@D@std@@V?$allocator@D@2@@std@@V12@@2@@Z 100359c8 f   happyhttp.obj
 0001:000349c8       __ehhandler$?_Insert@?$_Tree@V?$_Tmap_traits@PBDV?$basic_string@DU?$char_traits@D@std@@V?$allocator@D@2@@std@@U?$less@PBD@2@V?$allocator@U?$pair@QBDV?$basic_string@DU?$char_traits@D@std@@V?$allocator@D@2@@std@@@std@@@2@$0A@@std@@@std@@IAE?AViterator@12@_NPAU_Node@?$_Tree_nod@V?$_Tmap_traits@PBDV?$basic_string@DU?$char_traits@D@std@@V?$allocator@D@2@@std@@U?$less@PBD@2@V?$allocator@U?$pair@QBDV?$basic_string@DU?$char_traits@D@std@@V?$allocator@D@2@@std@@@std@@@2@$0A@@std@@@2@ABU?$pair@QBDV?$basic_string@DU?$char_traits@D@std@@V?$allocator@D@2@@std@@@2@@Z 100359c8 f   happyhttp.obj
 0001:000349f0       __unwindfunclet$??0Connection@happyhttp@@QAE@PBDH@Z$0 100359f0 f   happyhttp.obj
 0001:000349fb       __ehhandler$??0Connection@happyhttp@@QAE@PBDH@Z 100359fb f   happyhttp.obj
 0001:00034a20       __unwindfunclet$??A?$map@V?$basic_string@DU?$char_traits@D@std@@V?$allocator@D@2@@std@@V12@U?$less@V?$basic_string@DU?$char_traits@D@std@@V?$allocator@D@2@@std@@@2@V?$allocator@U?$pair@$$CBV?$basic_string@DU?$char_traits@D@std@@V?$allocator@D@2@@std@@V12@@std@@@2@@std@@QAEAAV?$basic_string@DU?$char_traits@D@std@@V?$allocator@D@2@@1@ABV21@@Z$0 10035a20 f   happyhttp.obj
 0001:00034a28       __unwindfunclet$??A?$map@V?$basic_string@DU?$char_traits@D@std@@V?$allocator@D@2@@std@@V12@U?$less@V?$basic_string@DU?$char_traits@D@std@@V?$allocator@D@2@@std@@@2@V?$allocator@U?$pair@$$CBV?$basic_string@DU?$char_traits@D@std@@V?$allocator@D@2@@std@@V12@@std@@@2@@std@@QAEAAV?$basic_string@DU?$char_traits@D@std@@V?$allocator@D@2@@1@ABV21@@Z$1 10035a28 f   happyhttp.obj
 0001:00034a30       __ehhandler$??A?$map@V?$basic_string@DU?$char_traits@D@std@@V?$allocator@D@2@@std@@V12@U?$less@V?$basic_string@DU?$char_traits@D@std@@V?$allocator@D@2@@std@@@2@V?$allocator@U?$pair@$$CBV?$basic_string@DU?$char_traits@D@std@@V?$allocator@D@2@@std@@V12@@std@@@2@@std@@QAEAAV?$basic_string@DU?$char_traits@D@std@@V?$allocator@D@2@@1@ABV21@@Z 10035a30 f   happyhttp.obj
 0001:00034a50       __unwindfunclet$?FlushHeader@Response@happyhttp@@AAEXXZ$0 10035a50 f   happyhttp.obj
 0001:00034a58       __unwindfunclet$?FlushHeader@Response@happyhttp@@AAEXXZ$1 10035a58 f   happyhttp.obj
 0001:00034a60       __ehhandler$?FlushHeader@Response@happyhttp@@AAEXXZ 10035a60 f   happyhttp.obj
 0001:00034a90       __unwindfunclet$??1Response@happyhttp@@QAE@XZ$0 10035a90 f   happyhttp.obj
 0001:00034a9b       __unwindfunclet$??1Response@happyhttp@@QAE@XZ$1 10035a9b f   happyhttp.obj
 0001:00034aa6       __unwindfunclet$??1Response@happyhttp@@QAE@XZ$2 10035aa6 f   happyhttp.obj
 0001:00034ab1       __ehhandler$??1Response@happyhttp@@QAE@XZ 10035ab1 f   happyhttp.obj
 0001:00034ad0       __unwindfunclet$??0Response@happyhttp@@IAE@PBDAAVConnection@1@@Z$0 10035ad0 f   happyhttp.obj
 0001:00034adb       __unwindfunclet$??0Response@happyhttp@@IAE@PBDAAVConnection@1@@Z$1 10035adb f   happyhttp.obj
 0001:00034ae6       __unwindfunclet$??0Response@happyhttp@@IAE@PBDAAVConnection@1@@Z$2 10035ae6 f   happyhttp.obj
 0001:00034af1       __ehhandler$??0Response@happyhttp@@IAE@PBDAAVConnection@1@@Z 10035af1 f   happyhttp.obj
 0001:00034b10       __unwindfunclet$?putheader@Connection@happyhttp@@QAEXPBD0@Z$0 10035b10 f   happyhttp.obj
 0001:00034b1b       __unwindfunclet$?putheader@Connection@happyhttp@@QAEXPBD0@Z$1 10035b1b f   happyhttp.obj
 0001:00034b26       __unwindfunclet$?putheader@Connection@happyhttp@@QAEXPBD0@Z$2 10035b26 f   happyhttp.obj
 0001:00034b31       __unwindfunclet$?putheader@Connection@happyhttp@@QAEXPBD0@Z$3 10035b31 f   happyhttp.obj
 0001:00034b3c       __ehhandler$?putheader@Connection@happyhttp@@QAEXPBD0@Z 10035b3c f   happyhttp.obj
 0001:00034b60       __unwindfunclet$?endheaders@Connection@happyhttp@@QAEXXZ$0 10035b60 f   happyhttp.obj
 0001:00034b6b       __unwindfunclet$?endheaders@Connection@happyhttp@@QAEXXZ$1 10035b6b f   happyhttp.obj
 0001:00034b73       __unwindfunclet$?endheaders@Connection@happyhttp@@QAEXXZ$2 10035b73 f   happyhttp.obj
 0001:00034b7e       __ehhandler$?endheaders@Connection@happyhttp@@QAEXXZ 10035b7e f   happyhttp.obj
 0001:00034bb0       __unwindfunclet$??1Connection@happyhttp@@QAE@XZ$0 10035bb0 f   happyhttp.obj
 0001:00034bbb       __unwindfunclet$??1Connection@happyhttp@@QAE@XZ$1 10035bbb f   happyhttp.obj
 0001:00034bc6       __unwindfunclet$??1Connection@happyhttp@@QAE@XZ$2 10035bc6 f   happyhttp.obj
 0001:00034bd1       __ehhandler$??1Connection@happyhttp@@QAE@XZ 10035bd1 f   happyhttp.obj
 0001:00034bf0       __unwindfunclet$?putrequest@Connection@happyhttp@@QAEXPBD0@Z$0 10035bf0 f   happyhttp.obj
 0001:00034bfb       __unwindfunclet$?putrequest@Connection@happyhttp@@QAEXPBD0@Z$1 10035bfb f   happyhttp.obj
 0001:00034c09       __ehhandler$?putrequest@Connection@happyhttp@@QAEXPBD0@Z 10035c09 f   happyhttp.obj
 0001:00034c37       __unwindfunclet$?_Xlen@_String_base@std@@SAXXZ$0 10035c37 f   libcpmt:string.obj
 0001:00034c37       __unwindfunclet$?_Xran@_String_base@std@@SAXXZ$0 10035c37 f   libcpmt:string.obj
 0001:00034c3f       __ehhandler$?_Xlen@_String_base@std@@SAXXZ 10035c3f f   libcpmt:string.obj
 0001:00034c3f       __ehhandler$?_Xran@_String_base@std@@SAXXZ 10035c3f f   libcpmt:string.obj
 0001:00034c5a       __unwindfunclet$?_Locimp_dtor@_Locimp@locale@std@@CAXPAV123@@Z$0 10035c5a f   libcpmt:locale0.obj
 0001:00034c62       __ehhandler$?_Locimp_dtor@_Locimp@locale@std@@CAXPAV123@@Z 10035c62 f   libcpmt:locale0.obj
 0001:00034c7d       __unwindfunclet$??0_Locimp@locale@std@@AAE@_N@Z$0 10035c7d f   libcpmt:locale0.obj
 0001:00034c85       __ehhandler$??0_Locimp@locale@std@@AAE@_N@Z 10035c85 f   libcpmt:locale0.obj
 0001:00034ca0       __unwindfunclet$??1_Locimp@locale@std@@MAE@XZ$0 10035ca0 f   libcpmt:locale0.obj
 0001:00034ca8       __unwindfunclet$??1_Locimp@locale@std@@MAE@XZ$1 10035ca8 f   libcpmt:locale0.obj
 0001:00034cb3       __ehhandler$??1_Locimp@locale@std@@MAE@XZ 10035cb3 f   libcpmt:locale0.obj
 0001:00034cce       __unwindfunclet$?_Init@locale@std@@CAPAV_Locimp@12@XZ$0 10035cce f   libcpmt:locale0.obj
 0001:00034cd6       __unwindfunclet$?_Init@locale@std@@CAPAV_Locimp@12@XZ$1 10035cd6 f   libcpmt:locale0.obj
 0001:00034ce0       __ehhandler$?_Init@locale@std@@CAPAV_Locimp@12@XZ 10035ce0 f   libcpmt:locale0.obj
 0001:00034cfb       __ehhandler$?CallUnexpected@@YAXPBU_s_ESTypeList@@@Z 10035cfb f   LIBCMT:frame.obj
 0001:00034d20       ??__E__chat_history@@YAXXZ 10035d20 f   chat_history.obj
 0001:00034d30       ??__EAssocList@@YAXXZ      10035d30 f   class_extend.obj
 0001:00034d70       ??__Ecurrent_directory@@YAXXZ 10035d70 f   config.obj
 0001:00034d90       ??__Ed_strings@@YAXXZ      10035d90 f   debug.obj
 0001:00034dd0       ??__ENames@@YAXXZ          10035dd0 f   debug.obj
 0001:00034e10       ??__EArchives@@YAXXZ       10035e10 f   File.obj
 0001:00034e50       ??__ETiles@@YAXXZ          10035e50 f   landscape_renderer.obj
 0001:00034e80       ??__EhhC@@YAXXZ            10035e80 f   network_protocol_ext.obj
 0001:00034ea0       ??__EScanrange@@YAXXZ      10035ea0 f   scanrange.obj
 0001:00034eb0       ??__E_LOG_FILE@@YAXXZ      10035eb0 f   utils.obj
 0001:00034ed0       ??__E_LOG_NAME@@YAXXZ      10035ed0 f   utils.obj
 0001:00034edc       ??__Einitlocks@std@@YAXXZ  10035edc f   libcpmt:xlock.obj
 0001:00034ef2       ??__Eclassic_locale@std@@YAXXZ 10035ef2 f   libcpmt:locale0.obj
 0001:00034efe       ??__Einitlocks@std@@YAXXZ  10035efe f   libcpmt:iosptrs.obj
 0001:00034f14       ??__Einit_atexit@@YAXXZ    10035f14 f   libcpmt:iosptrs.obj
 0001:00034f20       ??__F__chat_history@@YAXXZ 10035f20 f   chat_history.obj
 0001:00034f70       ??__FAssocList@@YAXXZ      10035f70 f   class_extend.obj
 0001:00034fb0       ??__Fcurrent_directory@@YAXXZ 10035fb0 f   config.obj
 0001:00034fe0       ??__Fd_strings@@YAXXZ      10035fe0 f   debug.obj
 0001:00035020       ??__FNames@@YAXXZ          10036020 f   debug.obj
 0001:00035060       ??__Frec@?1??GetRecord@FileArchive@@QAEABURecord@1@V?$basic_string@DU?$char_traits@D@std@@V?$allocator@D@2@@std@@@Z@YAXXZ 10036060 f   File.obj
 0001:00035070       ??__FArchives@@YAXXZ       10036070 f   File.obj
 0001:00035080       ??__FhhC@@YAXXZ            10036080 f   network_protocol_ext.obj
 0001:00035090       ??__F_LOG_NAME@@YAXXZ      10036090 f   utils.obj
 0001:000350c0       ??__F_LOG_FILE@@YAXXZ      100360c0 f   utils.obj
 0001:000350e0       ??__Finitlocks@std@@YAXXZ  100360e0 f   libcpmt:xlock.obj
 0001:000350ea       ??__Fclassic_locale@std@@YAXXZ 100360ea f   libcpmt:locale0.obj
 0001:000350f4       ??__Finitlocks@std@@YAXXZ  100360f4 f   libcpmt:iosptrs.obj
 0001:000350fe       ??__Finit_atexit@@YAXXZ    100360fe f   libcpmt:iosptrs.obj
 0001:00035108       ??__Fnomem@?5???2@YAPAXI@Z@YAXXZ 10036108 f   LIBCMT:new.obj

 Exports

  ordinal    name

        1    ?RES_loadFile@@YAHH@Z (int __cdecl RES_loadFile(int))
        2    ?FIL_patch0@@YAXXZ (void __cdecl FIL_patch0(void))
        3    ?FIL_patch1@@YAXXZ (void __cdecl FIL_patch1(void))
        4    ?FIL_world0@@YAXXZ (void __cdecl FIL_world0(void))
        5    ?FIL_world1@@YAXXZ (void __cdecl FIL_world1(void))
        6    ?FIL_world2@@YAXXZ (void __cdecl FIL_world2(void))
        7    ?FIL_world3@@YAXXZ (void __cdecl FIL_world3(void))
        8    ?FIL_world4@@YAXXZ (void __cdecl FIL_world4(void))
        9    ?FIL_world5@@YAXXZ (void __cdecl FIL_world5(void))
       10    ?FIL_world6@@YAXXZ (void __cdecl FIL_world6(void))
       11    ?FIL_world7@@YAXXZ (void __cdecl FIL_world7(void))
       12    ?FIL_world8@@YAXXZ (void __cdecl FIL_world8(void))
       13    ?FIL_world9@@YAXXZ (void __cdecl FIL_world9(void))
       14    ?FIL_worldA@@YAXXZ (void __cdecl FIL_worldA(void))
       15    ?NETPROTO_createAuthorizationPacket@@YAHXZ (int __cdecl NETPROTO_createAuthorizationPacket(void))
       16    ?NETPROTO_sendAuthorizationPacket@@YAHXZ (int __cdecl NETPROTO_sendAuthorizationPacket(void))
       17    ?VIDEO_checkVideoMode@@YAXXZ (void __cdecl VIDEO_checkVideoMode(void))
       18    ?NET_cryptPacket@@YAXPAEH@Z (void __cdecl NET_cryptPacket(unsigned char *,int))
       19    ?MAP_loadFromServer@@YAXXZ (void __cdecl MAP_loadFromServer(void))
       20    ?SYSTEM_setThreadPriority@@YAXXZ (void __cdecl SYSTEM_setThreadPriority(void))
       21    ?CHAT_tilde0@@YAXXZ (void __cdecl CHAT_tilde0(void))
       22    ?CHAT_tilde1@@YAXXZ (void __cdecl CHAT_tilde1(void))
       23    ?CHAT_tilde2@@YAXXZ (void __cdecl CHAT_tilde2(void))
       24    ?CHAT_wmCharHandler@@YAXXZ (void __cdecl CHAT_wmCharHandler(void))
       25    ?CHAT_convWinToDos@@YAXXZ (void __cdecl CHAT_convWinToDos(void))
       26    ?CHAT_convDosToIdx@@YAXXZ (void __cdecl CHAT_convDosToIdx(void))
       27    ?DBG_logStrings@@YAXXZ (void __cdecl DBG_logStrings(void))
       28    ?GUI_textField_MeasurePosition@@YGKK@Z (unsigned long __stdcall GUI_textField_MeasurePosition(unsigned long))
       29    ?CHAT_logStrings@@YAHPADHH@Z (int __cdecl CHAT_logStrings(char *,int,int))
       30    ?CHAT_keyDown@@YAXXZ (void __cdecl CHAT_keyDown(void))
       31    ?CHAT_getMessageLast@@YAXXZ (void __cdecl CHAT_getMessageLast(void))
       33    ?CRASH_fix_414994@@YAXXZ (void __cdecl CRASH_fix_414994(void))
       34    ?CRASH_fix_42353A@@YAXXZ (void __cdecl CRASH_fix_42353A(void))
       35    ?CRASH_fix_523295@@YAXXZ (void __cdecl CRASH_fix_523295(void))
       36    ?CRASH_fix_46AD10@@YAXXZ (void __cdecl CRASH_fix_46AD10(void))
       37    ?CRASH_fix_420450@@YAXXZ (void __cdecl CRASH_fix_420450(void))
       38    ?CRASH_fix_45FC3B@@YAXXZ (void __cdecl CRASH_fix_45FC3B(void))
       39    ?CRASH_fix_458CF9@@YAXXZ (void __cdecl CRASH_fix_458CF9(void))
       40    ?CRASH_fix_4657AD@@YAXXZ (void __cdecl CRASH_fix_4657AD(void))
       41    ?CRASH_fix_46B685@@YAXXZ (void __cdecl CRASH_fix_46B685(void))
       42    ?CRASH_fix_4BEE2D@@YAXXZ (void __cdecl CRASH_fix_4BEE2D(void))
       43    ?HATENT_url_text@@YAXXZ (void __cdecl HATENT_url_text(void))
       44    ?HATENT_url_connect@@YAXXZ (void __cdecl HATENT_url_connect(void))
       45    ?SCREENSHOT_take@@YAXXZ (void __cdecl SCREENSHOT_take(void))
       46    ?CRASH_fix_4AAB7E@@YAXXZ (void __cdecl CRASH_fix_4AAB7E(void))
       47    ?INFO_fps@@YAXXZ (void __cdecl INFO_fps(void))
       48    ?RES_loadDirectories@@YAXXZ (void __cdecl RES_loadDirectories(void))
       49    ?RES_loadException@@YAXXZ (void __cdecl RES_loadException(void))
       50    ?LANG_change_43EDEB@@YAXXZ (void __cdecl LANG_change_43EDEB(void))
       51    ?LANG_change_474F27@@YAXXZ (void __cdecl LANG_change_474F27(void))
       52    ?LANG_change_48626D@@YAXXZ (void __cdecl LANG_change_48626D(void))
       53    ?LANG_change_48BA07@@YAXXZ (void __cdecl LANG_change_48BA07(void))
       54    ?LANG_change_48CA55@@YAXXZ (void __cdecl LANG_change_48CA55(void))
       55    ?LANG_change_491CDF@@YAXXZ (void __cdecl LANG_change_491CDF(void))
       56    ?LANG_change_4939A2@@YAXXZ (void __cdecl LANG_change_4939A2(void))
       57    ?CRASH_fix_multiwindow_1@@YAXXZ (void __cdecl CRASH_fix_multiwindow_1(void))
       58    ?CRASH_fix_multiwindow_2@@YAXXZ (void __cdecl CRASH_fix_multiwindow_2(void))
       59    ?CRASH_fix_multiwindow_3@@YAXXZ (void __cdecl CRASH_fix_multiwindow_3(void))
       60    ?CRASH_fix_multiwindow_4@@YAXXZ (void __cdecl CRASH_fix_multiwindow_4(void))
       61    ?LANG_change_493B23@@YAXXZ (void __cdecl LANG_change_493B23(void))
       62    ?LANG_change_4B018F@@YAXXZ (void __cdecl LANG_change_4B018F(void))
       63    ?SCROLL_part1@@YAXXZ (void __cdecl SCROLL_part1(void))
       64    ?SCROLL_part2@@YAXXZ (void __cdecl SCROLL_part2(void))
       65    ?GRID_part1@@YAXXZ (void __cdecl GRID_part1(void))
       66    ?GRID_part2@@YAXXZ (void __cdecl GRID_part2(void))
       67    ?GRID_part3@@YAXXZ (void __cdecl GRID_part3(void))
       68    ?GRID_part4@@YAXXZ (void __cdecl GRID_part4(void))
       69    ?GRID_part5@@YAXXZ (void __cdecl GRID_part5(void))
       70    ?LANG_change_42B3D5@@YAXXZ (void __cdecl LANG_change_42B3D5(void))
       71    ?LANG_change_43EEC3@@YAXXZ (void __cdecl LANG_change_43EEC3(void))
       72    ?LANG_change_460F9B@@YAXXZ (void __cdecl LANG_change_460F9B(void))
       73    ?LANG_change_474375@@YAXXZ (void __cdecl LANG_change_474375(void))
       74    ?LANG_change_4743C9@@YAXXZ (void __cdecl LANG_change_4743C9(void))
       75    ?LANG_change_496638@@YAXXZ (void __cdecl LANG_change_496638(void))
       76    ?LANG_change_4AEE20@@YAXXZ (void __cdecl LANG_change_4AEE20(void))
       77    ?LANG_change_4AEE6D@@YAXXZ (void __cdecl LANG_change_4AEE6D(void))
       78    ?LANG_change_4AEF2A@@YAXXZ (void __cdecl LANG_change_4AEF2A(void))
       79    ?LANG_change_4AEF9C@@YAXXZ (void __cdecl LANG_change_4AEF9C(void))
       80    ?LANG_change_4AF00E@@YAXXZ (void __cdecl LANG_change_4AF00E(void))
       81    ?LANG_fix_codepage@@YAXXZ (void __cdecl LANG_fix_codepage(void))
       84    ?NETPROTO_loginToHat@@YGHXZ (int __stdcall NETPROTO_loginToHat(void))
       85    ?BASE_setCurrentDirectory1@@YGHPAD@Z (int __stdcall BASE_setCurrentDirectory1(char *))
       86    ?CHAT_prependType_part1@@YAXXZ (void __cdecl CHAT_prependType_part1(void))
       87    ?CHAT_prependType_part2@@YAXXZ (void __cdecl CHAT_prependType_part2(void))
       88    ?ADMINISTRAT@@YAXXZ (void __cdecl ADMINISTRAT(void))
       89    ?_fix_launcher@@YAXXZ (void __cdecl _fix_launcher(void))
       90    ?MAP_CFileOpen1@@YAXXZ (void __cdecl MAP_CFileOpen1(void))
       91    ?MAP_CFileOpen2@@YAXXZ (void __cdecl MAP_CFileOpen2(void))
       92    ?GUI_gmEnter@@YAXXZ (void __cdecl GUI_gmEnter(void))
       93    ?CalcVisMapCLIENT@@YGHPAD@Z (int __stdcall CalcVisMapCLIENT(char *))
       94    ?TILES_loadTiles@@YAXXZ (void __cdecl TILES_loadTiles(void))
       95    ?TILES_displayTile1@@YAXXZ (void __cdecl TILES_displayTile1(void))
       96    ?TILES_debug@@YAXXZ (void __cdecl TILES_debug(void))
       97    ?recv_@@YGHIPADHH@Z (int __stdcall recv_(unsigned int,char *,int,int))
       98    ?CHAT_fixEscape@@YAXXZ (void __cdecl CHAT_fixEscape(void))
       99    ?CHAT_dbg@@YAXXZ (void __cdecl CHAT_dbg(void))
      100    ?NETPROTO_enlargeBuffer@@YAXXZ (void __cdecl NETPROTO_enlargeBuffer(void))
      101    ?NETPROTO_enlargeBuffer2@@YAXXZ (void __cdecl NETPROTO_enlargeBuffer2(void))
      102    ?ITEMPNG_loadPng@@YAXXZ (void __cdecl ITEMPNG_loadPng(void))
      103    ?ITEMPNG_loadPngChar@@YAXXZ (void __cdecl ITEMPNG_loadPngChar(void))
      300    ?DBG_load256@@YAXXZ (void __cdecl DBG_load256(void))
               exported name: DBG_load256
      301    ?DBG_disp256@@YAXXZ (void __cdecl DBG_disp256(void))
               exported name: DBG_disp256
      302    ?DBG_di2p256@@YAXXZ (void __cdecl DBG_di2p256(void))
               exported name: DBG_di2p256
      303    ?DBG_di3p256@@YAXXZ (void __cdecl DBG_di3p256(void))
               exported name: DBG_di3p256
      304    ?DBG_decideState@@YAXXZ (void __cdecl DBG_decideState(void))
               exported name: DBG_decideState
